   1               		.file	"lufa.c"
   2               	__SP_H__ = 0x3e
   3               	__SP_L__ = 0x3d
   4               	__SREG__ = 0x3f
   5               	__tmp_reg__ = 0
   6               	__zero_reg__ = 1
   7               		.text
   8               	.Ltext0:
   9               		.cfi_sections	.debug_frame
  10               		.section	.text.keyboard_leds,"ax",@progbits
  12               	keyboard_leds:
  13               	.LFB113:
  14               		.file 1 "../../tmk_core/protocol/lufa/lufa.c"
   1:../../tmk_core/protocol/lufa/lufa.c **** /*
   2:../../tmk_core/protocol/lufa/lufa.c ****  * Copyright 2012 Jun Wako <wakojun@gmail.com>
   3:../../tmk_core/protocol/lufa/lufa.c ****  * This file is based on:
   4:../../tmk_core/protocol/lufa/lufa.c ****  *     LUFA-120219/Demos/Device/Lowlevel/KeyboardMouse
   5:../../tmk_core/protocol/lufa/lufa.c ****  *     LUFA-120219/Demos/Device/Lowlevel/GenericHID
   6:../../tmk_core/protocol/lufa/lufa.c ****  */
   7:../../tmk_core/protocol/lufa/lufa.c **** 
   8:../../tmk_core/protocol/lufa/lufa.c **** /*
   9:../../tmk_core/protocol/lufa/lufa.c ****              LUFA Library
  10:../../tmk_core/protocol/lufa/lufa.c ****      Copyright (C) Dean Camera, 2012.
  11:../../tmk_core/protocol/lufa/lufa.c **** 
  12:../../tmk_core/protocol/lufa/lufa.c ****   dean [at] fourwalledcubicle [dot] com
  13:../../tmk_core/protocol/lufa/lufa.c ****            www.lufa-lib.org
  14:../../tmk_core/protocol/lufa/lufa.c **** */
  15:../../tmk_core/protocol/lufa/lufa.c **** 
  16:../../tmk_core/protocol/lufa/lufa.c **** /*
  17:../../tmk_core/protocol/lufa/lufa.c ****   Copyright 2012  Dean Camera (dean [at] fourwalledcubicle [dot] com)
  18:../../tmk_core/protocol/lufa/lufa.c ****   Copyright 2010  Denver Gingerich (denver [at] ossguy [dot] com)
  19:../../tmk_core/protocol/lufa/lufa.c **** 
  20:../../tmk_core/protocol/lufa/lufa.c ****   Permission to use, copy, modify, distribute, and sell this
  21:../../tmk_core/protocol/lufa/lufa.c ****   software and its documentation for any purpose is hereby granted
  22:../../tmk_core/protocol/lufa/lufa.c ****   without fee, provided that the above copyright notice appear in
  23:../../tmk_core/protocol/lufa/lufa.c ****   all copies and that both that the copyright notice and this
  24:../../tmk_core/protocol/lufa/lufa.c ****   permission notice and warranty disclaimer appear in supporting
  25:../../tmk_core/protocol/lufa/lufa.c ****   documentation, and that the name of the author not be used in
  26:../../tmk_core/protocol/lufa/lufa.c ****   advertising or publicity pertaining to distribution of the
  27:../../tmk_core/protocol/lufa/lufa.c ****   software without specific, written prior permission.
  28:../../tmk_core/protocol/lufa/lufa.c **** 
  29:../../tmk_core/protocol/lufa/lufa.c ****   The author disclaim all warranties with regard to this
  30:../../tmk_core/protocol/lufa/lufa.c ****   software, including all implied warranties of merchantability
  31:../../tmk_core/protocol/lufa/lufa.c ****   and fitness.  In no event shall the author be liable for any
  32:../../tmk_core/protocol/lufa/lufa.c ****   special, indirect or consequential damages or any damages
  33:../../tmk_core/protocol/lufa/lufa.c ****   whatsoever resulting from loss of use, data or profits, whether
  34:../../tmk_core/protocol/lufa/lufa.c ****   in an action of contract, negligence or other tortious action,
  35:../../tmk_core/protocol/lufa/lufa.c ****   arising out of or in connection with the use or performance of
  36:../../tmk_core/protocol/lufa/lufa.c ****   this software.
  37:../../tmk_core/protocol/lufa/lufa.c **** */
  38:../../tmk_core/protocol/lufa/lufa.c **** 
  39:../../tmk_core/protocol/lufa/lufa.c **** #include "report.h"
  40:../../tmk_core/protocol/lufa/lufa.c **** #include "host.h"
  41:../../tmk_core/protocol/lufa/lufa.c **** #include "host_driver.h"
  42:../../tmk_core/protocol/lufa/lufa.c **** #include "keyboard.h"
  43:../../tmk_core/protocol/lufa/lufa.c **** #include "action.h"
  44:../../tmk_core/protocol/lufa/lufa.c **** #include "led.h"
  45:../../tmk_core/protocol/lufa/lufa.c **** #include "sendchar.h"
  46:../../tmk_core/protocol/lufa/lufa.c **** #include "debug.h"
  47:../../tmk_core/protocol/lufa/lufa.c **** #ifdef SLEEP_LED_ENABLE
  48:../../tmk_core/protocol/lufa/lufa.c **** #include "sleep_led.h"
  49:../../tmk_core/protocol/lufa/lufa.c **** #endif
  50:../../tmk_core/protocol/lufa/lufa.c **** #include "suspend.h"
  51:../../tmk_core/protocol/lufa/lufa.c **** #include "hook.h"
  52:../../tmk_core/protocol/lufa/lufa.c **** 
  53:../../tmk_core/protocol/lufa/lufa.c **** #ifdef LUFA_DEBUG_SUART
  54:../../tmk_core/protocol/lufa/lufa.c **** #include "avr/suart.h"
  55:../../tmk_core/protocol/lufa/lufa.c **** #endif
  56:../../tmk_core/protocol/lufa/lufa.c **** 
  57:../../tmk_core/protocol/lufa/lufa.c **** #include "matrix.h"
  58:../../tmk_core/protocol/lufa/lufa.c **** #include "descriptor.h"
  59:../../tmk_core/protocol/lufa/lufa.c **** #include "lufa.h"
  60:../../tmk_core/protocol/lufa/lufa.c **** 
  61:../../tmk_core/protocol/lufa/lufa.c **** 
  62:../../tmk_core/protocol/lufa/lufa.c **** //#define LUFA_DEBUG
  63:../../tmk_core/protocol/lufa/lufa.c **** 
  64:../../tmk_core/protocol/lufa/lufa.c **** 
  65:../../tmk_core/protocol/lufa/lufa.c **** uint8_t keyboard_idle = 0;
  66:../../tmk_core/protocol/lufa/lufa.c **** /* 0: Boot Protocol, 1: Report Protocol(default) */
  67:../../tmk_core/protocol/lufa/lufa.c **** uint8_t keyboard_protocol = 1;
  68:../../tmk_core/protocol/lufa/lufa.c **** static uint8_t keyboard_led_stats = 0;
  69:../../tmk_core/protocol/lufa/lufa.c **** 
  70:../../tmk_core/protocol/lufa/lufa.c **** static report_keyboard_t keyboard_report_sent;
  71:../../tmk_core/protocol/lufa/lufa.c **** 
  72:../../tmk_core/protocol/lufa/lufa.c **** 
  73:../../tmk_core/protocol/lufa/lufa.c **** /* Host driver */
  74:../../tmk_core/protocol/lufa/lufa.c **** static uint8_t keyboard_leds(void);
  75:../../tmk_core/protocol/lufa/lufa.c **** static void send_keyboard(report_keyboard_t *report);
  76:../../tmk_core/protocol/lufa/lufa.c **** static void send_mouse(report_mouse_t *report);
  77:../../tmk_core/protocol/lufa/lufa.c **** static void send_system(uint16_t data);
  78:../../tmk_core/protocol/lufa/lufa.c **** static void send_consumer(uint16_t data);
  79:../../tmk_core/protocol/lufa/lufa.c **** host_driver_t lufa_driver = {
  80:../../tmk_core/protocol/lufa/lufa.c ****     keyboard_leds,
  81:../../tmk_core/protocol/lufa/lufa.c ****     send_keyboard,
  82:../../tmk_core/protocol/lufa/lufa.c ****     send_mouse,
  83:../../tmk_core/protocol/lufa/lufa.c ****     send_system,
  84:../../tmk_core/protocol/lufa/lufa.c ****     send_consumer
  85:../../tmk_core/protocol/lufa/lufa.c **** };
  86:../../tmk_core/protocol/lufa/lufa.c **** 
  87:../../tmk_core/protocol/lufa/lufa.c **** 
  88:../../tmk_core/protocol/lufa/lufa.c **** /*******************************************************************************
  89:../../tmk_core/protocol/lufa/lufa.c ****  * Console
  90:../../tmk_core/protocol/lufa/lufa.c ****  ******************************************************************************/
  91:../../tmk_core/protocol/lufa/lufa.c **** #ifdef CONSOLE_ENABLE
  92:../../tmk_core/protocol/lufa/lufa.c **** static void Console_Task(void)
  93:../../tmk_core/protocol/lufa/lufa.c **** {
  94:../../tmk_core/protocol/lufa/lufa.c ****     /* Device must be connected and configured for the task to run */
  95:../../tmk_core/protocol/lufa/lufa.c ****     if (USB_DeviceState != DEVICE_STATE_Configured)
  96:../../tmk_core/protocol/lufa/lufa.c ****         return;
  97:../../tmk_core/protocol/lufa/lufa.c **** 
  98:../../tmk_core/protocol/lufa/lufa.c ****     uint8_t ep = Endpoint_GetCurrentEndpoint();
  99:../../tmk_core/protocol/lufa/lufa.c **** 
 100:../../tmk_core/protocol/lufa/lufa.c **** #if 0
 101:../../tmk_core/protocol/lufa/lufa.c ****     // TODO: impl receivechar()/recvchar()
 102:../../tmk_core/protocol/lufa/lufa.c ****     Endpoint_SelectEndpoint(CONSOLE_OUT_EPNUM);
 103:../../tmk_core/protocol/lufa/lufa.c **** 
 104:../../tmk_core/protocol/lufa/lufa.c ****     /* Check to see if a packet has been sent from the host */
 105:../../tmk_core/protocol/lufa/lufa.c ****     if (Endpoint_IsOUTReceived())
 106:../../tmk_core/protocol/lufa/lufa.c ****     {
 107:../../tmk_core/protocol/lufa/lufa.c ****         /* Check to see if the packet contains data */
 108:../../tmk_core/protocol/lufa/lufa.c ****         if (Endpoint_IsReadWriteAllowed())
 109:../../tmk_core/protocol/lufa/lufa.c ****         {
 110:../../tmk_core/protocol/lufa/lufa.c ****             /* Create a temporary buffer to hold the read in report from the host */
 111:../../tmk_core/protocol/lufa/lufa.c ****             uint8_t ConsoleData[CONSOLE_EPSIZE];
 112:../../tmk_core/protocol/lufa/lufa.c **** 
 113:../../tmk_core/protocol/lufa/lufa.c ****             /* Read Console Report Data */
 114:../../tmk_core/protocol/lufa/lufa.c ****             Endpoint_Read_Stream_LE(&ConsoleData, sizeof(ConsoleData), NULL);
 115:../../tmk_core/protocol/lufa/lufa.c **** 
 116:../../tmk_core/protocol/lufa/lufa.c ****             /* Process Console Report Data */
 117:../../tmk_core/protocol/lufa/lufa.c ****             //ProcessConsoleHIDReport(ConsoleData);
 118:../../tmk_core/protocol/lufa/lufa.c ****         }
 119:../../tmk_core/protocol/lufa/lufa.c **** 
 120:../../tmk_core/protocol/lufa/lufa.c ****         /* Finalize the stream transfer to send the last packet */
 121:../../tmk_core/protocol/lufa/lufa.c ****         Endpoint_ClearOUT();
 122:../../tmk_core/protocol/lufa/lufa.c ****     }
 123:../../tmk_core/protocol/lufa/lufa.c **** #endif
 124:../../tmk_core/protocol/lufa/lufa.c **** 
 125:../../tmk_core/protocol/lufa/lufa.c ****     /* IN packet */
 126:../../tmk_core/protocol/lufa/lufa.c ****     Endpoint_SelectEndpoint(CONSOLE_IN_EPNUM);
 127:../../tmk_core/protocol/lufa/lufa.c ****     if (!Endpoint_IsEnabled() || !Endpoint_IsConfigured()) {
 128:../../tmk_core/protocol/lufa/lufa.c ****         Endpoint_SelectEndpoint(ep);
 129:../../tmk_core/protocol/lufa/lufa.c ****         return;
 130:../../tmk_core/protocol/lufa/lufa.c ****     }
 131:../../tmk_core/protocol/lufa/lufa.c **** 
 132:../../tmk_core/protocol/lufa/lufa.c ****     // fill empty bank
 133:../../tmk_core/protocol/lufa/lufa.c ****     while (Endpoint_IsReadWriteAllowed())
 134:../../tmk_core/protocol/lufa/lufa.c ****         Endpoint_Write_8(0);
 135:../../tmk_core/protocol/lufa/lufa.c **** 
 136:../../tmk_core/protocol/lufa/lufa.c ****     // flash senchar packet
 137:../../tmk_core/protocol/lufa/lufa.c ****     if (Endpoint_IsINReady()) {
 138:../../tmk_core/protocol/lufa/lufa.c ****         Endpoint_ClearIN();
 139:../../tmk_core/protocol/lufa/lufa.c ****     }
 140:../../tmk_core/protocol/lufa/lufa.c **** 
 141:../../tmk_core/protocol/lufa/lufa.c ****     Endpoint_SelectEndpoint(ep);
 142:../../tmk_core/protocol/lufa/lufa.c **** }
 143:../../tmk_core/protocol/lufa/lufa.c **** #else
 144:../../tmk_core/protocol/lufa/lufa.c **** static void Console_Task(void)
 145:../../tmk_core/protocol/lufa/lufa.c **** {
 146:../../tmk_core/protocol/lufa/lufa.c **** }
 147:../../tmk_core/protocol/lufa/lufa.c **** #endif
 148:../../tmk_core/protocol/lufa/lufa.c **** 
 149:../../tmk_core/protocol/lufa/lufa.c **** 
 150:../../tmk_core/protocol/lufa/lufa.c **** /*******************************************************************************
 151:../../tmk_core/protocol/lufa/lufa.c ****  * USB Events
 152:../../tmk_core/protocol/lufa/lufa.c ****  ******************************************************************************/
 153:../../tmk_core/protocol/lufa/lufa.c **** /*
 154:../../tmk_core/protocol/lufa/lufa.c ****  * Event Order of Plug in:
 155:../../tmk_core/protocol/lufa/lufa.c ****  * 0) EVENT_USB_Device_Connect
 156:../../tmk_core/protocol/lufa/lufa.c ****  * 1) EVENT_USB_Device_Suspend
 157:../../tmk_core/protocol/lufa/lufa.c ****  * 2) EVENT_USB_Device_Reset
 158:../../tmk_core/protocol/lufa/lufa.c ****  * 3) EVENT_USB_Device_Wake
 159:../../tmk_core/protocol/lufa/lufa.c **** */
 160:../../tmk_core/protocol/lufa/lufa.c **** void EVENT_USB_Device_Connect(void)
 161:../../tmk_core/protocol/lufa/lufa.c **** {
 162:../../tmk_core/protocol/lufa/lufa.c ****     print("[C]");
 163:../../tmk_core/protocol/lufa/lufa.c ****     /* For battery powered device */
 164:../../tmk_core/protocol/lufa/lufa.c ****     if (!USB_IsInitialized) {
 165:../../tmk_core/protocol/lufa/lufa.c ****         USB_Disable();
 166:../../tmk_core/protocol/lufa/lufa.c ****         USB_Init();
 167:../../tmk_core/protocol/lufa/lufa.c ****         USB_Device_EnableSOFEvents();
 168:../../tmk_core/protocol/lufa/lufa.c ****     }
 169:../../tmk_core/protocol/lufa/lufa.c **** }
 170:../../tmk_core/protocol/lufa/lufa.c **** 
 171:../../tmk_core/protocol/lufa/lufa.c **** void EVENT_USB_Device_Disconnect(void)
 172:../../tmk_core/protocol/lufa/lufa.c **** {
 173:../../tmk_core/protocol/lufa/lufa.c ****     print("[D]");
 174:../../tmk_core/protocol/lufa/lufa.c ****     /* For battery powered device */
 175:../../tmk_core/protocol/lufa/lufa.c ****     USB_IsInitialized = false;
 176:../../tmk_core/protocol/lufa/lufa.c **** /* TODO: This doesn't work. After several plug in/outs can not be enumerated.
 177:../../tmk_core/protocol/lufa/lufa.c ****     if (USB_IsInitialized) {
 178:../../tmk_core/protocol/lufa/lufa.c ****         USB_Disable();  // Disable all interrupts
 179:../../tmk_core/protocol/lufa/lufa.c **** 	USB_Controller_Enable();
 180:../../tmk_core/protocol/lufa/lufa.c ****         USB_INT_Enable(USB_INT_VBUSTI);
 181:../../tmk_core/protocol/lufa/lufa.c ****     }
 182:../../tmk_core/protocol/lufa/lufa.c **** */
 183:../../tmk_core/protocol/lufa/lufa.c **** }
 184:../../tmk_core/protocol/lufa/lufa.c **** 
 185:../../tmk_core/protocol/lufa/lufa.c **** void EVENT_USB_Device_Reset(void)
 186:../../tmk_core/protocol/lufa/lufa.c **** {
 187:../../tmk_core/protocol/lufa/lufa.c **** #ifdef LUFA_DEBUG
 188:../../tmk_core/protocol/lufa/lufa.c ****     print("[R]");
 189:../../tmk_core/protocol/lufa/lufa.c **** #endif
 190:../../tmk_core/protocol/lufa/lufa.c **** }
 191:../../tmk_core/protocol/lufa/lufa.c **** 
 192:../../tmk_core/protocol/lufa/lufa.c **** void EVENT_USB_Device_Suspend()
 193:../../tmk_core/protocol/lufa/lufa.c **** {
 194:../../tmk_core/protocol/lufa/lufa.c **** #ifdef LUFA_DEBUG
 195:../../tmk_core/protocol/lufa/lufa.c ****     print("[S]");
 196:../../tmk_core/protocol/lufa/lufa.c **** #endif
 197:../../tmk_core/protocol/lufa/lufa.c ****     hook_usb_suspend_entry();
 198:../../tmk_core/protocol/lufa/lufa.c **** }
 199:../../tmk_core/protocol/lufa/lufa.c **** 
 200:../../tmk_core/protocol/lufa/lufa.c **** void EVENT_USB_Device_WakeUp()
 201:../../tmk_core/protocol/lufa/lufa.c **** {
 202:../../tmk_core/protocol/lufa/lufa.c **** #ifdef LUFA_DEBUG
 203:../../tmk_core/protocol/lufa/lufa.c ****     print("[W]");
 204:../../tmk_core/protocol/lufa/lufa.c **** #endif
 205:../../tmk_core/protocol/lufa/lufa.c ****     hook_usb_wakeup();
 206:../../tmk_core/protocol/lufa/lufa.c **** }
 207:../../tmk_core/protocol/lufa/lufa.c **** 
 208:../../tmk_core/protocol/lufa/lufa.c **** #ifdef CONSOLE_ENABLE
 209:../../tmk_core/protocol/lufa/lufa.c **** static bool console_flush = false;
 210:../../tmk_core/protocol/lufa/lufa.c **** #define CONSOLE_FLUSH_SET(b)   do { \
 211:../../tmk_core/protocol/lufa/lufa.c ****     uint8_t sreg = SREG; cli(); console_flush = b; SREG = sreg; \
 212:../../tmk_core/protocol/lufa/lufa.c **** } while (0)
 213:../../tmk_core/protocol/lufa/lufa.c **** 
 214:../../tmk_core/protocol/lufa/lufa.c **** // called every 1ms
 215:../../tmk_core/protocol/lufa/lufa.c **** void EVENT_USB_Device_StartOfFrame(void)
 216:../../tmk_core/protocol/lufa/lufa.c **** {
 217:../../tmk_core/protocol/lufa/lufa.c ****     static uint8_t count;
 218:../../tmk_core/protocol/lufa/lufa.c ****     if (++count % 50) return;
 219:../../tmk_core/protocol/lufa/lufa.c ****     count = 0;
 220:../../tmk_core/protocol/lufa/lufa.c **** 
 221:../../tmk_core/protocol/lufa/lufa.c ****     if (!console_flush) return;
 222:../../tmk_core/protocol/lufa/lufa.c ****     Console_Task();
 223:../../tmk_core/protocol/lufa/lufa.c ****     console_flush = false;
 224:../../tmk_core/protocol/lufa/lufa.c **** }
 225:../../tmk_core/protocol/lufa/lufa.c **** #endif
 226:../../tmk_core/protocol/lufa/lufa.c **** 
 227:../../tmk_core/protocol/lufa/lufa.c **** /** Event handler for the USB_ConfigurationChanged event.
 228:../../tmk_core/protocol/lufa/lufa.c ****  * This is fired when the host sets the current configuration of the USB device after enumeration.
 229:../../tmk_core/protocol/lufa/lufa.c ****  *
 230:../../tmk_core/protocol/lufa/lufa.c ****  * ATMega32u2 supports dual bank(ping-pong mode) only on endpoint 3 and 4,
 231:../../tmk_core/protocol/lufa/lufa.c ****  * it is safe to use singl bank for all endpoints.
 232:../../tmk_core/protocol/lufa/lufa.c ****  */
 233:../../tmk_core/protocol/lufa/lufa.c **** void EVENT_USB_Device_ConfigurationChanged(void)
 234:../../tmk_core/protocol/lufa/lufa.c **** {
 235:../../tmk_core/protocol/lufa/lufa.c **** #ifdef LUFA_DEBUG
 236:../../tmk_core/protocol/lufa/lufa.c ****     print("[c]");
 237:../../tmk_core/protocol/lufa/lufa.c **** #endif
 238:../../tmk_core/protocol/lufa/lufa.c ****     bool ConfigSuccess = true;
 239:../../tmk_core/protocol/lufa/lufa.c **** 
 240:../../tmk_core/protocol/lufa/lufa.c ****     /* Setup Keyboard HID Report Endpoints */
 241:../../tmk_core/protocol/lufa/lufa.c ****     ConfigSuccess &= ENDPOINT_CONFIG(KEYBOARD_IN_EPNUM, EP_TYPE_INTERRUPT, ENDPOINT_DIR_IN,
 242:../../tmk_core/protocol/lufa/lufa.c ****                                      KEYBOARD_EPSIZE, ENDPOINT_BANK_SINGLE);
 243:../../tmk_core/protocol/lufa/lufa.c **** 
 244:../../tmk_core/protocol/lufa/lufa.c **** #ifdef MOUSE_ENABLE
 245:../../tmk_core/protocol/lufa/lufa.c ****     /* Setup Mouse HID Report Endpoint */
 246:../../tmk_core/protocol/lufa/lufa.c ****     ConfigSuccess &= ENDPOINT_CONFIG(MOUSE_IN_EPNUM, EP_TYPE_INTERRUPT, ENDPOINT_DIR_IN,
 247:../../tmk_core/protocol/lufa/lufa.c ****                                      MOUSE_EPSIZE, ENDPOINT_BANK_SINGLE);
 248:../../tmk_core/protocol/lufa/lufa.c **** #endif
 249:../../tmk_core/protocol/lufa/lufa.c **** 
 250:../../tmk_core/protocol/lufa/lufa.c **** #ifdef EXTRAKEY_ENABLE
 251:../../tmk_core/protocol/lufa/lufa.c ****     /* Setup Extra HID Report Endpoint */
 252:../../tmk_core/protocol/lufa/lufa.c ****     ConfigSuccess &= ENDPOINT_CONFIG(EXTRAKEY_IN_EPNUM, EP_TYPE_INTERRUPT, ENDPOINT_DIR_IN,
 253:../../tmk_core/protocol/lufa/lufa.c ****                                      EXTRAKEY_EPSIZE, ENDPOINT_BANK_SINGLE);
 254:../../tmk_core/protocol/lufa/lufa.c **** #endif
 255:../../tmk_core/protocol/lufa/lufa.c **** 
 256:../../tmk_core/protocol/lufa/lufa.c **** #ifdef CONSOLE_ENABLE
 257:../../tmk_core/protocol/lufa/lufa.c ****     /* Setup Console HID Report Endpoints */
 258:../../tmk_core/protocol/lufa/lufa.c ****     ConfigSuccess &= ENDPOINT_CONFIG(CONSOLE_IN_EPNUM, EP_TYPE_INTERRUPT, ENDPOINT_DIR_IN,
 259:../../tmk_core/protocol/lufa/lufa.c ****                                      CONSOLE_EPSIZE, ENDPOINT_BANK_SINGLE);
 260:../../tmk_core/protocol/lufa/lufa.c **** #if 0
 261:../../tmk_core/protocol/lufa/lufa.c ****     ConfigSuccess &= ENDPOINT_CONFIG(CONSOLE_OUT_EPNUM, EP_TYPE_INTERRUPT, ENDPOINT_DIR_OUT,
 262:../../tmk_core/protocol/lufa/lufa.c ****                                      CONSOLE_EPSIZE, ENDPOINT_BANK_SINGLE);
 263:../../tmk_core/protocol/lufa/lufa.c **** #endif
 264:../../tmk_core/protocol/lufa/lufa.c **** #endif
 265:../../tmk_core/protocol/lufa/lufa.c **** 
 266:../../tmk_core/protocol/lufa/lufa.c **** #ifdef NKRO_ENABLE
 267:../../tmk_core/protocol/lufa/lufa.c ****     /* Setup NKRO HID Report Endpoints */
 268:../../tmk_core/protocol/lufa/lufa.c ****     ConfigSuccess &= ENDPOINT_CONFIG(NKRO_IN_EPNUM, EP_TYPE_INTERRUPT, ENDPOINT_DIR_IN,
 269:../../tmk_core/protocol/lufa/lufa.c ****                                      NKRO_EPSIZE, ENDPOINT_BANK_SINGLE);
 270:../../tmk_core/protocol/lufa/lufa.c **** #endif
 271:../../tmk_core/protocol/lufa/lufa.c **** }
 272:../../tmk_core/protocol/lufa/lufa.c **** 
 273:../../tmk_core/protocol/lufa/lufa.c **** /*
 274:../../tmk_core/protocol/lufa/lufa.c **** Appendix G: HID Request Support Requirements
 275:../../tmk_core/protocol/lufa/lufa.c **** 
 276:../../tmk_core/protocol/lufa/lufa.c **** The following table enumerates the requests that need to be supported by various types of HID class
 277:../../tmk_core/protocol/lufa/lufa.c **** 
 278:../../tmk_core/protocol/lufa/lufa.c **** Device type     GetReport   SetReport   GetIdle     SetIdle     GetProtocol SetProtocol
 279:../../tmk_core/protocol/lufa/lufa.c **** ------------------------------------------------------------------------------------------
 280:../../tmk_core/protocol/lufa/lufa.c **** Boot Mouse      Required    Optional    Optional    Optional    Required    Required
 281:../../tmk_core/protocol/lufa/lufa.c **** Non-Boot Mouse  Required    Optional    Optional    Optional    Optional    Optional
 282:../../tmk_core/protocol/lufa/lufa.c **** Boot Keyboard   Required    Optional    Required    Required    Required    Required
 283:../../tmk_core/protocol/lufa/lufa.c **** Non-Boot Keybrd Required    Optional    Required    Required    Optional    Optional
 284:../../tmk_core/protocol/lufa/lufa.c **** Other Device    Required    Optional    Optional    Optional    Optional    Optional
 285:../../tmk_core/protocol/lufa/lufa.c **** */
 286:../../tmk_core/protocol/lufa/lufa.c **** /** Event handler for the USB_ControlRequest event.
 287:../../tmk_core/protocol/lufa/lufa.c ****  *  This is fired before passing along unhandled control requests to the library for processing int
 288:../../tmk_core/protocol/lufa/lufa.c ****  */
 289:../../tmk_core/protocol/lufa/lufa.c **** void EVENT_USB_Device_ControlRequest(void)
 290:../../tmk_core/protocol/lufa/lufa.c **** {
 291:../../tmk_core/protocol/lufa/lufa.c ****     uint8_t* ReportData = NULL;
 292:../../tmk_core/protocol/lufa/lufa.c ****     uint8_t  ReportSize = 0;
 293:../../tmk_core/protocol/lufa/lufa.c **** 
 294:../../tmk_core/protocol/lufa/lufa.c ****     /* Handle HID Class specific requests */
 295:../../tmk_core/protocol/lufa/lufa.c ****     switch (USB_ControlRequest.bRequest)
 296:../../tmk_core/protocol/lufa/lufa.c ****     {
 297:../../tmk_core/protocol/lufa/lufa.c ****         case HID_REQ_GetReport:
 298:../../tmk_core/protocol/lufa/lufa.c ****             if (USB_ControlRequest.bmRequestType == (REQDIR_DEVICETOHOST | REQTYPE_CLASS | REQREC_I
 299:../../tmk_core/protocol/lufa/lufa.c ****             {
 300:../../tmk_core/protocol/lufa/lufa.c ****                 Endpoint_ClearSETUP();
 301:../../tmk_core/protocol/lufa/lufa.c **** 
 302:../../tmk_core/protocol/lufa/lufa.c ****                 // Interface
 303:../../tmk_core/protocol/lufa/lufa.c ****                 switch (USB_ControlRequest.wIndex) {
 304:../../tmk_core/protocol/lufa/lufa.c ****                 case KEYBOARD_INTERFACE:
 305:../../tmk_core/protocol/lufa/lufa.c ****                     // TODO: test/check
 306:../../tmk_core/protocol/lufa/lufa.c ****                     ReportData = (uint8_t*)&keyboard_report_sent;
 307:../../tmk_core/protocol/lufa/lufa.c ****                     ReportSize = sizeof(keyboard_report_sent);
 308:../../tmk_core/protocol/lufa/lufa.c ****                     break;
 309:../../tmk_core/protocol/lufa/lufa.c ****                 }
 310:../../tmk_core/protocol/lufa/lufa.c **** 
 311:../../tmk_core/protocol/lufa/lufa.c ****                 /* Write the report data to the control endpoint */
 312:../../tmk_core/protocol/lufa/lufa.c ****                 Endpoint_Write_Control_Stream_LE(ReportData, ReportSize);
 313:../../tmk_core/protocol/lufa/lufa.c ****                 Endpoint_ClearOUT();
 314:../../tmk_core/protocol/lufa/lufa.c **** #ifdef LUFA_DEBUG
 315:../../tmk_core/protocol/lufa/lufa.c ****                 xprintf("[r%d]", USB_ControlRequest.wIndex);
 316:../../tmk_core/protocol/lufa/lufa.c **** #endif
 317:../../tmk_core/protocol/lufa/lufa.c ****             }
 318:../../tmk_core/protocol/lufa/lufa.c **** 
 319:../../tmk_core/protocol/lufa/lufa.c ****             break;
 320:../../tmk_core/protocol/lufa/lufa.c ****         case HID_REQ_SetReport:
 321:../../tmk_core/protocol/lufa/lufa.c ****             if (USB_ControlRequest.bmRequestType == (REQDIR_HOSTTODEVICE | REQTYPE_CLASS | REQREC_I
 322:../../tmk_core/protocol/lufa/lufa.c ****             {
 323:../../tmk_core/protocol/lufa/lufa.c **** 
 324:../../tmk_core/protocol/lufa/lufa.c ****                 // Interface
 325:../../tmk_core/protocol/lufa/lufa.c ****                 switch (USB_ControlRequest.wIndex) {
 326:../../tmk_core/protocol/lufa/lufa.c ****                 case KEYBOARD_INTERFACE:
 327:../../tmk_core/protocol/lufa/lufa.c **** #ifdef NKRO_ENABLE
 328:../../tmk_core/protocol/lufa/lufa.c ****                 case NKRO_INTERFACE:
 329:../../tmk_core/protocol/lufa/lufa.c **** #endif
 330:../../tmk_core/protocol/lufa/lufa.c ****                     Endpoint_ClearSETUP();
 331:../../tmk_core/protocol/lufa/lufa.c **** 
 332:../../tmk_core/protocol/lufa/lufa.c ****                     while (!(Endpoint_IsOUTReceived())) {
 333:../../tmk_core/protocol/lufa/lufa.c ****                         if (USB_DeviceState == DEVICE_STATE_Unattached)
 334:../../tmk_core/protocol/lufa/lufa.c ****                           return;
 335:../../tmk_core/protocol/lufa/lufa.c ****                     }
 336:../../tmk_core/protocol/lufa/lufa.c ****                     keyboard_led_stats = Endpoint_Read_8();
 337:../../tmk_core/protocol/lufa/lufa.c **** 
 338:../../tmk_core/protocol/lufa/lufa.c ****                     Endpoint_ClearOUT();
 339:../../tmk_core/protocol/lufa/lufa.c ****                     Endpoint_ClearStatusStage();
 340:../../tmk_core/protocol/lufa/lufa.c **** #ifdef LUFA_DEBUG
 341:../../tmk_core/protocol/lufa/lufa.c ****                     xprintf("[L%d]", USB_ControlRequest.wIndex);
 342:../../tmk_core/protocol/lufa/lufa.c **** #endif
 343:../../tmk_core/protocol/lufa/lufa.c ****                     break;
 344:../../tmk_core/protocol/lufa/lufa.c ****                 }
 345:../../tmk_core/protocol/lufa/lufa.c **** 
 346:../../tmk_core/protocol/lufa/lufa.c ****             }
 347:../../tmk_core/protocol/lufa/lufa.c **** 
 348:../../tmk_core/protocol/lufa/lufa.c ****             break;
 349:../../tmk_core/protocol/lufa/lufa.c **** 
 350:../../tmk_core/protocol/lufa/lufa.c ****         case HID_REQ_GetProtocol:
 351:../../tmk_core/protocol/lufa/lufa.c ****             if (USB_ControlRequest.bmRequestType == (REQDIR_DEVICETOHOST | REQTYPE_CLASS | REQREC_I
 352:../../tmk_core/protocol/lufa/lufa.c ****             {
 353:../../tmk_core/protocol/lufa/lufa.c ****                 if (USB_ControlRequest.wIndex == KEYBOARD_INTERFACE) {
 354:../../tmk_core/protocol/lufa/lufa.c ****                     Endpoint_ClearSETUP();
 355:../../tmk_core/protocol/lufa/lufa.c ****                     while (!(Endpoint_IsINReady()));
 356:../../tmk_core/protocol/lufa/lufa.c ****                     Endpoint_Write_8(keyboard_protocol);
 357:../../tmk_core/protocol/lufa/lufa.c ****                     Endpoint_ClearIN();
 358:../../tmk_core/protocol/lufa/lufa.c ****                     Endpoint_ClearStatusStage();
 359:../../tmk_core/protocol/lufa/lufa.c **** #ifdef LUFA_DEBUG
 360:../../tmk_core/protocol/lufa/lufa.c ****                     print("[p]");
 361:../../tmk_core/protocol/lufa/lufa.c **** #endif
 362:../../tmk_core/protocol/lufa/lufa.c ****                 }
 363:../../tmk_core/protocol/lufa/lufa.c ****             }
 364:../../tmk_core/protocol/lufa/lufa.c **** 
 365:../../tmk_core/protocol/lufa/lufa.c ****             break;
 366:../../tmk_core/protocol/lufa/lufa.c ****         case HID_REQ_SetProtocol:
 367:../../tmk_core/protocol/lufa/lufa.c ****             if (USB_ControlRequest.bmRequestType == (REQDIR_HOSTTODEVICE | REQTYPE_CLASS | REQREC_I
 368:../../tmk_core/protocol/lufa/lufa.c ****             {
 369:../../tmk_core/protocol/lufa/lufa.c ****                 if (USB_ControlRequest.wIndex == KEYBOARD_INTERFACE) {
 370:../../tmk_core/protocol/lufa/lufa.c ****                     Endpoint_ClearSETUP();
 371:../../tmk_core/protocol/lufa/lufa.c ****                     Endpoint_ClearStatusStage();
 372:../../tmk_core/protocol/lufa/lufa.c **** 
 373:../../tmk_core/protocol/lufa/lufa.c ****                     keyboard_protocol = (USB_ControlRequest.wValue & 0xFF);
 374:../../tmk_core/protocol/lufa/lufa.c ****                     clear_keyboard();
 375:../../tmk_core/protocol/lufa/lufa.c **** #ifdef LUFA_DEBUG
 376:../../tmk_core/protocol/lufa/lufa.c ****                     print("[P]");
 377:../../tmk_core/protocol/lufa/lufa.c **** #endif
 378:../../tmk_core/protocol/lufa/lufa.c ****                 }
 379:../../tmk_core/protocol/lufa/lufa.c ****             }
 380:../../tmk_core/protocol/lufa/lufa.c **** 
 381:../../tmk_core/protocol/lufa/lufa.c ****             break;
 382:../../tmk_core/protocol/lufa/lufa.c ****         case HID_REQ_SetIdle:
 383:../../tmk_core/protocol/lufa/lufa.c ****             if (USB_ControlRequest.bmRequestType == (REQDIR_HOSTTODEVICE | REQTYPE_CLASS | REQREC_I
 384:../../tmk_core/protocol/lufa/lufa.c ****             {
 385:../../tmk_core/protocol/lufa/lufa.c ****                 Endpoint_ClearSETUP();
 386:../../tmk_core/protocol/lufa/lufa.c ****                 Endpoint_ClearStatusStage();
 387:../../tmk_core/protocol/lufa/lufa.c **** 
 388:../../tmk_core/protocol/lufa/lufa.c ****                 keyboard_idle = ((USB_ControlRequest.wValue & 0xFF00) >> 8);
 389:../../tmk_core/protocol/lufa/lufa.c **** #ifdef LUFA_DEBUG
 390:../../tmk_core/protocol/lufa/lufa.c ****                 xprintf("[I%d]%d", USB_ControlRequest.wIndex, (USB_ControlRequest.wValue & 0xFF00) 
 391:../../tmk_core/protocol/lufa/lufa.c **** #endif
 392:../../tmk_core/protocol/lufa/lufa.c ****             }
 393:../../tmk_core/protocol/lufa/lufa.c **** 
 394:../../tmk_core/protocol/lufa/lufa.c ****             break;
 395:../../tmk_core/protocol/lufa/lufa.c ****         case HID_REQ_GetIdle:
 396:../../tmk_core/protocol/lufa/lufa.c ****             if (USB_ControlRequest.bmRequestType == (REQDIR_DEVICETOHOST | REQTYPE_CLASS | REQREC_I
 397:../../tmk_core/protocol/lufa/lufa.c ****             {
 398:../../tmk_core/protocol/lufa/lufa.c ****                 Endpoint_ClearSETUP();
 399:../../tmk_core/protocol/lufa/lufa.c ****                 while (!(Endpoint_IsINReady()));
 400:../../tmk_core/protocol/lufa/lufa.c ****                 Endpoint_Write_8(keyboard_idle);
 401:../../tmk_core/protocol/lufa/lufa.c ****                 Endpoint_ClearIN();
 402:../../tmk_core/protocol/lufa/lufa.c ****                 Endpoint_ClearStatusStage();
 403:../../tmk_core/protocol/lufa/lufa.c **** #ifdef LUFA_DEBUG
 404:../../tmk_core/protocol/lufa/lufa.c ****                 print("[i]");
 405:../../tmk_core/protocol/lufa/lufa.c **** #endif
 406:../../tmk_core/protocol/lufa/lufa.c ****             }
 407:../../tmk_core/protocol/lufa/lufa.c **** 
 408:../../tmk_core/protocol/lufa/lufa.c ****             break;
 409:../../tmk_core/protocol/lufa/lufa.c ****     }
 410:../../tmk_core/protocol/lufa/lufa.c **** }
 411:../../tmk_core/protocol/lufa/lufa.c **** 
 412:../../tmk_core/protocol/lufa/lufa.c **** /*******************************************************************************
 413:../../tmk_core/protocol/lufa/lufa.c ****  * Host driver
 414:../../tmk_core/protocol/lufa/lufa.c ****  ******************************************************************************/
 415:../../tmk_core/protocol/lufa/lufa.c **** static uint8_t keyboard_leds(void)
 416:../../tmk_core/protocol/lufa/lufa.c **** {
  15               		.loc 1 416 0
  16               		.cfi_startproc
  17               	/* prologue: function */
  18               	/* frame size = 0 */
  19               	/* stack size = 0 */
  20               	.L__stack_usage = 0
 417:../../tmk_core/protocol/lufa/lufa.c ****     return keyboard_led_stats;
 418:../../tmk_core/protocol/lufa/lufa.c **** }
  21               		.loc 1 418 0
  22 0000 8091 0000 		lds r24,keyboard_led_stats
  23 0004 0895      		ret
  24               		.cfi_endproc
  25               	.LFE113:
  27               		.section	.text.sendchar,"ax",@progbits
  28               	.global	sendchar
  30               	sendchar:
  31               	.LFB118:
 419:../../tmk_core/protocol/lufa/lufa.c **** 
 420:../../tmk_core/protocol/lufa/lufa.c **** static void send_keyboard(report_keyboard_t *report)
 421:../../tmk_core/protocol/lufa/lufa.c **** {
 422:../../tmk_core/protocol/lufa/lufa.c ****     uint8_t timeout = 255;
 423:../../tmk_core/protocol/lufa/lufa.c **** 
 424:../../tmk_core/protocol/lufa/lufa.c ****     if (USB_DeviceState != DEVICE_STATE_Configured)
 425:../../tmk_core/protocol/lufa/lufa.c ****         return;
 426:../../tmk_core/protocol/lufa/lufa.c **** 
 427:../../tmk_core/protocol/lufa/lufa.c ****     /* Select the Keyboard Report Endpoint */
 428:../../tmk_core/protocol/lufa/lufa.c **** #ifdef NKRO_ENABLE
 429:../../tmk_core/protocol/lufa/lufa.c ****     if (keyboard_protocol && keyboard_nkro) {
 430:../../tmk_core/protocol/lufa/lufa.c ****         /* Report protocol - NKRO */
 431:../../tmk_core/protocol/lufa/lufa.c ****         Endpoint_SelectEndpoint(NKRO_IN_EPNUM);
 432:../../tmk_core/protocol/lufa/lufa.c **** 
 433:../../tmk_core/protocol/lufa/lufa.c ****         /* Check if write ready for a polling interval around 1ms */
 434:../../tmk_core/protocol/lufa/lufa.c ****         while (timeout-- && !Endpoint_IsReadWriteAllowed()) _delay_us(4);
 435:../../tmk_core/protocol/lufa/lufa.c ****         if (!Endpoint_IsReadWriteAllowed()) return;
 436:../../tmk_core/protocol/lufa/lufa.c **** 
 437:../../tmk_core/protocol/lufa/lufa.c ****         /* Write Keyboard Report Data */
 438:../../tmk_core/protocol/lufa/lufa.c ****         Endpoint_Write_Stream_LE(report, NKRO_EPSIZE, NULL);
 439:../../tmk_core/protocol/lufa/lufa.c ****     }
 440:../../tmk_core/protocol/lufa/lufa.c ****     else
 441:../../tmk_core/protocol/lufa/lufa.c **** #endif
 442:../../tmk_core/protocol/lufa/lufa.c ****     {
 443:../../tmk_core/protocol/lufa/lufa.c ****         /* Boot protocol */
 444:../../tmk_core/protocol/lufa/lufa.c ****         Endpoint_SelectEndpoint(KEYBOARD_IN_EPNUM);
 445:../../tmk_core/protocol/lufa/lufa.c **** 
 446:../../tmk_core/protocol/lufa/lufa.c ****         /* Check if write ready for a polling interval around 10ms */
 447:../../tmk_core/protocol/lufa/lufa.c ****         while (timeout-- && !Endpoint_IsReadWriteAllowed()) _delay_us(40);
 448:../../tmk_core/protocol/lufa/lufa.c ****         if (!Endpoint_IsReadWriteAllowed()) return;
 449:../../tmk_core/protocol/lufa/lufa.c **** 
 450:../../tmk_core/protocol/lufa/lufa.c ****         /* Write Keyboard Report Data */
 451:../../tmk_core/protocol/lufa/lufa.c ****         Endpoint_Write_Stream_LE(report, KEYBOARD_EPSIZE, NULL);
 452:../../tmk_core/protocol/lufa/lufa.c ****     }
 453:../../tmk_core/protocol/lufa/lufa.c **** 
 454:../../tmk_core/protocol/lufa/lufa.c ****     /* Finalize the stream transfer to send the last packet */
 455:../../tmk_core/protocol/lufa/lufa.c ****     Endpoint_ClearIN();
 456:../../tmk_core/protocol/lufa/lufa.c **** 
 457:../../tmk_core/protocol/lufa/lufa.c ****     keyboard_report_sent = *report;
 458:../../tmk_core/protocol/lufa/lufa.c **** }
 459:../../tmk_core/protocol/lufa/lufa.c **** 
 460:../../tmk_core/protocol/lufa/lufa.c **** static void send_mouse(report_mouse_t *report)
 461:../../tmk_core/protocol/lufa/lufa.c **** {
 462:../../tmk_core/protocol/lufa/lufa.c **** #ifdef MOUSE_ENABLE
 463:../../tmk_core/protocol/lufa/lufa.c ****     uint8_t timeout = 255;
 464:../../tmk_core/protocol/lufa/lufa.c **** 
 465:../../tmk_core/protocol/lufa/lufa.c ****     if (USB_DeviceState != DEVICE_STATE_Configured)
 466:../../tmk_core/protocol/lufa/lufa.c ****         return;
 467:../../tmk_core/protocol/lufa/lufa.c **** 
 468:../../tmk_core/protocol/lufa/lufa.c ****     /* Select the Mouse Report Endpoint */
 469:../../tmk_core/protocol/lufa/lufa.c ****     Endpoint_SelectEndpoint(MOUSE_IN_EPNUM);
 470:../../tmk_core/protocol/lufa/lufa.c **** 
 471:../../tmk_core/protocol/lufa/lufa.c ****     /* Check if write ready for a polling interval around 10ms */
 472:../../tmk_core/protocol/lufa/lufa.c ****     while (timeout-- && !Endpoint_IsReadWriteAllowed()) _delay_us(40);
 473:../../tmk_core/protocol/lufa/lufa.c ****     if (!Endpoint_IsReadWriteAllowed()) return;
 474:../../tmk_core/protocol/lufa/lufa.c **** 
 475:../../tmk_core/protocol/lufa/lufa.c ****     /* Write Mouse Report Data */
 476:../../tmk_core/protocol/lufa/lufa.c ****     Endpoint_Write_Stream_LE(report, sizeof(report_mouse_t), NULL);
 477:../../tmk_core/protocol/lufa/lufa.c **** 
 478:../../tmk_core/protocol/lufa/lufa.c ****     /* Finalize the stream transfer to send the last packet */
 479:../../tmk_core/protocol/lufa/lufa.c ****     Endpoint_ClearIN();
 480:../../tmk_core/protocol/lufa/lufa.c **** #endif
 481:../../tmk_core/protocol/lufa/lufa.c **** }
 482:../../tmk_core/protocol/lufa/lufa.c **** 
 483:../../tmk_core/protocol/lufa/lufa.c **** static void send_system(uint16_t data)
 484:../../tmk_core/protocol/lufa/lufa.c **** {
 485:../../tmk_core/protocol/lufa/lufa.c ****     uint8_t timeout = 255;
 486:../../tmk_core/protocol/lufa/lufa.c **** 
 487:../../tmk_core/protocol/lufa/lufa.c ****     if (USB_DeviceState != DEVICE_STATE_Configured)
 488:../../tmk_core/protocol/lufa/lufa.c ****         return;
 489:../../tmk_core/protocol/lufa/lufa.c **** 
 490:../../tmk_core/protocol/lufa/lufa.c ****     report_extra_t r = {
 491:../../tmk_core/protocol/lufa/lufa.c ****         .report_id = REPORT_ID_SYSTEM,
 492:../../tmk_core/protocol/lufa/lufa.c ****         .usage = data
 493:../../tmk_core/protocol/lufa/lufa.c ****     };
 494:../../tmk_core/protocol/lufa/lufa.c ****     Endpoint_SelectEndpoint(EXTRAKEY_IN_EPNUM);
 495:../../tmk_core/protocol/lufa/lufa.c **** 
 496:../../tmk_core/protocol/lufa/lufa.c ****     /* Check if write ready for a polling interval around 10ms */
 497:../../tmk_core/protocol/lufa/lufa.c ****     while (timeout-- && !Endpoint_IsReadWriteAllowed()) _delay_us(40);
 498:../../tmk_core/protocol/lufa/lufa.c ****     if (!Endpoint_IsReadWriteAllowed()) return;
 499:../../tmk_core/protocol/lufa/lufa.c **** 
 500:../../tmk_core/protocol/lufa/lufa.c ****     Endpoint_Write_Stream_LE(&r, sizeof(report_extra_t), NULL);
 501:../../tmk_core/protocol/lufa/lufa.c ****     Endpoint_ClearIN();
 502:../../tmk_core/protocol/lufa/lufa.c **** }
 503:../../tmk_core/protocol/lufa/lufa.c **** 
 504:../../tmk_core/protocol/lufa/lufa.c **** static void send_consumer(uint16_t data)
 505:../../tmk_core/protocol/lufa/lufa.c **** {
 506:../../tmk_core/protocol/lufa/lufa.c ****     uint8_t timeout = 255;
 507:../../tmk_core/protocol/lufa/lufa.c **** 
 508:../../tmk_core/protocol/lufa/lufa.c ****     if (USB_DeviceState != DEVICE_STATE_Configured)
 509:../../tmk_core/protocol/lufa/lufa.c ****         return;
 510:../../tmk_core/protocol/lufa/lufa.c **** 
 511:../../tmk_core/protocol/lufa/lufa.c ****     report_extra_t r = {
 512:../../tmk_core/protocol/lufa/lufa.c ****         .report_id = REPORT_ID_CONSUMER,
 513:../../tmk_core/protocol/lufa/lufa.c ****         .usage = data
 514:../../tmk_core/protocol/lufa/lufa.c ****     };
 515:../../tmk_core/protocol/lufa/lufa.c ****     Endpoint_SelectEndpoint(EXTRAKEY_IN_EPNUM);
 516:../../tmk_core/protocol/lufa/lufa.c **** 
 517:../../tmk_core/protocol/lufa/lufa.c ****     /* Check if write ready for a polling interval around 10ms */
 518:../../tmk_core/protocol/lufa/lufa.c ****     while (timeout-- && !Endpoint_IsReadWriteAllowed()) _delay_us(40);
 519:../../tmk_core/protocol/lufa/lufa.c ****     if (!Endpoint_IsReadWriteAllowed()) return;
 520:../../tmk_core/protocol/lufa/lufa.c **** 
 521:../../tmk_core/protocol/lufa/lufa.c ****     Endpoint_Write_Stream_LE(&r, sizeof(report_extra_t), NULL);
 522:../../tmk_core/protocol/lufa/lufa.c ****     Endpoint_ClearIN();
 523:../../tmk_core/protocol/lufa/lufa.c **** }
 524:../../tmk_core/protocol/lufa/lufa.c **** 
 525:../../tmk_core/protocol/lufa/lufa.c **** 
 526:../../tmk_core/protocol/lufa/lufa.c **** /*******************************************************************************
 527:../../tmk_core/protocol/lufa/lufa.c ****  * sendchar
 528:../../tmk_core/protocol/lufa/lufa.c ****  ******************************************************************************/
 529:../../tmk_core/protocol/lufa/lufa.c **** #ifdef CONSOLE_ENABLE
 530:../../tmk_core/protocol/lufa/lufa.c **** #define SEND_TIMEOUT 5
 531:../../tmk_core/protocol/lufa/lufa.c **** int8_t sendchar(uint8_t c)
 532:../../tmk_core/protocol/lufa/lufa.c **** {
  32               		.loc 1 532 0
  33               		.cfi_startproc
  34               	.LVL0:
  35               	/* prologue: function */
  36               	/* frame size = 0 */
  37               	/* stack size = 0 */
  38               	.L__stack_usage = 0
  39               	.LBB173:
 533:../../tmk_core/protocol/lufa/lufa.c **** #ifdef LUFA_DEBUG_SUART
 534:../../tmk_core/protocol/lufa/lufa.c ****     xmit(c);
 535:../../tmk_core/protocol/lufa/lufa.c **** #endif
 536:../../tmk_core/protocol/lufa/lufa.c ****     // Not wait once timeouted.
 537:../../tmk_core/protocol/lufa/lufa.c ****     // Because sendchar() is called so many times, waiting each call causes big lag.
 538:../../tmk_core/protocol/lufa/lufa.c ****     static bool timeouted = false;
 539:../../tmk_core/protocol/lufa/lufa.c **** 
 540:../../tmk_core/protocol/lufa/lufa.c ****     // prevents Console_Task() from running during sendchar() runs.
 541:../../tmk_core/protocol/lufa/lufa.c ****     // or char will be lost. These two function is mutually exclusive.
 542:../../tmk_core/protocol/lufa/lufa.c ****     CONSOLE_FLUSH_SET(false);
  40               		.loc 1 542 0
  41 0000 9FB7      		in r25,__SREG__
  42               	.LVL1:
  43               	/* #APP */
  44               	 ;  542 "../../tmk_core/protocol/lufa/lufa.c" 1
  45 0002 F894      		cli
  46               	 ;  0 "" 2
  47               	/* #NOAPP */
  48 0004 1092 0000 		sts console_flush,__zero_reg__
  49 0008 9FBF      		out __SREG__,r25
  50               	.LBE173:
 543:../../tmk_core/protocol/lufa/lufa.c **** 
 544:../../tmk_core/protocol/lufa/lufa.c ****     if (USB_DeviceState != DEVICE_STATE_Configured)
  51               		.loc 1 544 0
  52 000a 9091 0000 		lds r25,USB_DeviceState
  53               	.LVL2:
  54 000e 9430      		cpi r25,lo8(4)
  55 0010 01F0      		breq .+2
  56 0012 00C0      		rjmp .L15
  57               	.LBB174:
  58               	.LBB175:
  59               		.file 2 "../../tmk_core/protocol/lufa/LUFA-git/LUFA/Drivers/USB/Core/AVR8/../AVR8/Endpoint_AVR8.h"
   1:../../tmk_core/protocol/lufa/LUFA-git/LUFA/Drivers/USB/Core/AVR8/../AVR8/Endpoint_AVR8.h **** /*
   2:../../tmk_core/protocol/lufa/LUFA-git/LUFA/Drivers/USB/Core/AVR8/../AVR8/Endpoint_AVR8.h ****              LUFA Library
   3:../../tmk_core/protocol/lufa/LUFA-git/LUFA/Drivers/USB/Core/AVR8/../AVR8/Endpoint_AVR8.h ****      Copyright (C) Dean Camera, 2014.
   4:../../tmk_core/protocol/lufa/LUFA-git/LUFA/Drivers/USB/Core/AVR8/../AVR8/Endpoint_AVR8.h **** 
   5:../../tmk_core/protocol/lufa/LUFA-git/LUFA/Drivers/USB/Core/AVR8/../AVR8/Endpoint_AVR8.h ****   dean [at] fourwalledcubicle [dot] com
   6:../../tmk_core/protocol/lufa/LUFA-git/LUFA/Drivers/USB/Core/AVR8/../AVR8/Endpoint_AVR8.h ****            www.lufa-lib.org
   7:../../tmk_core/protocol/lufa/LUFA-git/LUFA/Drivers/USB/Core/AVR8/../AVR8/Endpoint_AVR8.h **** */
   8:../../tmk_core/protocol/lufa/LUFA-git/LUFA/Drivers/USB/Core/AVR8/../AVR8/Endpoint_AVR8.h **** 
   9:../../tmk_core/protocol/lufa/LUFA-git/LUFA/Drivers/USB/Core/AVR8/../AVR8/Endpoint_AVR8.h **** /*
  10:../../tmk_core/protocol/lufa/LUFA-git/LUFA/Drivers/USB/Core/AVR8/../AVR8/Endpoint_AVR8.h ****   Copyright 2014  Dean Camera (dean [at] fourwalledcubicle [dot] com)
  11:../../tmk_core/protocol/lufa/LUFA-git/LUFA/Drivers/USB/Core/AVR8/../AVR8/Endpoint_AVR8.h **** 
  12:../../tmk_core/protocol/lufa/LUFA-git/LUFA/Drivers/USB/Core/AVR8/../AVR8/Endpoint_AVR8.h ****   Permission to use, copy, modify, distribute, and sell this
  13:../../tmk_core/protocol/lufa/LUFA-git/LUFA/Drivers/USB/Core/AVR8/../AVR8/Endpoint_AVR8.h ****   software and its documentation for any purpose is hereby granted
  14:../../tmk_core/protocol/lufa/LUFA-git/LUFA/Drivers/USB/Core/AVR8/../AVR8/Endpoint_AVR8.h ****   without fee, provided that the above copyright notice appear in
  15:../../tmk_core/protocol/lufa/LUFA-git/LUFA/Drivers/USB/Core/AVR8/../AVR8/Endpoint_AVR8.h ****   all copies and that both that the copyright notice and this
  16:../../tmk_core/protocol/lufa/LUFA-git/LUFA/Drivers/USB/Core/AVR8/../AVR8/Endpoint_AVR8.h ****   permission notice and warranty disclaimer appear in supporting
  17:../../tmk_core/protocol/lufa/LUFA-git/LUFA/Drivers/USB/Core/AVR8/../AVR8/Endpoint_AVR8.h ****   documentation, and that the name of the author not be used in
  18:../../tmk_core/protocol/lufa/LUFA-git/LUFA/Drivers/USB/Core/AVR8/../AVR8/Endpoint_AVR8.h ****   advertising or publicity pertaining to distribution of the
  19:../../tmk_core/protocol/lufa/LUFA-git/LUFA/Drivers/USB/Core/AVR8/../AVR8/Endpoint_AVR8.h ****   software without specific, written prior permission.
  20:../../tmk_core/protocol/lufa/LUFA-git/LUFA/Drivers/USB/Core/AVR8/../AVR8/Endpoint_AVR8.h **** 
  21:../../tmk_core/protocol/lufa/LUFA-git/LUFA/Drivers/USB/Core/AVR8/../AVR8/Endpoint_AVR8.h ****   The author disclaims all warranties with regard to this
  22:../../tmk_core/protocol/lufa/LUFA-git/LUFA/Drivers/USB/Core/AVR8/../AVR8/Endpoint_AVR8.h ****   software, including all implied warranties of merchantability
  23:../../tmk_core/protocol/lufa/LUFA-git/LUFA/Drivers/USB/Core/AVR8/../AVR8/Endpoint_AVR8.h ****   and fitness.  In no event shall the author be liable for any
  24:../../tmk_core/protocol/lufa/LUFA-git/LUFA/Drivers/USB/Core/AVR8/../AVR8/Endpoint_AVR8.h ****   special, indirect or consequential damages or any damages
  25:../../tmk_core/protocol/lufa/LUFA-git/LUFA/Drivers/USB/Core/AVR8/../AVR8/Endpoint_AVR8.h ****   whatsoever resulting from loss of use, data or profits, whether
  26:../../tmk_core/protocol/lufa/LUFA-git/LUFA/Drivers/USB/Core/AVR8/../AVR8/Endpoint_AVR8.h ****   in an action of contract, negligence or other tortious action,
  27:../../tmk_core/protocol/lufa/LUFA-git/LUFA/Drivers/USB/Core/AVR8/../AVR8/Endpoint_AVR8.h ****   arising out of or in connection with the use or performance of
  28:../../tmk_core/protocol/lufa/LUFA-git/LUFA/Drivers/USB/Core/AVR8/../AVR8/Endpoint_AVR8.h ****   this software.
  29:../../tmk_core/protocol/lufa/LUFA-git/LUFA/Drivers/USB/Core/AVR8/../AVR8/Endpoint_AVR8.h **** */
  30:../../tmk_core/protocol/lufa/LUFA-git/LUFA/Drivers/USB/Core/AVR8/../AVR8/Endpoint_AVR8.h **** 
  31:../../tmk_core/protocol/lufa/LUFA-git/LUFA/Drivers/USB/Core/AVR8/../AVR8/Endpoint_AVR8.h **** /** \file
  32:../../tmk_core/protocol/lufa/LUFA-git/LUFA/Drivers/USB/Core/AVR8/../AVR8/Endpoint_AVR8.h ****  *  \brief USB Endpoint definitions for the AVR8 microcontrollers.
  33:../../tmk_core/protocol/lufa/LUFA-git/LUFA/Drivers/USB/Core/AVR8/../AVR8/Endpoint_AVR8.h ****  *  \copydetails Group_EndpointManagement_AVR8
  34:../../tmk_core/protocol/lufa/LUFA-git/LUFA/Drivers/USB/Core/AVR8/../AVR8/Endpoint_AVR8.h ****  *
  35:../../tmk_core/protocol/lufa/LUFA-git/LUFA/Drivers/USB/Core/AVR8/../AVR8/Endpoint_AVR8.h ****  *  \note This file should not be included directly. It is automatically included as needed by the 
  36:../../tmk_core/protocol/lufa/LUFA-git/LUFA/Drivers/USB/Core/AVR8/../AVR8/Endpoint_AVR8.h ****  *        dispatch header located in LUFA/Drivers/USB/USB.h.
  37:../../tmk_core/protocol/lufa/LUFA-git/LUFA/Drivers/USB/Core/AVR8/../AVR8/Endpoint_AVR8.h ****  */
  38:../../tmk_core/protocol/lufa/LUFA-git/LUFA/Drivers/USB/Core/AVR8/../AVR8/Endpoint_AVR8.h **** 
  39:../../tmk_core/protocol/lufa/LUFA-git/LUFA/Drivers/USB/Core/AVR8/../AVR8/Endpoint_AVR8.h **** /** \ingroup Group_EndpointRW
  40:../../tmk_core/protocol/lufa/LUFA-git/LUFA/Drivers/USB/Core/AVR8/../AVR8/Endpoint_AVR8.h ****  *  \defgroup Group_EndpointRW_AVR8 Endpoint Data Reading and Writing (AVR8)
  41:../../tmk_core/protocol/lufa/LUFA-git/LUFA/Drivers/USB/Core/AVR8/../AVR8/Endpoint_AVR8.h ****  *  \brief Endpoint data read/write definitions for the Atmel AVR8 architecture.
  42:../../tmk_core/protocol/lufa/LUFA-git/LUFA/Drivers/USB/Core/AVR8/../AVR8/Endpoint_AVR8.h ****  *
  43:../../tmk_core/protocol/lufa/LUFA-git/LUFA/Drivers/USB/Core/AVR8/../AVR8/Endpoint_AVR8.h ****  *  Functions, macros, variables, enums and types related to data reading and writing from and to e
  44:../../tmk_core/protocol/lufa/LUFA-git/LUFA/Drivers/USB/Core/AVR8/../AVR8/Endpoint_AVR8.h ****  */
  45:../../tmk_core/protocol/lufa/LUFA-git/LUFA/Drivers/USB/Core/AVR8/../AVR8/Endpoint_AVR8.h **** 
  46:../../tmk_core/protocol/lufa/LUFA-git/LUFA/Drivers/USB/Core/AVR8/../AVR8/Endpoint_AVR8.h **** /** \ingroup Group_EndpointPrimitiveRW
  47:../../tmk_core/protocol/lufa/LUFA-git/LUFA/Drivers/USB/Core/AVR8/../AVR8/Endpoint_AVR8.h ****  *  \defgroup Group_EndpointPrimitiveRW_AVR8 Read/Write of Primitive Data Types (AVR8)
  48:../../tmk_core/protocol/lufa/LUFA-git/LUFA/Drivers/USB/Core/AVR8/../AVR8/Endpoint_AVR8.h ****  *  \brief Endpoint primitive read/write definitions for the Atmel AVR8 architecture.
  49:../../tmk_core/protocol/lufa/LUFA-git/LUFA/Drivers/USB/Core/AVR8/../AVR8/Endpoint_AVR8.h ****  *
  50:../../tmk_core/protocol/lufa/LUFA-git/LUFA/Drivers/USB/Core/AVR8/../AVR8/Endpoint_AVR8.h ****  *  Functions, macros, variables, enums and types related to data reading and writing of primitive 
  51:../../tmk_core/protocol/lufa/LUFA-git/LUFA/Drivers/USB/Core/AVR8/../AVR8/Endpoint_AVR8.h ****  *  from and to endpoints.
  52:../../tmk_core/protocol/lufa/LUFA-git/LUFA/Drivers/USB/Core/AVR8/../AVR8/Endpoint_AVR8.h ****  */
  53:../../tmk_core/protocol/lufa/LUFA-git/LUFA/Drivers/USB/Core/AVR8/../AVR8/Endpoint_AVR8.h **** 
  54:../../tmk_core/protocol/lufa/LUFA-git/LUFA/Drivers/USB/Core/AVR8/../AVR8/Endpoint_AVR8.h **** /** \ingroup Group_EndpointPacketManagement
  55:../../tmk_core/protocol/lufa/LUFA-git/LUFA/Drivers/USB/Core/AVR8/../AVR8/Endpoint_AVR8.h ****  *  \defgroup Group_EndpointPacketManagement_AVR8 Endpoint Packet Management (AVR8)
  56:../../tmk_core/protocol/lufa/LUFA-git/LUFA/Drivers/USB/Core/AVR8/../AVR8/Endpoint_AVR8.h ****  *  \brief Endpoint packet management definitions for the Atmel AVR8 architecture.
  57:../../tmk_core/protocol/lufa/LUFA-git/LUFA/Drivers/USB/Core/AVR8/../AVR8/Endpoint_AVR8.h ****  *
  58:../../tmk_core/protocol/lufa/LUFA-git/LUFA/Drivers/USB/Core/AVR8/../AVR8/Endpoint_AVR8.h ****  *  Functions, macros, variables, enums and types related to packet management of endpoints.
  59:../../tmk_core/protocol/lufa/LUFA-git/LUFA/Drivers/USB/Core/AVR8/../AVR8/Endpoint_AVR8.h ****  */
  60:../../tmk_core/protocol/lufa/LUFA-git/LUFA/Drivers/USB/Core/AVR8/../AVR8/Endpoint_AVR8.h **** 
  61:../../tmk_core/protocol/lufa/LUFA-git/LUFA/Drivers/USB/Core/AVR8/../AVR8/Endpoint_AVR8.h **** /** \ingroup Group_EndpointManagement
  62:../../tmk_core/protocol/lufa/LUFA-git/LUFA/Drivers/USB/Core/AVR8/../AVR8/Endpoint_AVR8.h ****  *  \defgroup Group_EndpointManagement_AVR8 Endpoint Management (AVR8)
  63:../../tmk_core/protocol/lufa/LUFA-git/LUFA/Drivers/USB/Core/AVR8/../AVR8/Endpoint_AVR8.h ****  *  \brief Endpoint management definitions for the Atmel AVR8 architecture.
  64:../../tmk_core/protocol/lufa/LUFA-git/LUFA/Drivers/USB/Core/AVR8/../AVR8/Endpoint_AVR8.h ****  *
  65:../../tmk_core/protocol/lufa/LUFA-git/LUFA/Drivers/USB/Core/AVR8/../AVR8/Endpoint_AVR8.h ****  *  Functions, macros and enums related to endpoint management when in USB Device mode. This
  66:../../tmk_core/protocol/lufa/LUFA-git/LUFA/Drivers/USB/Core/AVR8/../AVR8/Endpoint_AVR8.h ****  *  module contains the endpoint management macros, as well as endpoint interrupt and data
  67:../../tmk_core/protocol/lufa/LUFA-git/LUFA/Drivers/USB/Core/AVR8/../AVR8/Endpoint_AVR8.h ****  *  send/receive functions for various data types.
  68:../../tmk_core/protocol/lufa/LUFA-git/LUFA/Drivers/USB/Core/AVR8/../AVR8/Endpoint_AVR8.h ****  *
  69:../../tmk_core/protocol/lufa/LUFA-git/LUFA/Drivers/USB/Core/AVR8/../AVR8/Endpoint_AVR8.h ****  *  @{
  70:../../tmk_core/protocol/lufa/LUFA-git/LUFA/Drivers/USB/Core/AVR8/../AVR8/Endpoint_AVR8.h ****  */
  71:../../tmk_core/protocol/lufa/LUFA-git/LUFA/Drivers/USB/Core/AVR8/../AVR8/Endpoint_AVR8.h **** 
  72:../../tmk_core/protocol/lufa/LUFA-git/LUFA/Drivers/USB/Core/AVR8/../AVR8/Endpoint_AVR8.h **** #ifndef __ENDPOINT_AVR8_H__
  73:../../tmk_core/protocol/lufa/LUFA-git/LUFA/Drivers/USB/Core/AVR8/../AVR8/Endpoint_AVR8.h **** #define __ENDPOINT_AVR8_H__
  74:../../tmk_core/protocol/lufa/LUFA-git/LUFA/Drivers/USB/Core/AVR8/../AVR8/Endpoint_AVR8.h **** 
  75:../../tmk_core/protocol/lufa/LUFA-git/LUFA/Drivers/USB/Core/AVR8/../AVR8/Endpoint_AVR8.h **** 	/* Includes: */
  76:../../tmk_core/protocol/lufa/LUFA-git/LUFA/Drivers/USB/Core/AVR8/../AVR8/Endpoint_AVR8.h **** 		#include "../../../../Common/Common.h"
  77:../../tmk_core/protocol/lufa/LUFA-git/LUFA/Drivers/USB/Core/AVR8/../AVR8/Endpoint_AVR8.h **** 		#include "../USBTask.h"
  78:../../tmk_core/protocol/lufa/LUFA-git/LUFA/Drivers/USB/Core/AVR8/../AVR8/Endpoint_AVR8.h **** 		#include "../USBInterrupt.h"
  79:../../tmk_core/protocol/lufa/LUFA-git/LUFA/Drivers/USB/Core/AVR8/../AVR8/Endpoint_AVR8.h **** 
  80:../../tmk_core/protocol/lufa/LUFA-git/LUFA/Drivers/USB/Core/AVR8/../AVR8/Endpoint_AVR8.h **** 	/* Enable C linkage for C++ Compilers: */
  81:../../tmk_core/protocol/lufa/LUFA-git/LUFA/Drivers/USB/Core/AVR8/../AVR8/Endpoint_AVR8.h **** 		#if defined(__cplusplus)
  82:../../tmk_core/protocol/lufa/LUFA-git/LUFA/Drivers/USB/Core/AVR8/../AVR8/Endpoint_AVR8.h **** 			extern "C" {
  83:../../tmk_core/protocol/lufa/LUFA-git/LUFA/Drivers/USB/Core/AVR8/../AVR8/Endpoint_AVR8.h **** 		#endif
  84:../../tmk_core/protocol/lufa/LUFA-git/LUFA/Drivers/USB/Core/AVR8/../AVR8/Endpoint_AVR8.h **** 
  85:../../tmk_core/protocol/lufa/LUFA-git/LUFA/Drivers/USB/Core/AVR8/../AVR8/Endpoint_AVR8.h **** 	/* Preprocessor Checks: */
  86:../../tmk_core/protocol/lufa/LUFA-git/LUFA/Drivers/USB/Core/AVR8/../AVR8/Endpoint_AVR8.h **** 		#if !defined(__INCLUDE_FROM_USB_DRIVER)
  87:../../tmk_core/protocol/lufa/LUFA-git/LUFA/Drivers/USB/Core/AVR8/../AVR8/Endpoint_AVR8.h **** 			#error Do not include this file directly. Include LUFA/Drivers/USB/USB.h instead.
  88:../../tmk_core/protocol/lufa/LUFA-git/LUFA/Drivers/USB/Core/AVR8/../AVR8/Endpoint_AVR8.h **** 		#endif
  89:../../tmk_core/protocol/lufa/LUFA-git/LUFA/Drivers/USB/Core/AVR8/../AVR8/Endpoint_AVR8.h **** 
  90:../../tmk_core/protocol/lufa/LUFA-git/LUFA/Drivers/USB/Core/AVR8/../AVR8/Endpoint_AVR8.h **** 	/* Private Interface - For use in library only: */
  91:../../tmk_core/protocol/lufa/LUFA-git/LUFA/Drivers/USB/Core/AVR8/../AVR8/Endpoint_AVR8.h **** 	#if !defined(__DOXYGEN__)
  92:../../tmk_core/protocol/lufa/LUFA-git/LUFA/Drivers/USB/Core/AVR8/../AVR8/Endpoint_AVR8.h **** 		/* Inline Functions: */
  93:../../tmk_core/protocol/lufa/LUFA-git/LUFA/Drivers/USB/Core/AVR8/../AVR8/Endpoint_AVR8.h **** 			static inline uint8_t Endpoint_BytesToEPSizeMask(const uint16_t Bytes) ATTR_WARN_UNUSED_RESULT A
  94:../../tmk_core/protocol/lufa/LUFA-git/LUFA/Drivers/USB/Core/AVR8/../AVR8/Endpoint_AVR8.h **** 			                                                                       ATTR_ALWAYS_INLINE;
  95:../../tmk_core/protocol/lufa/LUFA-git/LUFA/Drivers/USB/Core/AVR8/../AVR8/Endpoint_AVR8.h **** 			static inline uint8_t Endpoint_BytesToEPSizeMask(const uint16_t Bytes)
  96:../../tmk_core/protocol/lufa/LUFA-git/LUFA/Drivers/USB/Core/AVR8/../AVR8/Endpoint_AVR8.h **** 			{
  97:../../tmk_core/protocol/lufa/LUFA-git/LUFA/Drivers/USB/Core/AVR8/../AVR8/Endpoint_AVR8.h **** 				uint8_t  MaskVal    = 0;
  98:../../tmk_core/protocol/lufa/LUFA-git/LUFA/Drivers/USB/Core/AVR8/../AVR8/Endpoint_AVR8.h **** 				uint16_t CheckBytes = 8;
  99:../../tmk_core/protocol/lufa/LUFA-git/LUFA/Drivers/USB/Core/AVR8/../AVR8/Endpoint_AVR8.h **** 
 100:../../tmk_core/protocol/lufa/LUFA-git/LUFA/Drivers/USB/Core/AVR8/../AVR8/Endpoint_AVR8.h **** 				while (CheckBytes < Bytes)
 101:../../tmk_core/protocol/lufa/LUFA-git/LUFA/Drivers/USB/Core/AVR8/../AVR8/Endpoint_AVR8.h **** 				{
 102:../../tmk_core/protocol/lufa/LUFA-git/LUFA/Drivers/USB/Core/AVR8/../AVR8/Endpoint_AVR8.h **** 					MaskVal++;
 103:../../tmk_core/protocol/lufa/LUFA-git/LUFA/Drivers/USB/Core/AVR8/../AVR8/Endpoint_AVR8.h **** 					CheckBytes <<= 1;
 104:../../tmk_core/protocol/lufa/LUFA-git/LUFA/Drivers/USB/Core/AVR8/../AVR8/Endpoint_AVR8.h **** 				}
 105:../../tmk_core/protocol/lufa/LUFA-git/LUFA/Drivers/USB/Core/AVR8/../AVR8/Endpoint_AVR8.h **** 
 106:../../tmk_core/protocol/lufa/LUFA-git/LUFA/Drivers/USB/Core/AVR8/../AVR8/Endpoint_AVR8.h **** 				return (MaskVal << EPSIZE0);
 107:../../tmk_core/protocol/lufa/LUFA-git/LUFA/Drivers/USB/Core/AVR8/../AVR8/Endpoint_AVR8.h **** 			}
 108:../../tmk_core/protocol/lufa/LUFA-git/LUFA/Drivers/USB/Core/AVR8/../AVR8/Endpoint_AVR8.h **** 
 109:../../tmk_core/protocol/lufa/LUFA-git/LUFA/Drivers/USB/Core/AVR8/../AVR8/Endpoint_AVR8.h **** 		/* Function Prototypes: */
 110:../../tmk_core/protocol/lufa/LUFA-git/LUFA/Drivers/USB/Core/AVR8/../AVR8/Endpoint_AVR8.h **** 			void Endpoint_ClearEndpoints(void);
 111:../../tmk_core/protocol/lufa/LUFA-git/LUFA/Drivers/USB/Core/AVR8/../AVR8/Endpoint_AVR8.h **** 			bool Endpoint_ConfigureEndpoint_Prv(const uint8_t Number,
 112:../../tmk_core/protocol/lufa/LUFA-git/LUFA/Drivers/USB/Core/AVR8/../AVR8/Endpoint_AVR8.h **** 			                                    const uint8_t UECFG0XData,
 113:../../tmk_core/protocol/lufa/LUFA-git/LUFA/Drivers/USB/Core/AVR8/../AVR8/Endpoint_AVR8.h **** 			                                    const uint8_t UECFG1XData);
 114:../../tmk_core/protocol/lufa/LUFA-git/LUFA/Drivers/USB/Core/AVR8/../AVR8/Endpoint_AVR8.h **** 
 115:../../tmk_core/protocol/lufa/LUFA-git/LUFA/Drivers/USB/Core/AVR8/../AVR8/Endpoint_AVR8.h **** 	#endif
 116:../../tmk_core/protocol/lufa/LUFA-git/LUFA/Drivers/USB/Core/AVR8/../AVR8/Endpoint_AVR8.h **** 
 117:../../tmk_core/protocol/lufa/LUFA-git/LUFA/Drivers/USB/Core/AVR8/../AVR8/Endpoint_AVR8.h **** 	/* Public Interface - May be used in end-application: */
 118:../../tmk_core/protocol/lufa/LUFA-git/LUFA/Drivers/USB/Core/AVR8/../AVR8/Endpoint_AVR8.h **** 		/* Macros: */
 119:../../tmk_core/protocol/lufa/LUFA-git/LUFA/Drivers/USB/Core/AVR8/../AVR8/Endpoint_AVR8.h **** 			#if (!defined(FIXED_CONTROL_ENDPOINT_SIZE) || defined(__DOXYGEN__))
 120:../../tmk_core/protocol/lufa/LUFA-git/LUFA/Drivers/USB/Core/AVR8/../AVR8/Endpoint_AVR8.h **** 				/** Default size of the default control endpoint's bank, until altered by the control endpoint 
 121:../../tmk_core/protocol/lufa/LUFA-git/LUFA/Drivers/USB/Core/AVR8/../AVR8/Endpoint_AVR8.h **** 				 *  value in the device descriptor. Not available if the \c FIXED_CONTROL_ENDPOINT_SIZE token i
 122:../../tmk_core/protocol/lufa/LUFA-git/LUFA/Drivers/USB/Core/AVR8/../AVR8/Endpoint_AVR8.h **** 				 */
 123:../../tmk_core/protocol/lufa/LUFA-git/LUFA/Drivers/USB/Core/AVR8/../AVR8/Endpoint_AVR8.h **** 				#define ENDPOINT_CONTROLEP_DEFAULT_SIZE     8
 124:../../tmk_core/protocol/lufa/LUFA-git/LUFA/Drivers/USB/Core/AVR8/../AVR8/Endpoint_AVR8.h **** 			#endif
 125:../../tmk_core/protocol/lufa/LUFA-git/LUFA/Drivers/USB/Core/AVR8/../AVR8/Endpoint_AVR8.h **** 
 126:../../tmk_core/protocol/lufa/LUFA-git/LUFA/Drivers/USB/Core/AVR8/../AVR8/Endpoint_AVR8.h **** 			#if !defined(CONTROL_ONLY_DEVICE) || defined(__DOXYGEN__)
 127:../../tmk_core/protocol/lufa/LUFA-git/LUFA/Drivers/USB/Core/AVR8/../AVR8/Endpoint_AVR8.h **** 				#if defined(USB_SERIES_4_AVR) || defined(USB_SERIES_6_AVR) || defined(USB_SERIES_7_AVR) || defi
 128:../../tmk_core/protocol/lufa/LUFA-git/LUFA/Drivers/USB/Core/AVR8/../AVR8/Endpoint_AVR8.h **** 					/** Total number of endpoints (including the default control endpoint at address 0) which may
 129:../../tmk_core/protocol/lufa/LUFA-git/LUFA/Drivers/USB/Core/AVR8/../AVR8/Endpoint_AVR8.h **** 					 *  be used in the device. Different USB AVR models support different amounts of endpoints,
 130:../../tmk_core/protocol/lufa/LUFA-git/LUFA/Drivers/USB/Core/AVR8/../AVR8/Endpoint_AVR8.h **** 					 *  this value reflects the maximum number of endpoints for the currently selected AVR model.
 131:../../tmk_core/protocol/lufa/LUFA-git/LUFA/Drivers/USB/Core/AVR8/../AVR8/Endpoint_AVR8.h **** 					 */
 132:../../tmk_core/protocol/lufa/LUFA-git/LUFA/Drivers/USB/Core/AVR8/../AVR8/Endpoint_AVR8.h **** 					#define ENDPOINT_TOTAL_ENDPOINTS        7
 133:../../tmk_core/protocol/lufa/LUFA-git/LUFA/Drivers/USB/Core/AVR8/../AVR8/Endpoint_AVR8.h **** 				#else
 134:../../tmk_core/protocol/lufa/LUFA-git/LUFA/Drivers/USB/Core/AVR8/../AVR8/Endpoint_AVR8.h **** 					#define ENDPOINT_TOTAL_ENDPOINTS        5
 135:../../tmk_core/protocol/lufa/LUFA-git/LUFA/Drivers/USB/Core/AVR8/../AVR8/Endpoint_AVR8.h **** 				#endif
 136:../../tmk_core/protocol/lufa/LUFA-git/LUFA/Drivers/USB/Core/AVR8/../AVR8/Endpoint_AVR8.h **** 			#else
 137:../../tmk_core/protocol/lufa/LUFA-git/LUFA/Drivers/USB/Core/AVR8/../AVR8/Endpoint_AVR8.h **** 				#define ENDPOINT_TOTAL_ENDPOINTS            1
 138:../../tmk_core/protocol/lufa/LUFA-git/LUFA/Drivers/USB/Core/AVR8/../AVR8/Endpoint_AVR8.h **** 			#endif
 139:../../tmk_core/protocol/lufa/LUFA-git/LUFA/Drivers/USB/Core/AVR8/../AVR8/Endpoint_AVR8.h **** 
 140:../../tmk_core/protocol/lufa/LUFA-git/LUFA/Drivers/USB/Core/AVR8/../AVR8/Endpoint_AVR8.h **** 		/* Enums: */
 141:../../tmk_core/protocol/lufa/LUFA-git/LUFA/Drivers/USB/Core/AVR8/../AVR8/Endpoint_AVR8.h **** 			/** Enum for the possible error return codes of the \ref Endpoint_WaitUntilReady() function.
 142:../../tmk_core/protocol/lufa/LUFA-git/LUFA/Drivers/USB/Core/AVR8/../AVR8/Endpoint_AVR8.h **** 			 *
 143:../../tmk_core/protocol/lufa/LUFA-git/LUFA/Drivers/USB/Core/AVR8/../AVR8/Endpoint_AVR8.h **** 			 *  \ingroup Group_EndpointRW_AVR8
 144:../../tmk_core/protocol/lufa/LUFA-git/LUFA/Drivers/USB/Core/AVR8/../AVR8/Endpoint_AVR8.h **** 			 */
 145:../../tmk_core/protocol/lufa/LUFA-git/LUFA/Drivers/USB/Core/AVR8/../AVR8/Endpoint_AVR8.h **** 			enum Endpoint_WaitUntilReady_ErrorCodes_t
 146:../../tmk_core/protocol/lufa/LUFA-git/LUFA/Drivers/USB/Core/AVR8/../AVR8/Endpoint_AVR8.h **** 			{
 147:../../tmk_core/protocol/lufa/LUFA-git/LUFA/Drivers/USB/Core/AVR8/../AVR8/Endpoint_AVR8.h **** 				ENDPOINT_READYWAIT_NoError                 = 0, /**< Endpoint is ready for next packet, no erro
 148:../../tmk_core/protocol/lufa/LUFA-git/LUFA/Drivers/USB/Core/AVR8/../AVR8/Endpoint_AVR8.h **** 				ENDPOINT_READYWAIT_EndpointStalled         = 1, /**< The endpoint was stalled during the stream
 149:../../tmk_core/protocol/lufa/LUFA-git/LUFA/Drivers/USB/Core/AVR8/../AVR8/Endpoint_AVR8.h **** 				                                                 *   transfer by the host or device.
 150:../../tmk_core/protocol/lufa/LUFA-git/LUFA/Drivers/USB/Core/AVR8/../AVR8/Endpoint_AVR8.h **** 				                                                 */
 151:../../tmk_core/protocol/lufa/LUFA-git/LUFA/Drivers/USB/Core/AVR8/../AVR8/Endpoint_AVR8.h **** 				ENDPOINT_READYWAIT_DeviceDisconnected      = 2,	/**< Device was disconnected from the host whil
 152:../../tmk_core/protocol/lufa/LUFA-git/LUFA/Drivers/USB/Core/AVR8/../AVR8/Endpoint_AVR8.h **** 				                                                 *   waiting for the endpoint to become ready.
 153:../../tmk_core/protocol/lufa/LUFA-git/LUFA/Drivers/USB/Core/AVR8/../AVR8/Endpoint_AVR8.h **** 				                                                 */
 154:../../tmk_core/protocol/lufa/LUFA-git/LUFA/Drivers/USB/Core/AVR8/../AVR8/Endpoint_AVR8.h **** 				ENDPOINT_READYWAIT_BusSuspended            = 3, /**< The USB bus has been suspended by the host
 155:../../tmk_core/protocol/lufa/LUFA-git/LUFA/Drivers/USB/Core/AVR8/../AVR8/Endpoint_AVR8.h **** 				                                                 *   no USB endpoint traffic can occur until th
 156:../../tmk_core/protocol/lufa/LUFA-git/LUFA/Drivers/USB/Core/AVR8/../AVR8/Endpoint_AVR8.h **** 				                                                 *   has resumed.
 157:../../tmk_core/protocol/lufa/LUFA-git/LUFA/Drivers/USB/Core/AVR8/../AVR8/Endpoint_AVR8.h **** 				                                                 */
 158:../../tmk_core/protocol/lufa/LUFA-git/LUFA/Drivers/USB/Core/AVR8/../AVR8/Endpoint_AVR8.h **** 				ENDPOINT_READYWAIT_Timeout                 = 4, /**< The host failed to accept or send the next
 159:../../tmk_core/protocol/lufa/LUFA-git/LUFA/Drivers/USB/Core/AVR8/../AVR8/Endpoint_AVR8.h **** 				                                                 *   within the software timeout period set by 
 160:../../tmk_core/protocol/lufa/LUFA-git/LUFA/Drivers/USB/Core/AVR8/../AVR8/Endpoint_AVR8.h **** 				                                                 *   \ref USB_STREAM_TIMEOUT_MS macro.
 161:../../tmk_core/protocol/lufa/LUFA-git/LUFA/Drivers/USB/Core/AVR8/../AVR8/Endpoint_AVR8.h **** 				                                                 */
 162:../../tmk_core/protocol/lufa/LUFA-git/LUFA/Drivers/USB/Core/AVR8/../AVR8/Endpoint_AVR8.h **** 			};
 163:../../tmk_core/protocol/lufa/LUFA-git/LUFA/Drivers/USB/Core/AVR8/../AVR8/Endpoint_AVR8.h **** 
 164:../../tmk_core/protocol/lufa/LUFA-git/LUFA/Drivers/USB/Core/AVR8/../AVR8/Endpoint_AVR8.h **** 		/* Inline Functions: */
 165:../../tmk_core/protocol/lufa/LUFA-git/LUFA/Drivers/USB/Core/AVR8/../AVR8/Endpoint_AVR8.h **** 			/** Configures the specified endpoint address with the given endpoint type, bank size and number
 166:../../tmk_core/protocol/lufa/LUFA-git/LUFA/Drivers/USB/Core/AVR8/../AVR8/Endpoint_AVR8.h **** 			 *  banks. Once configured, the endpoint may be read from or written to, depending on its direct
 167:../../tmk_core/protocol/lufa/LUFA-git/LUFA/Drivers/USB/Core/AVR8/../AVR8/Endpoint_AVR8.h **** 			 *
 168:../../tmk_core/protocol/lufa/LUFA-git/LUFA/Drivers/USB/Core/AVR8/../AVR8/Endpoint_AVR8.h **** 			 *  \param[in] Address    Endpoint address to configure.
 169:../../tmk_core/protocol/lufa/LUFA-git/LUFA/Drivers/USB/Core/AVR8/../AVR8/Endpoint_AVR8.h **** 			 *
 170:../../tmk_core/protocol/lufa/LUFA-git/LUFA/Drivers/USB/Core/AVR8/../AVR8/Endpoint_AVR8.h **** 			 *  \param[in] Type       Type of endpoint to configure, a \c EP_TYPE_* mask. Not all endpoint t
 171:../../tmk_core/protocol/lufa/LUFA-git/LUFA/Drivers/USB/Core/AVR8/../AVR8/Endpoint_AVR8.h **** 			 *                        are available on Low Speed USB devices - refer to the USB 2.0 specific
 172:../../tmk_core/protocol/lufa/LUFA-git/LUFA/Drivers/USB/Core/AVR8/../AVR8/Endpoint_AVR8.h **** 			 *
 173:../../tmk_core/protocol/lufa/LUFA-git/LUFA/Drivers/USB/Core/AVR8/../AVR8/Endpoint_AVR8.h **** 			 *  \param[in] Size       Size of the endpoint's bank, where packets are stored before they are 
 174:../../tmk_core/protocol/lufa/LUFA-git/LUFA/Drivers/USB/Core/AVR8/../AVR8/Endpoint_AVR8.h **** 			 *                        to the USB host, or after they have been received from the USB host (d
 175:../../tmk_core/protocol/lufa/LUFA-git/LUFA/Drivers/USB/Core/AVR8/../AVR8/Endpoint_AVR8.h **** 			 *                        the endpoint's data direction). The bank size must indicate the maximu
 176:../../tmk_core/protocol/lufa/LUFA-git/LUFA/Drivers/USB/Core/AVR8/../AVR8/Endpoint_AVR8.h **** 			 *                        that the endpoint can handle.
 177:../../tmk_core/protocol/lufa/LUFA-git/LUFA/Drivers/USB/Core/AVR8/../AVR8/Endpoint_AVR8.h **** 			 *
 178:../../tmk_core/protocol/lufa/LUFA-git/LUFA/Drivers/USB/Core/AVR8/../AVR8/Endpoint_AVR8.h **** 			 *  \param[in] Banks      Number of banks to use for the endpoint being configured.
 179:../../tmk_core/protocol/lufa/LUFA-git/LUFA/Drivers/USB/Core/AVR8/../AVR8/Endpoint_AVR8.h **** 			 *
 180:../../tmk_core/protocol/lufa/LUFA-git/LUFA/Drivers/USB/Core/AVR8/../AVR8/Endpoint_AVR8.h **** 			 *  \attention When the \c ORDERED_EP_CONFIG compile time option is used, Endpoints <b>must</b> 
 181:../../tmk_core/protocol/lufa/LUFA-git/LUFA/Drivers/USB/Core/AVR8/../AVR8/Endpoint_AVR8.h **** 			 *             ascending order, or bank corruption will occur.
 182:../../tmk_core/protocol/lufa/LUFA-git/LUFA/Drivers/USB/Core/AVR8/../AVR8/Endpoint_AVR8.h **** 			 *
 183:../../tmk_core/protocol/lufa/LUFA-git/LUFA/Drivers/USB/Core/AVR8/../AVR8/Endpoint_AVR8.h **** 			 *  \note Different endpoints may have different maximum packet sizes based on the endpoint's in
 184:../../tmk_core/protocol/lufa/LUFA-git/LUFA/Drivers/USB/Core/AVR8/../AVR8/Endpoint_AVR8.h **** 			 *        refer to the chosen microcontroller model's datasheet to determine the maximum bank si
 185:../../tmk_core/protocol/lufa/LUFA-git/LUFA/Drivers/USB/Core/AVR8/../AVR8/Endpoint_AVR8.h **** 			 *        \n\n
 186:../../tmk_core/protocol/lufa/LUFA-git/LUFA/Drivers/USB/Core/AVR8/../AVR8/Endpoint_AVR8.h **** 			 *
 187:../../tmk_core/protocol/lufa/LUFA-git/LUFA/Drivers/USB/Core/AVR8/../AVR8/Endpoint_AVR8.h **** 			 *  \note The default control endpoint should not be manually configured by the user application
 188:../../tmk_core/protocol/lufa/LUFA-git/LUFA/Drivers/USB/Core/AVR8/../AVR8/Endpoint_AVR8.h **** 			 *        it is automatically configured by the library internally.
 189:../../tmk_core/protocol/lufa/LUFA-git/LUFA/Drivers/USB/Core/AVR8/../AVR8/Endpoint_AVR8.h **** 			 *        \n\n
 190:../../tmk_core/protocol/lufa/LUFA-git/LUFA/Drivers/USB/Core/AVR8/../AVR8/Endpoint_AVR8.h **** 			 *
 191:../../tmk_core/protocol/lufa/LUFA-git/LUFA/Drivers/USB/Core/AVR8/../AVR8/Endpoint_AVR8.h **** 			 *  \note This routine will automatically select the specified endpoint upon success. Upon failu
 192:../../tmk_core/protocol/lufa/LUFA-git/LUFA/Drivers/USB/Core/AVR8/../AVR8/Endpoint_AVR8.h **** 			 *        which failed to reconfigure correctly will be selected.
 193:../../tmk_core/protocol/lufa/LUFA-git/LUFA/Drivers/USB/Core/AVR8/../AVR8/Endpoint_AVR8.h **** 			 *
 194:../../tmk_core/protocol/lufa/LUFA-git/LUFA/Drivers/USB/Core/AVR8/../AVR8/Endpoint_AVR8.h **** 			 *  \return Boolean \c true if the configuration succeeded, \c false otherwise.
 195:../../tmk_core/protocol/lufa/LUFA-git/LUFA/Drivers/USB/Core/AVR8/../AVR8/Endpoint_AVR8.h **** 			 */
 196:../../tmk_core/protocol/lufa/LUFA-git/LUFA/Drivers/USB/Core/AVR8/../AVR8/Endpoint_AVR8.h **** 			static inline bool Endpoint_ConfigureEndpoint(const uint8_t Address,
 197:../../tmk_core/protocol/lufa/LUFA-git/LUFA/Drivers/USB/Core/AVR8/../AVR8/Endpoint_AVR8.h **** 			                                              const uint8_t Type,
 198:../../tmk_core/protocol/lufa/LUFA-git/LUFA/Drivers/USB/Core/AVR8/../AVR8/Endpoint_AVR8.h **** 			                                              const uint16_t Size,
 199:../../tmk_core/protocol/lufa/LUFA-git/LUFA/Drivers/USB/Core/AVR8/../AVR8/Endpoint_AVR8.h **** 			                                              const uint8_t Banks) ATTR_ALWAYS_INLINE;
 200:../../tmk_core/protocol/lufa/LUFA-git/LUFA/Drivers/USB/Core/AVR8/../AVR8/Endpoint_AVR8.h **** 			static inline bool Endpoint_ConfigureEndpoint(const uint8_t Address,
 201:../../tmk_core/protocol/lufa/LUFA-git/LUFA/Drivers/USB/Core/AVR8/../AVR8/Endpoint_AVR8.h **** 			                                              const uint8_t Type,
 202:../../tmk_core/protocol/lufa/LUFA-git/LUFA/Drivers/USB/Core/AVR8/../AVR8/Endpoint_AVR8.h **** 			                                              const uint16_t Size,
 203:../../tmk_core/protocol/lufa/LUFA-git/LUFA/Drivers/USB/Core/AVR8/../AVR8/Endpoint_AVR8.h **** 			                                              const uint8_t Banks)
 204:../../tmk_core/protocol/lufa/LUFA-git/LUFA/Drivers/USB/Core/AVR8/../AVR8/Endpoint_AVR8.h **** 			{
 205:../../tmk_core/protocol/lufa/LUFA-git/LUFA/Drivers/USB/Core/AVR8/../AVR8/Endpoint_AVR8.h **** 				uint8_t Number = (Address & ENDPOINT_EPNUM_MASK);
 206:../../tmk_core/protocol/lufa/LUFA-git/LUFA/Drivers/USB/Core/AVR8/../AVR8/Endpoint_AVR8.h **** 
 207:../../tmk_core/protocol/lufa/LUFA-git/LUFA/Drivers/USB/Core/AVR8/../AVR8/Endpoint_AVR8.h **** 				if (Number >= ENDPOINT_TOTAL_ENDPOINTS)
 208:../../tmk_core/protocol/lufa/LUFA-git/LUFA/Drivers/USB/Core/AVR8/../AVR8/Endpoint_AVR8.h **** 				  return false;
 209:../../tmk_core/protocol/lufa/LUFA-git/LUFA/Drivers/USB/Core/AVR8/../AVR8/Endpoint_AVR8.h **** 
 210:../../tmk_core/protocol/lufa/LUFA-git/LUFA/Drivers/USB/Core/AVR8/../AVR8/Endpoint_AVR8.h **** 				return Endpoint_ConfigureEndpoint_Prv(Number,
 211:../../tmk_core/protocol/lufa/LUFA-git/LUFA/Drivers/USB/Core/AVR8/../AVR8/Endpoint_AVR8.h **** 				                                      ((Type << EPTYPE0) | ((Address & ENDPOINT_DIR_IN) ? (1 <<
 212:../../tmk_core/protocol/lufa/LUFA-git/LUFA/Drivers/USB/Core/AVR8/../AVR8/Endpoint_AVR8.h **** 				                                      ((1 << ALLOC) | ((Banks > 1) ? (1 << EPBK0) : 0) | Endpoi
 213:../../tmk_core/protocol/lufa/LUFA-git/LUFA/Drivers/USB/Core/AVR8/../AVR8/Endpoint_AVR8.h **** 			}
 214:../../tmk_core/protocol/lufa/LUFA-git/LUFA/Drivers/USB/Core/AVR8/../AVR8/Endpoint_AVR8.h **** 
 215:../../tmk_core/protocol/lufa/LUFA-git/LUFA/Drivers/USB/Core/AVR8/../AVR8/Endpoint_AVR8.h **** 			/** Indicates the number of bytes currently stored in the current endpoint's selected bank.
 216:../../tmk_core/protocol/lufa/LUFA-git/LUFA/Drivers/USB/Core/AVR8/../AVR8/Endpoint_AVR8.h **** 			 *
 217:../../tmk_core/protocol/lufa/LUFA-git/LUFA/Drivers/USB/Core/AVR8/../AVR8/Endpoint_AVR8.h **** 			 *  \ingroup Group_EndpointRW_AVR8
 218:../../tmk_core/protocol/lufa/LUFA-git/LUFA/Drivers/USB/Core/AVR8/../AVR8/Endpoint_AVR8.h **** 			 *
 219:../../tmk_core/protocol/lufa/LUFA-git/LUFA/Drivers/USB/Core/AVR8/../AVR8/Endpoint_AVR8.h **** 			 *  \return Total number of bytes in the currently selected Endpoint's FIFO buffer.
 220:../../tmk_core/protocol/lufa/LUFA-git/LUFA/Drivers/USB/Core/AVR8/../AVR8/Endpoint_AVR8.h **** 			 */
 221:../../tmk_core/protocol/lufa/LUFA-git/LUFA/Drivers/USB/Core/AVR8/../AVR8/Endpoint_AVR8.h **** 			static inline uint16_t Endpoint_BytesInEndpoint(void) ATTR_WARN_UNUSED_RESULT ATTR_ALWAYS_INLINE
 222:../../tmk_core/protocol/lufa/LUFA-git/LUFA/Drivers/USB/Core/AVR8/../AVR8/Endpoint_AVR8.h **** 			static inline uint16_t Endpoint_BytesInEndpoint(void)
 223:../../tmk_core/protocol/lufa/LUFA-git/LUFA/Drivers/USB/Core/AVR8/../AVR8/Endpoint_AVR8.h **** 			{
 224:../../tmk_core/protocol/lufa/LUFA-git/LUFA/Drivers/USB/Core/AVR8/../AVR8/Endpoint_AVR8.h **** 				#if (defined(USB_SERIES_6_AVR) || defined(USB_SERIES_7_AVR))
 225:../../tmk_core/protocol/lufa/LUFA-git/LUFA/Drivers/USB/Core/AVR8/../AVR8/Endpoint_AVR8.h **** 					return UEBCX;
 226:../../tmk_core/protocol/lufa/LUFA-git/LUFA/Drivers/USB/Core/AVR8/../AVR8/Endpoint_AVR8.h **** 				#elif defined(USB_SERIES_4_AVR)
 227:../../tmk_core/protocol/lufa/LUFA-git/LUFA/Drivers/USB/Core/AVR8/../AVR8/Endpoint_AVR8.h **** 					return (((uint16_t)UEBCHX << 8) | UEBCLX);
 228:../../tmk_core/protocol/lufa/LUFA-git/LUFA/Drivers/USB/Core/AVR8/../AVR8/Endpoint_AVR8.h **** 				#elif defined(USB_SERIES_2_AVR)
 229:../../tmk_core/protocol/lufa/LUFA-git/LUFA/Drivers/USB/Core/AVR8/../AVR8/Endpoint_AVR8.h **** 					return UEBCLX;
 230:../../tmk_core/protocol/lufa/LUFA-git/LUFA/Drivers/USB/Core/AVR8/../AVR8/Endpoint_AVR8.h **** 				#endif
 231:../../tmk_core/protocol/lufa/LUFA-git/LUFA/Drivers/USB/Core/AVR8/../AVR8/Endpoint_AVR8.h **** 			}
 232:../../tmk_core/protocol/lufa/LUFA-git/LUFA/Drivers/USB/Core/AVR8/../AVR8/Endpoint_AVR8.h **** 
 233:../../tmk_core/protocol/lufa/LUFA-git/LUFA/Drivers/USB/Core/AVR8/../AVR8/Endpoint_AVR8.h **** 			/** Determines the currently selected endpoint's direction.
 234:../../tmk_core/protocol/lufa/LUFA-git/LUFA/Drivers/USB/Core/AVR8/../AVR8/Endpoint_AVR8.h **** 			 *
 235:../../tmk_core/protocol/lufa/LUFA-git/LUFA/Drivers/USB/Core/AVR8/../AVR8/Endpoint_AVR8.h **** 			 *  \return The currently selected endpoint's direction, as a \c ENDPOINT_DIR_* mask.
 236:../../tmk_core/protocol/lufa/LUFA-git/LUFA/Drivers/USB/Core/AVR8/../AVR8/Endpoint_AVR8.h **** 			 */
 237:../../tmk_core/protocol/lufa/LUFA-git/LUFA/Drivers/USB/Core/AVR8/../AVR8/Endpoint_AVR8.h **** 			static inline uint8_t Endpoint_GetEndpointDirection(void) ATTR_WARN_UNUSED_RESULT ATTR_ALWAYS_IN
 238:../../tmk_core/protocol/lufa/LUFA-git/LUFA/Drivers/USB/Core/AVR8/../AVR8/Endpoint_AVR8.h **** 			static inline uint8_t Endpoint_GetEndpointDirection(void)
 239:../../tmk_core/protocol/lufa/LUFA-git/LUFA/Drivers/USB/Core/AVR8/../AVR8/Endpoint_AVR8.h **** 			{
 240:../../tmk_core/protocol/lufa/LUFA-git/LUFA/Drivers/USB/Core/AVR8/../AVR8/Endpoint_AVR8.h **** 				return (UECFG0X & (1 << EPDIR)) ? ENDPOINT_DIR_IN : ENDPOINT_DIR_OUT;
 241:../../tmk_core/protocol/lufa/LUFA-git/LUFA/Drivers/USB/Core/AVR8/../AVR8/Endpoint_AVR8.h **** 			}
 242:../../tmk_core/protocol/lufa/LUFA-git/LUFA/Drivers/USB/Core/AVR8/../AVR8/Endpoint_AVR8.h **** 
 243:../../tmk_core/protocol/lufa/LUFA-git/LUFA/Drivers/USB/Core/AVR8/../AVR8/Endpoint_AVR8.h **** 			/** Get the endpoint address of the currently selected endpoint. This is typically used to save
 244:../../tmk_core/protocol/lufa/LUFA-git/LUFA/Drivers/USB/Core/AVR8/../AVR8/Endpoint_AVR8.h **** 			 *  the currently selected endpoint so that it can be restored after another endpoint has been
 245:../../tmk_core/protocol/lufa/LUFA-git/LUFA/Drivers/USB/Core/AVR8/../AVR8/Endpoint_AVR8.h **** 			 *  manipulated.
 246:../../tmk_core/protocol/lufa/LUFA-git/LUFA/Drivers/USB/Core/AVR8/../AVR8/Endpoint_AVR8.h **** 			 *
 247:../../tmk_core/protocol/lufa/LUFA-git/LUFA/Drivers/USB/Core/AVR8/../AVR8/Endpoint_AVR8.h **** 			 *  \return Index of the currently selected endpoint.
 248:../../tmk_core/protocol/lufa/LUFA-git/LUFA/Drivers/USB/Core/AVR8/../AVR8/Endpoint_AVR8.h **** 			 */
 249:../../tmk_core/protocol/lufa/LUFA-git/LUFA/Drivers/USB/Core/AVR8/../AVR8/Endpoint_AVR8.h **** 			static inline uint8_t Endpoint_GetCurrentEndpoint(void) ATTR_WARN_UNUSED_RESULT ATTR_ALWAYS_INLI
 250:../../tmk_core/protocol/lufa/LUFA-git/LUFA/Drivers/USB/Core/AVR8/../AVR8/Endpoint_AVR8.h **** 			static inline uint8_t Endpoint_GetCurrentEndpoint(void)
 251:../../tmk_core/protocol/lufa/LUFA-git/LUFA/Drivers/USB/Core/AVR8/../AVR8/Endpoint_AVR8.h **** 			{
 252:../../tmk_core/protocol/lufa/LUFA-git/LUFA/Drivers/USB/Core/AVR8/../AVR8/Endpoint_AVR8.h **** 				#if !defined(CONTROL_ONLY_DEVICE)
 253:../../tmk_core/protocol/lufa/LUFA-git/LUFA/Drivers/USB/Core/AVR8/../AVR8/Endpoint_AVR8.h **** 					return ((UENUM & ENDPOINT_EPNUM_MASK) | Endpoint_GetEndpointDirection());
  60               		.loc 2 253 0
  61 0014 9091 E900 		lds r25,233
  62 0018 9F70      		andi r25,lo8(15)
  63               	.LBB176:
  64               	.LBB177:
 240:../../tmk_core/protocol/lufa/LUFA-git/LUFA/Drivers/USB/Core/AVR8/../AVR8/Endpoint_AVR8.h **** 				return (UECFG0X & (1 << EPDIR)) ? ENDPOINT_DIR_IN : ENDPOINT_DIR_OUT;
  65               		.loc 2 240 0
  66 001a 2091 EC00 		lds r18,236
  67 001e 20FF      		sbrs r18,0
  68 0020 00C0      		rjmp .L16
  69 0022 20E8      		ldi r18,lo8(-128)
  70 0024 00C0      		rjmp .L4
  71               	.L16:
  72 0026 20E0      		ldi r18,0
  73               	.L4:
  74               	.LBE177:
  75               	.LBE176:
  76               		.loc 2 253 0
  77 0028 292B      		or r18,r25
  78               	.LVL3:
  79               	.LBE175:
  80               	.LBE174:
  81               	.LBB178:
  82               	.LBB179:
 254:../../tmk_core/protocol/lufa/LUFA-git/LUFA/Drivers/USB/Core/AVR8/../AVR8/Endpoint_AVR8.h **** 				#else
 255:../../tmk_core/protocol/lufa/LUFA-git/LUFA/Drivers/USB/Core/AVR8/../AVR8/Endpoint_AVR8.h **** 					return ENDPOINT_CONTROLEP;
 256:../../tmk_core/protocol/lufa/LUFA-git/LUFA/Drivers/USB/Core/AVR8/../AVR8/Endpoint_AVR8.h **** 				#endif
 257:../../tmk_core/protocol/lufa/LUFA-git/LUFA/Drivers/USB/Core/AVR8/../AVR8/Endpoint_AVR8.h **** 			}
 258:../../tmk_core/protocol/lufa/LUFA-git/LUFA/Drivers/USB/Core/AVR8/../AVR8/Endpoint_AVR8.h **** 
 259:../../tmk_core/protocol/lufa/LUFA-git/LUFA/Drivers/USB/Core/AVR8/../AVR8/Endpoint_AVR8.h **** 			/** Selects the given endpoint address.
 260:../../tmk_core/protocol/lufa/LUFA-git/LUFA/Drivers/USB/Core/AVR8/../AVR8/Endpoint_AVR8.h **** 			 *
 261:../../tmk_core/protocol/lufa/LUFA-git/LUFA/Drivers/USB/Core/AVR8/../AVR8/Endpoint_AVR8.h **** 			 *  Any endpoint operations which do not require the endpoint address to be indicated will opera
 262:../../tmk_core/protocol/lufa/LUFA-git/LUFA/Drivers/USB/Core/AVR8/../AVR8/Endpoint_AVR8.h **** 			 *  the currently selected endpoint.
 263:../../tmk_core/protocol/lufa/LUFA-git/LUFA/Drivers/USB/Core/AVR8/../AVR8/Endpoint_AVR8.h **** 			 *
 264:../../tmk_core/protocol/lufa/LUFA-git/LUFA/Drivers/USB/Core/AVR8/../AVR8/Endpoint_AVR8.h **** 			 *  \param[in] Address Endpoint address to select.
 265:../../tmk_core/protocol/lufa/LUFA-git/LUFA/Drivers/USB/Core/AVR8/../AVR8/Endpoint_AVR8.h **** 			 */
 266:../../tmk_core/protocol/lufa/LUFA-git/LUFA/Drivers/USB/Core/AVR8/../AVR8/Endpoint_AVR8.h **** 			static inline void Endpoint_SelectEndpoint(const uint8_t Address) ATTR_ALWAYS_INLINE;
 267:../../tmk_core/protocol/lufa/LUFA-git/LUFA/Drivers/USB/Core/AVR8/../AVR8/Endpoint_AVR8.h **** 			static inline void Endpoint_SelectEndpoint(const uint8_t Address)
 268:../../tmk_core/protocol/lufa/LUFA-git/LUFA/Drivers/USB/Core/AVR8/../AVR8/Endpoint_AVR8.h **** 			{
 269:../../tmk_core/protocol/lufa/LUFA-git/LUFA/Drivers/USB/Core/AVR8/../AVR8/Endpoint_AVR8.h **** 				#if !defined(CONTROL_ONLY_DEVICE)
 270:../../tmk_core/protocol/lufa/LUFA-git/LUFA/Drivers/USB/Core/AVR8/../AVR8/Endpoint_AVR8.h **** 					UENUM = (Address & ENDPOINT_EPNUM_MASK);
  83               		.loc 2 270 0
  84 002a 94E0      		ldi r25,lo8(4)
  85 002c 9093 E900 		sts 233,r25
  86               	.LVL4:
  87               	.LBE179:
  88               	.LBE178:
  89               	.LBB180:
  90               	.LBB181:
 271:../../tmk_core/protocol/lufa/LUFA-git/LUFA/Drivers/USB/Core/AVR8/../AVR8/Endpoint_AVR8.h **** 				#endif
 272:../../tmk_core/protocol/lufa/LUFA-git/LUFA/Drivers/USB/Core/AVR8/../AVR8/Endpoint_AVR8.h **** 			}
 273:../../tmk_core/protocol/lufa/LUFA-git/LUFA/Drivers/USB/Core/AVR8/../AVR8/Endpoint_AVR8.h **** 
 274:../../tmk_core/protocol/lufa/LUFA-git/LUFA/Drivers/USB/Core/AVR8/../AVR8/Endpoint_AVR8.h **** 			/** Resets the endpoint bank FIFO. This clears all the endpoint banks and resets the USB control
 275:../../tmk_core/protocol/lufa/LUFA-git/LUFA/Drivers/USB/Core/AVR8/../AVR8/Endpoint_AVR8.h **** 			 *  data In and Out pointers to the bank's contents.
 276:../../tmk_core/protocol/lufa/LUFA-git/LUFA/Drivers/USB/Core/AVR8/../AVR8/Endpoint_AVR8.h **** 			 *
 277:../../tmk_core/protocol/lufa/LUFA-git/LUFA/Drivers/USB/Core/AVR8/../AVR8/Endpoint_AVR8.h **** 			 *  \param[in] Address  Endpoint address whose FIFO buffers are to be reset.
 278:../../tmk_core/protocol/lufa/LUFA-git/LUFA/Drivers/USB/Core/AVR8/../AVR8/Endpoint_AVR8.h **** 			 */
 279:../../tmk_core/protocol/lufa/LUFA-git/LUFA/Drivers/USB/Core/AVR8/../AVR8/Endpoint_AVR8.h **** 			static inline void Endpoint_ResetEndpoint(const uint8_t Address) ATTR_ALWAYS_INLINE;
 280:../../tmk_core/protocol/lufa/LUFA-git/LUFA/Drivers/USB/Core/AVR8/../AVR8/Endpoint_AVR8.h **** 			static inline void Endpoint_ResetEndpoint(const uint8_t Address)
 281:../../tmk_core/protocol/lufa/LUFA-git/LUFA/Drivers/USB/Core/AVR8/../AVR8/Endpoint_AVR8.h **** 			{
 282:../../tmk_core/protocol/lufa/LUFA-git/LUFA/Drivers/USB/Core/AVR8/../AVR8/Endpoint_AVR8.h **** 				UERST = (1 << (Address & ENDPOINT_EPNUM_MASK));
 283:../../tmk_core/protocol/lufa/LUFA-git/LUFA/Drivers/USB/Core/AVR8/../AVR8/Endpoint_AVR8.h **** 				UERST = 0;
 284:../../tmk_core/protocol/lufa/LUFA-git/LUFA/Drivers/USB/Core/AVR8/../AVR8/Endpoint_AVR8.h **** 			}
 285:../../tmk_core/protocol/lufa/LUFA-git/LUFA/Drivers/USB/Core/AVR8/../AVR8/Endpoint_AVR8.h **** 
 286:../../tmk_core/protocol/lufa/LUFA-git/LUFA/Drivers/USB/Core/AVR8/../AVR8/Endpoint_AVR8.h **** 			/** Enables the currently selected endpoint so that data can be sent and received through it to
 287:../../tmk_core/protocol/lufa/LUFA-git/LUFA/Drivers/USB/Core/AVR8/../AVR8/Endpoint_AVR8.h **** 			 *  and from a host.
 288:../../tmk_core/protocol/lufa/LUFA-git/LUFA/Drivers/USB/Core/AVR8/../AVR8/Endpoint_AVR8.h **** 			 *
 289:../../tmk_core/protocol/lufa/LUFA-git/LUFA/Drivers/USB/Core/AVR8/../AVR8/Endpoint_AVR8.h **** 			 *  \note Endpoints must first be configured properly via \ref Endpoint_ConfigureEndpoint().
 290:../../tmk_core/protocol/lufa/LUFA-git/LUFA/Drivers/USB/Core/AVR8/../AVR8/Endpoint_AVR8.h **** 			 */
 291:../../tmk_core/protocol/lufa/LUFA-git/LUFA/Drivers/USB/Core/AVR8/../AVR8/Endpoint_AVR8.h **** 			static inline void Endpoint_EnableEndpoint(void) ATTR_ALWAYS_INLINE;
 292:../../tmk_core/protocol/lufa/LUFA-git/LUFA/Drivers/USB/Core/AVR8/../AVR8/Endpoint_AVR8.h **** 			static inline void Endpoint_EnableEndpoint(void)
 293:../../tmk_core/protocol/lufa/LUFA-git/LUFA/Drivers/USB/Core/AVR8/../AVR8/Endpoint_AVR8.h **** 			{
 294:../../tmk_core/protocol/lufa/LUFA-git/LUFA/Drivers/USB/Core/AVR8/../AVR8/Endpoint_AVR8.h **** 				UECONX |= (1 << EPEN);
 295:../../tmk_core/protocol/lufa/LUFA-git/LUFA/Drivers/USB/Core/AVR8/../AVR8/Endpoint_AVR8.h **** 			}
 296:../../tmk_core/protocol/lufa/LUFA-git/LUFA/Drivers/USB/Core/AVR8/../AVR8/Endpoint_AVR8.h **** 
 297:../../tmk_core/protocol/lufa/LUFA-git/LUFA/Drivers/USB/Core/AVR8/../AVR8/Endpoint_AVR8.h **** 			/** Disables the currently selected endpoint so that data cannot be sent and received through it
 298:../../tmk_core/protocol/lufa/LUFA-git/LUFA/Drivers/USB/Core/AVR8/../AVR8/Endpoint_AVR8.h **** 			 *  to and from a host.
 299:../../tmk_core/protocol/lufa/LUFA-git/LUFA/Drivers/USB/Core/AVR8/../AVR8/Endpoint_AVR8.h **** 			 */
 300:../../tmk_core/protocol/lufa/LUFA-git/LUFA/Drivers/USB/Core/AVR8/../AVR8/Endpoint_AVR8.h **** 			static inline void Endpoint_DisableEndpoint(void) ATTR_ALWAYS_INLINE;
 301:../../tmk_core/protocol/lufa/LUFA-git/LUFA/Drivers/USB/Core/AVR8/../AVR8/Endpoint_AVR8.h **** 			static inline void Endpoint_DisableEndpoint(void)
 302:../../tmk_core/protocol/lufa/LUFA-git/LUFA/Drivers/USB/Core/AVR8/../AVR8/Endpoint_AVR8.h **** 			{
 303:../../tmk_core/protocol/lufa/LUFA-git/LUFA/Drivers/USB/Core/AVR8/../AVR8/Endpoint_AVR8.h **** 				UECONX &= ~(1 << EPEN);
 304:../../tmk_core/protocol/lufa/LUFA-git/LUFA/Drivers/USB/Core/AVR8/../AVR8/Endpoint_AVR8.h **** 			}
 305:../../tmk_core/protocol/lufa/LUFA-git/LUFA/Drivers/USB/Core/AVR8/../AVR8/Endpoint_AVR8.h **** 
 306:../../tmk_core/protocol/lufa/LUFA-git/LUFA/Drivers/USB/Core/AVR8/../AVR8/Endpoint_AVR8.h **** 			/** Determines if the currently selected endpoint is enabled, but not necessarily configured.
 307:../../tmk_core/protocol/lufa/LUFA-git/LUFA/Drivers/USB/Core/AVR8/../AVR8/Endpoint_AVR8.h **** 			 *
 308:../../tmk_core/protocol/lufa/LUFA-git/LUFA/Drivers/USB/Core/AVR8/../AVR8/Endpoint_AVR8.h **** 			 * \return Boolean \c true if the currently selected endpoint is enabled, \c false otherwise.
 309:../../tmk_core/protocol/lufa/LUFA-git/LUFA/Drivers/USB/Core/AVR8/../AVR8/Endpoint_AVR8.h **** 			 */
 310:../../tmk_core/protocol/lufa/LUFA-git/LUFA/Drivers/USB/Core/AVR8/../AVR8/Endpoint_AVR8.h **** 			static inline bool Endpoint_IsEnabled(void) ATTR_WARN_UNUSED_RESULT ATTR_ALWAYS_INLINE;
 311:../../tmk_core/protocol/lufa/LUFA-git/LUFA/Drivers/USB/Core/AVR8/../AVR8/Endpoint_AVR8.h **** 			static inline bool Endpoint_IsEnabled(void)
 312:../../tmk_core/protocol/lufa/LUFA-git/LUFA/Drivers/USB/Core/AVR8/../AVR8/Endpoint_AVR8.h **** 			{
 313:../../tmk_core/protocol/lufa/LUFA-git/LUFA/Drivers/USB/Core/AVR8/../AVR8/Endpoint_AVR8.h **** 				return ((UECONX & (1 << EPEN)) ? true : false);
  91               		.loc 2 313 0
  92 0030 9091 EB00 		lds r25,235
  93               	.LBE181:
  94               	.LBE180:
 545:../../tmk_core/protocol/lufa/lufa.c ****         return -1;
 546:../../tmk_core/protocol/lufa/lufa.c **** 
 547:../../tmk_core/protocol/lufa/lufa.c ****     uint8_t ep = Endpoint_GetCurrentEndpoint();
 548:../../tmk_core/protocol/lufa/lufa.c ****     Endpoint_SelectEndpoint(CONSOLE_IN_EPNUM);
 549:../../tmk_core/protocol/lufa/lufa.c ****     if (!Endpoint_IsEnabled() || !Endpoint_IsConfigured()) {
  95               		.loc 1 549 0
  96 0034 90FF      		sbrs r25,0
  97 0036 00C0      		rjmp .L9
  98               	.LBB182:
  99               	.LBB183:
 314:../../tmk_core/protocol/lufa/LUFA-git/LUFA/Drivers/USB/Core/AVR8/../AVR8/Endpoint_AVR8.h **** 			}
 315:../../tmk_core/protocol/lufa/LUFA-git/LUFA/Drivers/USB/Core/AVR8/../AVR8/Endpoint_AVR8.h **** 
 316:../../tmk_core/protocol/lufa/LUFA-git/LUFA/Drivers/USB/Core/AVR8/../AVR8/Endpoint_AVR8.h **** 			/** Retrieves the number of busy banks in the currently selected endpoint, which have been queue
 317:../../tmk_core/protocol/lufa/LUFA-git/LUFA/Drivers/USB/Core/AVR8/../AVR8/Endpoint_AVR8.h **** 			 *  transmission via the \ref Endpoint_ClearIN() command, or are awaiting acknowledgment via the
 318:../../tmk_core/protocol/lufa/LUFA-git/LUFA/Drivers/USB/Core/AVR8/../AVR8/Endpoint_AVR8.h **** 			 *  \ref Endpoint_ClearOUT() command.
 319:../../tmk_core/protocol/lufa/LUFA-git/LUFA/Drivers/USB/Core/AVR8/../AVR8/Endpoint_AVR8.h **** 			 *
 320:../../tmk_core/protocol/lufa/LUFA-git/LUFA/Drivers/USB/Core/AVR8/../AVR8/Endpoint_AVR8.h **** 			 *  \ingroup Group_EndpointPacketManagement_AVR8
 321:../../tmk_core/protocol/lufa/LUFA-git/LUFA/Drivers/USB/Core/AVR8/../AVR8/Endpoint_AVR8.h **** 			 *
 322:../../tmk_core/protocol/lufa/LUFA-git/LUFA/Drivers/USB/Core/AVR8/../AVR8/Endpoint_AVR8.h **** 			 *  \return Total number of busy banks in the selected endpoint.
 323:../../tmk_core/protocol/lufa/LUFA-git/LUFA/Drivers/USB/Core/AVR8/../AVR8/Endpoint_AVR8.h **** 			 */
 324:../../tmk_core/protocol/lufa/LUFA-git/LUFA/Drivers/USB/Core/AVR8/../AVR8/Endpoint_AVR8.h **** 			static inline uint8_t Endpoint_GetBusyBanks(void) ATTR_ALWAYS_INLINE ATTR_WARN_UNUSED_RESULT;
 325:../../tmk_core/protocol/lufa/LUFA-git/LUFA/Drivers/USB/Core/AVR8/../AVR8/Endpoint_AVR8.h **** 			static inline uint8_t Endpoint_GetBusyBanks(void)
 326:../../tmk_core/protocol/lufa/LUFA-git/LUFA/Drivers/USB/Core/AVR8/../AVR8/Endpoint_AVR8.h **** 			{
 327:../../tmk_core/protocol/lufa/LUFA-git/LUFA/Drivers/USB/Core/AVR8/../AVR8/Endpoint_AVR8.h **** 				return (UESTA0X & (0x03 << NBUSYBK0));
 328:../../tmk_core/protocol/lufa/LUFA-git/LUFA/Drivers/USB/Core/AVR8/../AVR8/Endpoint_AVR8.h **** 			}
 329:../../tmk_core/protocol/lufa/LUFA-git/LUFA/Drivers/USB/Core/AVR8/../AVR8/Endpoint_AVR8.h **** 
 330:../../tmk_core/protocol/lufa/LUFA-git/LUFA/Drivers/USB/Core/AVR8/../AVR8/Endpoint_AVR8.h **** 			/** Aborts all pending IN transactions on the currently selected endpoint, once the bank
 331:../../tmk_core/protocol/lufa/LUFA-git/LUFA/Drivers/USB/Core/AVR8/../AVR8/Endpoint_AVR8.h **** 			 *  has been queued for transmission to the host via \ref Endpoint_ClearIN(). This function
 332:../../tmk_core/protocol/lufa/LUFA-git/LUFA/Drivers/USB/Core/AVR8/../AVR8/Endpoint_AVR8.h **** 			 *  will terminate all queued transactions, resetting the endpoint banks ready for a new
 333:../../tmk_core/protocol/lufa/LUFA-git/LUFA/Drivers/USB/Core/AVR8/../AVR8/Endpoint_AVR8.h **** 			 *  packet.
 334:../../tmk_core/protocol/lufa/LUFA-git/LUFA/Drivers/USB/Core/AVR8/../AVR8/Endpoint_AVR8.h **** 			 *
 335:../../tmk_core/protocol/lufa/LUFA-git/LUFA/Drivers/USB/Core/AVR8/../AVR8/Endpoint_AVR8.h **** 			 *  \ingroup Group_EndpointPacketManagement_AVR8
 336:../../tmk_core/protocol/lufa/LUFA-git/LUFA/Drivers/USB/Core/AVR8/../AVR8/Endpoint_AVR8.h **** 			 */
 337:../../tmk_core/protocol/lufa/LUFA-git/LUFA/Drivers/USB/Core/AVR8/../AVR8/Endpoint_AVR8.h **** 			static inline void Endpoint_AbortPendingIN(void)
 338:../../tmk_core/protocol/lufa/LUFA-git/LUFA/Drivers/USB/Core/AVR8/../AVR8/Endpoint_AVR8.h **** 			{
 339:../../tmk_core/protocol/lufa/LUFA-git/LUFA/Drivers/USB/Core/AVR8/../AVR8/Endpoint_AVR8.h **** 				while (Endpoint_GetBusyBanks() != 0)
 340:../../tmk_core/protocol/lufa/LUFA-git/LUFA/Drivers/USB/Core/AVR8/../AVR8/Endpoint_AVR8.h **** 				{
 341:../../tmk_core/protocol/lufa/LUFA-git/LUFA/Drivers/USB/Core/AVR8/../AVR8/Endpoint_AVR8.h **** 					UEINTX |= (1 << RXOUTI);
 342:../../tmk_core/protocol/lufa/LUFA-git/LUFA/Drivers/USB/Core/AVR8/../AVR8/Endpoint_AVR8.h **** 					while (UEINTX & (1 << RXOUTI));
 343:../../tmk_core/protocol/lufa/LUFA-git/LUFA/Drivers/USB/Core/AVR8/../AVR8/Endpoint_AVR8.h **** 				}
 344:../../tmk_core/protocol/lufa/LUFA-git/LUFA/Drivers/USB/Core/AVR8/../AVR8/Endpoint_AVR8.h **** 			}
 345:../../tmk_core/protocol/lufa/LUFA-git/LUFA/Drivers/USB/Core/AVR8/../AVR8/Endpoint_AVR8.h **** 
 346:../../tmk_core/protocol/lufa/LUFA-git/LUFA/Drivers/USB/Core/AVR8/../AVR8/Endpoint_AVR8.h **** 			/** Determines if the currently selected endpoint may be read from (if data is waiting in the en
 347:../../tmk_core/protocol/lufa/LUFA-git/LUFA/Drivers/USB/Core/AVR8/../AVR8/Endpoint_AVR8.h **** 			 *  bank and the endpoint is an OUT direction, or if the bank is not yet full if the endpoint is
 348:../../tmk_core/protocol/lufa/LUFA-git/LUFA/Drivers/USB/Core/AVR8/../AVR8/Endpoint_AVR8.h **** 			 *  direction). This function will return false if an error has occurred in the endpoint, if the
 349:../../tmk_core/protocol/lufa/LUFA-git/LUFA/Drivers/USB/Core/AVR8/../AVR8/Endpoint_AVR8.h **** 			 *  is an OUT direction and no packet (or an empty packet) has been received, or if the endpoint
 350:../../tmk_core/protocol/lufa/LUFA-git/LUFA/Drivers/USB/Core/AVR8/../AVR8/Endpoint_AVR8.h **** 			 *  direction and the endpoint bank is full.
 351:../../tmk_core/protocol/lufa/LUFA-git/LUFA/Drivers/USB/Core/AVR8/../AVR8/Endpoint_AVR8.h **** 			 *
 352:../../tmk_core/protocol/lufa/LUFA-git/LUFA/Drivers/USB/Core/AVR8/../AVR8/Endpoint_AVR8.h **** 			 *  \ingroup Group_EndpointPacketManagement_AVR8
 353:../../tmk_core/protocol/lufa/LUFA-git/LUFA/Drivers/USB/Core/AVR8/../AVR8/Endpoint_AVR8.h **** 			 *
 354:../../tmk_core/protocol/lufa/LUFA-git/LUFA/Drivers/USB/Core/AVR8/../AVR8/Endpoint_AVR8.h **** 			 *  \return Boolean \c true if the currently selected endpoint may be read from or written to, d
 355:../../tmk_core/protocol/lufa/LUFA-git/LUFA/Drivers/USB/Core/AVR8/../AVR8/Endpoint_AVR8.h **** 			 *          on its direction.
 356:../../tmk_core/protocol/lufa/LUFA-git/LUFA/Drivers/USB/Core/AVR8/../AVR8/Endpoint_AVR8.h **** 			 */
 357:../../tmk_core/protocol/lufa/LUFA-git/LUFA/Drivers/USB/Core/AVR8/../AVR8/Endpoint_AVR8.h **** 			static inline bool Endpoint_IsReadWriteAllowed(void) ATTR_WARN_UNUSED_RESULT ATTR_ALWAYS_INLINE;
 358:../../tmk_core/protocol/lufa/LUFA-git/LUFA/Drivers/USB/Core/AVR8/../AVR8/Endpoint_AVR8.h **** 			static inline bool Endpoint_IsReadWriteAllowed(void)
 359:../../tmk_core/protocol/lufa/LUFA-git/LUFA/Drivers/USB/Core/AVR8/../AVR8/Endpoint_AVR8.h **** 			{
 360:../../tmk_core/protocol/lufa/LUFA-git/LUFA/Drivers/USB/Core/AVR8/../AVR8/Endpoint_AVR8.h **** 				return ((UEINTX & (1 << RWAL)) ? true : false);
 361:../../tmk_core/protocol/lufa/LUFA-git/LUFA/Drivers/USB/Core/AVR8/../AVR8/Endpoint_AVR8.h **** 			}
 362:../../tmk_core/protocol/lufa/LUFA-git/LUFA/Drivers/USB/Core/AVR8/../AVR8/Endpoint_AVR8.h **** 
 363:../../tmk_core/protocol/lufa/LUFA-git/LUFA/Drivers/USB/Core/AVR8/../AVR8/Endpoint_AVR8.h **** 			/** Determines if the currently selected endpoint is configured.
 364:../../tmk_core/protocol/lufa/LUFA-git/LUFA/Drivers/USB/Core/AVR8/../AVR8/Endpoint_AVR8.h **** 			 *
 365:../../tmk_core/protocol/lufa/LUFA-git/LUFA/Drivers/USB/Core/AVR8/../AVR8/Endpoint_AVR8.h **** 			 *  \return Boolean \c true if the currently selected endpoint has been configured, \c false oth
 366:../../tmk_core/protocol/lufa/LUFA-git/LUFA/Drivers/USB/Core/AVR8/../AVR8/Endpoint_AVR8.h **** 			 */
 367:../../tmk_core/protocol/lufa/LUFA-git/LUFA/Drivers/USB/Core/AVR8/../AVR8/Endpoint_AVR8.h **** 			static inline bool Endpoint_IsConfigured(void) ATTR_WARN_UNUSED_RESULT ATTR_ALWAYS_INLINE;
 368:../../tmk_core/protocol/lufa/LUFA-git/LUFA/Drivers/USB/Core/AVR8/../AVR8/Endpoint_AVR8.h **** 			static inline bool Endpoint_IsConfigured(void)
 369:../../tmk_core/protocol/lufa/LUFA-git/LUFA/Drivers/USB/Core/AVR8/../AVR8/Endpoint_AVR8.h **** 			{
 370:../../tmk_core/protocol/lufa/LUFA-git/LUFA/Drivers/USB/Core/AVR8/../AVR8/Endpoint_AVR8.h **** 				return ((UESTA0X & (1 << CFGOK)) ? true : false);
 100               		.loc 2 370 0
 101 0038 9091 EE00 		lds r25,238
 102               	.LBE183:
 103               	.LBE182:
 104               		.loc 1 549 0
 105 003c 97FF      		sbrs r25,7
 106 003e 00C0      		rjmp .L9
 550:../../tmk_core/protocol/lufa/lufa.c ****         goto ERROR_EXIT;
 551:../../tmk_core/protocol/lufa/lufa.c ****     }
 552:../../tmk_core/protocol/lufa/lufa.c **** 
 553:../../tmk_core/protocol/lufa/lufa.c ****     if (timeouted && !Endpoint_IsReadWriteAllowed()) {
 107               		.loc 1 553 0
 108 0040 9091 0000 		lds r25,timeouted.4840
 109 0044 9923      		tst r25
 110 0046 01F0      		breq .L6
 111               	.LBB184:
 112               	.LBB185:
 360:../../tmk_core/protocol/lufa/LUFA-git/LUFA/Drivers/USB/Core/AVR8/../AVR8/Endpoint_AVR8.h **** 				return ((UEINTX & (1 << RWAL)) ? true : false);
 113               		.loc 2 360 0
 114 0048 9091 E800 		lds r25,232
 115               	.LBE185:
 116               	.LBE184:
 117               		.loc 1 553 0
 118 004c 95FF      		sbrs r25,5
 119 004e 00C0      		rjmp .L9
 120               	.L6:
 554:../../tmk_core/protocol/lufa/lufa.c ****         goto ERROR_EXIT;
 555:../../tmk_core/protocol/lufa/lufa.c ****     }
 556:../../tmk_core/protocol/lufa/lufa.c **** 
 557:../../tmk_core/protocol/lufa/lufa.c ****     timeouted = false;
 121               		.loc 1 557 0
 122 0050 1092 0000 		sts timeouted.4840,__zero_reg__
 123               	.LVL5:
 558:../../tmk_core/protocol/lufa/lufa.c **** 
 559:../../tmk_core/protocol/lufa/lufa.c ****     uint8_t timeout = SEND_TIMEOUT;
 560:../../tmk_core/protocol/lufa/lufa.c ****     while (!Endpoint_IsReadWriteAllowed()) {
 124               		.loc 1 560 0
 125 0054 96E0      		ldi r25,lo8(6)
 126               	.LVL6:
 127               	.L7:
 128               	.LBB186:
 129               	.LBB187:
 360:../../tmk_core/protocol/lufa/LUFA-git/LUFA/Drivers/USB/Core/AVR8/../AVR8/Endpoint_AVR8.h **** 				return ((UEINTX & (1 << RWAL)) ? true : false);
 130               		.loc 2 360 0 discriminator 1
 131 0056 3091 E800 		lds r19,232
 132               	.LBE187:
 133               	.LBE186:
 134               		.loc 1 560 0 discriminator 1
 135 005a 35FD      		sbrc r19,5
 136 005c 00C0      		rjmp .L27
 561:../../tmk_core/protocol/lufa/lufa.c ****         if (USB_DeviceState != DEVICE_STATE_Configured) {
 137               		.loc 1 561 0
 138 005e 3091 0000 		lds r19,USB_DeviceState
 139 0062 3430      		cpi r19,lo8(4)
 140 0064 01F4      		brne .L9
 141               	.LBB188:
 142               	.LBB189:
 371:../../tmk_core/protocol/lufa/LUFA-git/LUFA/Drivers/USB/Core/AVR8/../AVR8/Endpoint_AVR8.h **** 			}
 372:../../tmk_core/protocol/lufa/LUFA-git/LUFA/Drivers/USB/Core/AVR8/../AVR8/Endpoint_AVR8.h **** 
 373:../../tmk_core/protocol/lufa/LUFA-git/LUFA/Drivers/USB/Core/AVR8/../AVR8/Endpoint_AVR8.h **** 			/** Returns a mask indicating which INTERRUPT type endpoints have interrupted - i.e. their
 374:../../tmk_core/protocol/lufa/LUFA-git/LUFA/Drivers/USB/Core/AVR8/../AVR8/Endpoint_AVR8.h **** 			 *  interrupt duration has elapsed. Which endpoints have interrupted can be determined by
 375:../../tmk_core/protocol/lufa/LUFA-git/LUFA/Drivers/USB/Core/AVR8/../AVR8/Endpoint_AVR8.h **** 			 *  masking the return value against <tt>(1 << <i>{Endpoint Number}</i>)</tt>.
 376:../../tmk_core/protocol/lufa/LUFA-git/LUFA/Drivers/USB/Core/AVR8/../AVR8/Endpoint_AVR8.h **** 			 *
 377:../../tmk_core/protocol/lufa/LUFA-git/LUFA/Drivers/USB/Core/AVR8/../AVR8/Endpoint_AVR8.h **** 			 *  \return Mask whose bits indicate which endpoints have interrupted.
 378:../../tmk_core/protocol/lufa/LUFA-git/LUFA/Drivers/USB/Core/AVR8/../AVR8/Endpoint_AVR8.h **** 			 */
 379:../../tmk_core/protocol/lufa/LUFA-git/LUFA/Drivers/USB/Core/AVR8/../AVR8/Endpoint_AVR8.h **** 			static inline uint8_t Endpoint_GetEndpointInterrupts(void) ATTR_WARN_UNUSED_RESULT ATTR_ALWAYS_I
 380:../../tmk_core/protocol/lufa/LUFA-git/LUFA/Drivers/USB/Core/AVR8/../AVR8/Endpoint_AVR8.h **** 			static inline uint8_t Endpoint_GetEndpointInterrupts(void)
 381:../../tmk_core/protocol/lufa/LUFA-git/LUFA/Drivers/USB/Core/AVR8/../AVR8/Endpoint_AVR8.h **** 			{
 382:../../tmk_core/protocol/lufa/LUFA-git/LUFA/Drivers/USB/Core/AVR8/../AVR8/Endpoint_AVR8.h **** 				return UEINT;
 383:../../tmk_core/protocol/lufa/LUFA-git/LUFA/Drivers/USB/Core/AVR8/../AVR8/Endpoint_AVR8.h **** 			}
 384:../../tmk_core/protocol/lufa/LUFA-git/LUFA/Drivers/USB/Core/AVR8/../AVR8/Endpoint_AVR8.h **** 
 385:../../tmk_core/protocol/lufa/LUFA-git/LUFA/Drivers/USB/Core/AVR8/../AVR8/Endpoint_AVR8.h **** 			/** Determines if the specified endpoint number has interrupted (valid only for INTERRUPT type
 386:../../tmk_core/protocol/lufa/LUFA-git/LUFA/Drivers/USB/Core/AVR8/../AVR8/Endpoint_AVR8.h **** 			 *  endpoints).
 387:../../tmk_core/protocol/lufa/LUFA-git/LUFA/Drivers/USB/Core/AVR8/../AVR8/Endpoint_AVR8.h **** 			 *
 388:../../tmk_core/protocol/lufa/LUFA-git/LUFA/Drivers/USB/Core/AVR8/../AVR8/Endpoint_AVR8.h **** 			 *  \param[in] Address  Address of the endpoint whose interrupt flag should be tested.
 389:../../tmk_core/protocol/lufa/LUFA-git/LUFA/Drivers/USB/Core/AVR8/../AVR8/Endpoint_AVR8.h **** 			 *
 390:../../tmk_core/protocol/lufa/LUFA-git/LUFA/Drivers/USB/Core/AVR8/../AVR8/Endpoint_AVR8.h **** 			 *  \return Boolean \c true if the specified endpoint has interrupted, \c false otherwise.
 391:../../tmk_core/protocol/lufa/LUFA-git/LUFA/Drivers/USB/Core/AVR8/../AVR8/Endpoint_AVR8.h **** 			 */
 392:../../tmk_core/protocol/lufa/LUFA-git/LUFA/Drivers/USB/Core/AVR8/../AVR8/Endpoint_AVR8.h **** 			static inline bool Endpoint_HasEndpointInterrupted(const uint8_t Address) ATTR_WARN_UNUSED_RESUL
 393:../../tmk_core/protocol/lufa/LUFA-git/LUFA/Drivers/USB/Core/AVR8/../AVR8/Endpoint_AVR8.h **** 			static inline bool Endpoint_HasEndpointInterrupted(const uint8_t Address)
 394:../../tmk_core/protocol/lufa/LUFA-git/LUFA/Drivers/USB/Core/AVR8/../AVR8/Endpoint_AVR8.h **** 			{
 395:../../tmk_core/protocol/lufa/LUFA-git/LUFA/Drivers/USB/Core/AVR8/../AVR8/Endpoint_AVR8.h **** 				return ((Endpoint_GetEndpointInterrupts() & (1 << (Address & ENDPOINT_EPNUM_MASK))) ? true : fa
 396:../../tmk_core/protocol/lufa/LUFA-git/LUFA/Drivers/USB/Core/AVR8/../AVR8/Endpoint_AVR8.h **** 			}
 397:../../tmk_core/protocol/lufa/LUFA-git/LUFA/Drivers/USB/Core/AVR8/../AVR8/Endpoint_AVR8.h **** 
 398:../../tmk_core/protocol/lufa/LUFA-git/LUFA/Drivers/USB/Core/AVR8/../AVR8/Endpoint_AVR8.h **** 			/** Determines if the selected IN endpoint is ready for a new packet to be sent to the host.
 399:../../tmk_core/protocol/lufa/LUFA-git/LUFA/Drivers/USB/Core/AVR8/../AVR8/Endpoint_AVR8.h **** 			 *
 400:../../tmk_core/protocol/lufa/LUFA-git/LUFA/Drivers/USB/Core/AVR8/../AVR8/Endpoint_AVR8.h **** 			 *  \ingroup Group_EndpointPacketManagement_AVR8
 401:../../tmk_core/protocol/lufa/LUFA-git/LUFA/Drivers/USB/Core/AVR8/../AVR8/Endpoint_AVR8.h **** 			 *
 402:../../tmk_core/protocol/lufa/LUFA-git/LUFA/Drivers/USB/Core/AVR8/../AVR8/Endpoint_AVR8.h **** 			 *  \return Boolean \c true if the current endpoint is ready for an IN packet, \c false otherwis
 403:../../tmk_core/protocol/lufa/LUFA-git/LUFA/Drivers/USB/Core/AVR8/../AVR8/Endpoint_AVR8.h **** 			 */
 404:../../tmk_core/protocol/lufa/LUFA-git/LUFA/Drivers/USB/Core/AVR8/../AVR8/Endpoint_AVR8.h **** 			static inline bool Endpoint_IsINReady(void) ATTR_WARN_UNUSED_RESULT ATTR_ALWAYS_INLINE;
 405:../../tmk_core/protocol/lufa/LUFA-git/LUFA/Drivers/USB/Core/AVR8/../AVR8/Endpoint_AVR8.h **** 			static inline bool Endpoint_IsINReady(void)
 406:../../tmk_core/protocol/lufa/LUFA-git/LUFA/Drivers/USB/Core/AVR8/../AVR8/Endpoint_AVR8.h **** 			{
 407:../../tmk_core/protocol/lufa/LUFA-git/LUFA/Drivers/USB/Core/AVR8/../AVR8/Endpoint_AVR8.h **** 				return ((UEINTX & (1 << TXINI)) ? true : false);
 408:../../tmk_core/protocol/lufa/LUFA-git/LUFA/Drivers/USB/Core/AVR8/../AVR8/Endpoint_AVR8.h **** 			}
 409:../../tmk_core/protocol/lufa/LUFA-git/LUFA/Drivers/USB/Core/AVR8/../AVR8/Endpoint_AVR8.h **** 
 410:../../tmk_core/protocol/lufa/LUFA-git/LUFA/Drivers/USB/Core/AVR8/../AVR8/Endpoint_AVR8.h **** 			/** Determines if the selected OUT endpoint has received new packet from the host.
 411:../../tmk_core/protocol/lufa/LUFA-git/LUFA/Drivers/USB/Core/AVR8/../AVR8/Endpoint_AVR8.h **** 			 *
 412:../../tmk_core/protocol/lufa/LUFA-git/LUFA/Drivers/USB/Core/AVR8/../AVR8/Endpoint_AVR8.h **** 			 *  \ingroup Group_EndpointPacketManagement_AVR8
 413:../../tmk_core/protocol/lufa/LUFA-git/LUFA/Drivers/USB/Core/AVR8/../AVR8/Endpoint_AVR8.h **** 			 *
 414:../../tmk_core/protocol/lufa/LUFA-git/LUFA/Drivers/USB/Core/AVR8/../AVR8/Endpoint_AVR8.h **** 			 *  \return Boolean \c true if current endpoint is has received an OUT packet, \c false otherwis
 415:../../tmk_core/protocol/lufa/LUFA-git/LUFA/Drivers/USB/Core/AVR8/../AVR8/Endpoint_AVR8.h **** 			 */
 416:../../tmk_core/protocol/lufa/LUFA-git/LUFA/Drivers/USB/Core/AVR8/../AVR8/Endpoint_AVR8.h **** 			static inline bool Endpoint_IsOUTReceived(void) ATTR_WARN_UNUSED_RESULT ATTR_ALWAYS_INLINE;
 417:../../tmk_core/protocol/lufa/LUFA-git/LUFA/Drivers/USB/Core/AVR8/../AVR8/Endpoint_AVR8.h **** 			static inline bool Endpoint_IsOUTReceived(void)
 418:../../tmk_core/protocol/lufa/LUFA-git/LUFA/Drivers/USB/Core/AVR8/../AVR8/Endpoint_AVR8.h **** 			{
 419:../../tmk_core/protocol/lufa/LUFA-git/LUFA/Drivers/USB/Core/AVR8/../AVR8/Endpoint_AVR8.h **** 				return ((UEINTX & (1 << RXOUTI)) ? true : false);
 420:../../tmk_core/protocol/lufa/LUFA-git/LUFA/Drivers/USB/Core/AVR8/../AVR8/Endpoint_AVR8.h **** 			}
 421:../../tmk_core/protocol/lufa/LUFA-git/LUFA/Drivers/USB/Core/AVR8/../AVR8/Endpoint_AVR8.h **** 
 422:../../tmk_core/protocol/lufa/LUFA-git/LUFA/Drivers/USB/Core/AVR8/../AVR8/Endpoint_AVR8.h **** 			/** Determines if the current CONTROL type endpoint has received a SETUP packet.
 423:../../tmk_core/protocol/lufa/LUFA-git/LUFA/Drivers/USB/Core/AVR8/../AVR8/Endpoint_AVR8.h **** 			 *
 424:../../tmk_core/protocol/lufa/LUFA-git/LUFA/Drivers/USB/Core/AVR8/../AVR8/Endpoint_AVR8.h **** 			 *  \ingroup Group_EndpointPacketManagement_AVR8
 425:../../tmk_core/protocol/lufa/LUFA-git/LUFA/Drivers/USB/Core/AVR8/../AVR8/Endpoint_AVR8.h **** 			 *
 426:../../tmk_core/protocol/lufa/LUFA-git/LUFA/Drivers/USB/Core/AVR8/../AVR8/Endpoint_AVR8.h **** 			 *  \return Boolean \c true if the selected endpoint has received a SETUP packet, \c false other
 427:../../tmk_core/protocol/lufa/LUFA-git/LUFA/Drivers/USB/Core/AVR8/../AVR8/Endpoint_AVR8.h **** 			 */
 428:../../tmk_core/protocol/lufa/LUFA-git/LUFA/Drivers/USB/Core/AVR8/../AVR8/Endpoint_AVR8.h **** 			static inline bool Endpoint_IsSETUPReceived(void) ATTR_WARN_UNUSED_RESULT ATTR_ALWAYS_INLINE;
 429:../../tmk_core/protocol/lufa/LUFA-git/LUFA/Drivers/USB/Core/AVR8/../AVR8/Endpoint_AVR8.h **** 			static inline bool Endpoint_IsSETUPReceived(void)
 430:../../tmk_core/protocol/lufa/LUFA-git/LUFA/Drivers/USB/Core/AVR8/../AVR8/Endpoint_AVR8.h **** 			{
 431:../../tmk_core/protocol/lufa/LUFA-git/LUFA/Drivers/USB/Core/AVR8/../AVR8/Endpoint_AVR8.h **** 				return ((UEINTX & (1 << RXSTPI)) ? true : false);
 432:../../tmk_core/protocol/lufa/LUFA-git/LUFA/Drivers/USB/Core/AVR8/../AVR8/Endpoint_AVR8.h **** 			}
 433:../../tmk_core/protocol/lufa/LUFA-git/LUFA/Drivers/USB/Core/AVR8/../AVR8/Endpoint_AVR8.h **** 
 434:../../tmk_core/protocol/lufa/LUFA-git/LUFA/Drivers/USB/Core/AVR8/../AVR8/Endpoint_AVR8.h **** 			/** Clears a received SETUP packet on the currently selected CONTROL type endpoint, freeing up t
 435:../../tmk_core/protocol/lufa/LUFA-git/LUFA/Drivers/USB/Core/AVR8/../AVR8/Endpoint_AVR8.h **** 			 *  endpoint for the next packet.
 436:../../tmk_core/protocol/lufa/LUFA-git/LUFA/Drivers/USB/Core/AVR8/../AVR8/Endpoint_AVR8.h **** 			 *
 437:../../tmk_core/protocol/lufa/LUFA-git/LUFA/Drivers/USB/Core/AVR8/../AVR8/Endpoint_AVR8.h **** 			 *  \ingroup Group_EndpointPacketManagement_AVR8
 438:../../tmk_core/protocol/lufa/LUFA-git/LUFA/Drivers/USB/Core/AVR8/../AVR8/Endpoint_AVR8.h **** 			 *
 439:../../tmk_core/protocol/lufa/LUFA-git/LUFA/Drivers/USB/Core/AVR8/../AVR8/Endpoint_AVR8.h **** 			 *  \note This is not applicable for non CONTROL type endpoints.
 440:../../tmk_core/protocol/lufa/LUFA-git/LUFA/Drivers/USB/Core/AVR8/../AVR8/Endpoint_AVR8.h **** 			 */
 441:../../tmk_core/protocol/lufa/LUFA-git/LUFA/Drivers/USB/Core/AVR8/../AVR8/Endpoint_AVR8.h **** 			static inline void Endpoint_ClearSETUP(void) ATTR_ALWAYS_INLINE;
 442:../../tmk_core/protocol/lufa/LUFA-git/LUFA/Drivers/USB/Core/AVR8/../AVR8/Endpoint_AVR8.h **** 			static inline void Endpoint_ClearSETUP(void)
 443:../../tmk_core/protocol/lufa/LUFA-git/LUFA/Drivers/USB/Core/AVR8/../AVR8/Endpoint_AVR8.h **** 			{
 444:../../tmk_core/protocol/lufa/LUFA-git/LUFA/Drivers/USB/Core/AVR8/../AVR8/Endpoint_AVR8.h **** 				UEINTX &= ~(1 << RXSTPI);
 445:../../tmk_core/protocol/lufa/LUFA-git/LUFA/Drivers/USB/Core/AVR8/../AVR8/Endpoint_AVR8.h **** 			}
 446:../../tmk_core/protocol/lufa/LUFA-git/LUFA/Drivers/USB/Core/AVR8/../AVR8/Endpoint_AVR8.h **** 
 447:../../tmk_core/protocol/lufa/LUFA-git/LUFA/Drivers/USB/Core/AVR8/../AVR8/Endpoint_AVR8.h **** 			/** Sends an IN packet to the host on the currently selected endpoint, freeing up the endpoint f
 448:../../tmk_core/protocol/lufa/LUFA-git/LUFA/Drivers/USB/Core/AVR8/../AVR8/Endpoint_AVR8.h **** 			 *  next packet and switching to the alternative endpoint bank if double banked.
 449:../../tmk_core/protocol/lufa/LUFA-git/LUFA/Drivers/USB/Core/AVR8/../AVR8/Endpoint_AVR8.h **** 			 *
 450:../../tmk_core/protocol/lufa/LUFA-git/LUFA/Drivers/USB/Core/AVR8/../AVR8/Endpoint_AVR8.h **** 			 *  \ingroup Group_EndpointPacketManagement_AVR8
 451:../../tmk_core/protocol/lufa/LUFA-git/LUFA/Drivers/USB/Core/AVR8/../AVR8/Endpoint_AVR8.h **** 			 */
 452:../../tmk_core/protocol/lufa/LUFA-git/LUFA/Drivers/USB/Core/AVR8/../AVR8/Endpoint_AVR8.h **** 			static inline void Endpoint_ClearIN(void) ATTR_ALWAYS_INLINE;
 453:../../tmk_core/protocol/lufa/LUFA-git/LUFA/Drivers/USB/Core/AVR8/../AVR8/Endpoint_AVR8.h **** 			static inline void Endpoint_ClearIN(void)
 454:../../tmk_core/protocol/lufa/LUFA-git/LUFA/Drivers/USB/Core/AVR8/../AVR8/Endpoint_AVR8.h **** 			{
 455:../../tmk_core/protocol/lufa/LUFA-git/LUFA/Drivers/USB/Core/AVR8/../AVR8/Endpoint_AVR8.h **** 				#if !defined(CONTROL_ONLY_DEVICE)
 456:../../tmk_core/protocol/lufa/LUFA-git/LUFA/Drivers/USB/Core/AVR8/../AVR8/Endpoint_AVR8.h **** 					UEINTX &= ~((1 << TXINI) | (1 << FIFOCON));
 457:../../tmk_core/protocol/lufa/LUFA-git/LUFA/Drivers/USB/Core/AVR8/../AVR8/Endpoint_AVR8.h **** 				#else
 458:../../tmk_core/protocol/lufa/LUFA-git/LUFA/Drivers/USB/Core/AVR8/../AVR8/Endpoint_AVR8.h **** 					UEINTX &= ~(1 << TXINI);
 459:../../tmk_core/protocol/lufa/LUFA-git/LUFA/Drivers/USB/Core/AVR8/../AVR8/Endpoint_AVR8.h **** 				#endif
 460:../../tmk_core/protocol/lufa/LUFA-git/LUFA/Drivers/USB/Core/AVR8/../AVR8/Endpoint_AVR8.h **** 			}
 461:../../tmk_core/protocol/lufa/LUFA-git/LUFA/Drivers/USB/Core/AVR8/../AVR8/Endpoint_AVR8.h **** 
 462:../../tmk_core/protocol/lufa/LUFA-git/LUFA/Drivers/USB/Core/AVR8/../AVR8/Endpoint_AVR8.h **** 			/** Acknowledges an OUT packet to the host on the currently selected endpoint, freeing up the en
 463:../../tmk_core/protocol/lufa/LUFA-git/LUFA/Drivers/USB/Core/AVR8/../AVR8/Endpoint_AVR8.h **** 			 *  for the next packet and switching to the alternative endpoint bank if double banked.
 464:../../tmk_core/protocol/lufa/LUFA-git/LUFA/Drivers/USB/Core/AVR8/../AVR8/Endpoint_AVR8.h **** 			 *
 465:../../tmk_core/protocol/lufa/LUFA-git/LUFA/Drivers/USB/Core/AVR8/../AVR8/Endpoint_AVR8.h **** 			 *  \ingroup Group_EndpointPacketManagement_AVR8
 466:../../tmk_core/protocol/lufa/LUFA-git/LUFA/Drivers/USB/Core/AVR8/../AVR8/Endpoint_AVR8.h **** 			 */
 467:../../tmk_core/protocol/lufa/LUFA-git/LUFA/Drivers/USB/Core/AVR8/../AVR8/Endpoint_AVR8.h **** 			static inline void Endpoint_ClearOUT(void) ATTR_ALWAYS_INLINE;
 468:../../tmk_core/protocol/lufa/LUFA-git/LUFA/Drivers/USB/Core/AVR8/../AVR8/Endpoint_AVR8.h **** 			static inline void Endpoint_ClearOUT(void)
 469:../../tmk_core/protocol/lufa/LUFA-git/LUFA/Drivers/USB/Core/AVR8/../AVR8/Endpoint_AVR8.h **** 			{
 470:../../tmk_core/protocol/lufa/LUFA-git/LUFA/Drivers/USB/Core/AVR8/../AVR8/Endpoint_AVR8.h **** 				#if !defined(CONTROL_ONLY_DEVICE)
 471:../../tmk_core/protocol/lufa/LUFA-git/LUFA/Drivers/USB/Core/AVR8/../AVR8/Endpoint_AVR8.h **** 					UEINTX &= ~((1 << RXOUTI) | (1 << FIFOCON));
 472:../../tmk_core/protocol/lufa/LUFA-git/LUFA/Drivers/USB/Core/AVR8/../AVR8/Endpoint_AVR8.h **** 				#else
 473:../../tmk_core/protocol/lufa/LUFA-git/LUFA/Drivers/USB/Core/AVR8/../AVR8/Endpoint_AVR8.h **** 					UEINTX &= ~(1 << RXOUTI);
 474:../../tmk_core/protocol/lufa/LUFA-git/LUFA/Drivers/USB/Core/AVR8/../AVR8/Endpoint_AVR8.h **** 				#endif
 475:../../tmk_core/protocol/lufa/LUFA-git/LUFA/Drivers/USB/Core/AVR8/../AVR8/Endpoint_AVR8.h **** 			}
 476:../../tmk_core/protocol/lufa/LUFA-git/LUFA/Drivers/USB/Core/AVR8/../AVR8/Endpoint_AVR8.h **** 
 477:../../tmk_core/protocol/lufa/LUFA-git/LUFA/Drivers/USB/Core/AVR8/../AVR8/Endpoint_AVR8.h **** 			/** Stalls the current endpoint, indicating to the host that a logical problem occurred with the
 478:../../tmk_core/protocol/lufa/LUFA-git/LUFA/Drivers/USB/Core/AVR8/../AVR8/Endpoint_AVR8.h **** 			 *  indicated endpoint and that the current transfer sequence should be aborted. This provides a
 479:../../tmk_core/protocol/lufa/LUFA-git/LUFA/Drivers/USB/Core/AVR8/../AVR8/Endpoint_AVR8.h **** 			 *  way for devices to indicate invalid commands to the host so that the current transfer can be
 480:../../tmk_core/protocol/lufa/LUFA-git/LUFA/Drivers/USB/Core/AVR8/../AVR8/Endpoint_AVR8.h **** 			 *  aborted and the host can begin its own recovery sequence.
 481:../../tmk_core/protocol/lufa/LUFA-git/LUFA/Drivers/USB/Core/AVR8/../AVR8/Endpoint_AVR8.h **** 			 *
 482:../../tmk_core/protocol/lufa/LUFA-git/LUFA/Drivers/USB/Core/AVR8/../AVR8/Endpoint_AVR8.h **** 			 *  The currently selected endpoint remains stalled until either the \ref Endpoint_ClearStall() 
 483:../../tmk_core/protocol/lufa/LUFA-git/LUFA/Drivers/USB/Core/AVR8/../AVR8/Endpoint_AVR8.h **** 			 *  is called, or the host issues a CLEAR FEATURE request to the device for the currently select
 484:../../tmk_core/protocol/lufa/LUFA-git/LUFA/Drivers/USB/Core/AVR8/../AVR8/Endpoint_AVR8.h **** 			 *  endpoint.
 485:../../tmk_core/protocol/lufa/LUFA-git/LUFA/Drivers/USB/Core/AVR8/../AVR8/Endpoint_AVR8.h **** 			 *
 486:../../tmk_core/protocol/lufa/LUFA-git/LUFA/Drivers/USB/Core/AVR8/../AVR8/Endpoint_AVR8.h **** 			 *  \ingroup Group_EndpointPacketManagement_AVR8
 487:../../tmk_core/protocol/lufa/LUFA-git/LUFA/Drivers/USB/Core/AVR8/../AVR8/Endpoint_AVR8.h **** 			 */
 488:../../tmk_core/protocol/lufa/LUFA-git/LUFA/Drivers/USB/Core/AVR8/../AVR8/Endpoint_AVR8.h **** 			static inline void Endpoint_StallTransaction(void) ATTR_ALWAYS_INLINE;
 489:../../tmk_core/protocol/lufa/LUFA-git/LUFA/Drivers/USB/Core/AVR8/../AVR8/Endpoint_AVR8.h **** 			static inline void Endpoint_StallTransaction(void)
 490:../../tmk_core/protocol/lufa/LUFA-git/LUFA/Drivers/USB/Core/AVR8/../AVR8/Endpoint_AVR8.h **** 			{
 491:../../tmk_core/protocol/lufa/LUFA-git/LUFA/Drivers/USB/Core/AVR8/../AVR8/Endpoint_AVR8.h **** 				UECONX |= (1 << STALLRQ);
 492:../../tmk_core/protocol/lufa/LUFA-git/LUFA/Drivers/USB/Core/AVR8/../AVR8/Endpoint_AVR8.h **** 			}
 493:../../tmk_core/protocol/lufa/LUFA-git/LUFA/Drivers/USB/Core/AVR8/../AVR8/Endpoint_AVR8.h **** 
 494:../../tmk_core/protocol/lufa/LUFA-git/LUFA/Drivers/USB/Core/AVR8/../AVR8/Endpoint_AVR8.h **** 			/** Clears the STALL condition on the currently selected endpoint.
 495:../../tmk_core/protocol/lufa/LUFA-git/LUFA/Drivers/USB/Core/AVR8/../AVR8/Endpoint_AVR8.h **** 			 *
 496:../../tmk_core/protocol/lufa/LUFA-git/LUFA/Drivers/USB/Core/AVR8/../AVR8/Endpoint_AVR8.h **** 			 *  \ingroup Group_EndpointPacketManagement_AVR8
 497:../../tmk_core/protocol/lufa/LUFA-git/LUFA/Drivers/USB/Core/AVR8/../AVR8/Endpoint_AVR8.h **** 			 */
 498:../../tmk_core/protocol/lufa/LUFA-git/LUFA/Drivers/USB/Core/AVR8/../AVR8/Endpoint_AVR8.h **** 			static inline void Endpoint_ClearStall(void) ATTR_ALWAYS_INLINE;
 499:../../tmk_core/protocol/lufa/LUFA-git/LUFA/Drivers/USB/Core/AVR8/../AVR8/Endpoint_AVR8.h **** 			static inline void Endpoint_ClearStall(void)
 500:../../tmk_core/protocol/lufa/LUFA-git/LUFA/Drivers/USB/Core/AVR8/../AVR8/Endpoint_AVR8.h **** 			{
 501:../../tmk_core/protocol/lufa/LUFA-git/LUFA/Drivers/USB/Core/AVR8/../AVR8/Endpoint_AVR8.h **** 				UECONX |= (1 << STALLRQC);
 502:../../tmk_core/protocol/lufa/LUFA-git/LUFA/Drivers/USB/Core/AVR8/../AVR8/Endpoint_AVR8.h **** 			}
 503:../../tmk_core/protocol/lufa/LUFA-git/LUFA/Drivers/USB/Core/AVR8/../AVR8/Endpoint_AVR8.h **** 
 504:../../tmk_core/protocol/lufa/LUFA-git/LUFA/Drivers/USB/Core/AVR8/../AVR8/Endpoint_AVR8.h **** 			/** Determines if the currently selected endpoint is stalled, \c false otherwise.
 505:../../tmk_core/protocol/lufa/LUFA-git/LUFA/Drivers/USB/Core/AVR8/../AVR8/Endpoint_AVR8.h **** 			 *
 506:../../tmk_core/protocol/lufa/LUFA-git/LUFA/Drivers/USB/Core/AVR8/../AVR8/Endpoint_AVR8.h **** 			 *  \ingroup Group_EndpointPacketManagement_AVR8
 507:../../tmk_core/protocol/lufa/LUFA-git/LUFA/Drivers/USB/Core/AVR8/../AVR8/Endpoint_AVR8.h **** 			 *
 508:../../tmk_core/protocol/lufa/LUFA-git/LUFA/Drivers/USB/Core/AVR8/../AVR8/Endpoint_AVR8.h **** 			 *  \return Boolean \c true if the currently selected endpoint is stalled, \c false otherwise.
 509:../../tmk_core/protocol/lufa/LUFA-git/LUFA/Drivers/USB/Core/AVR8/../AVR8/Endpoint_AVR8.h **** 			 */
 510:../../tmk_core/protocol/lufa/LUFA-git/LUFA/Drivers/USB/Core/AVR8/../AVR8/Endpoint_AVR8.h **** 			static inline bool Endpoint_IsStalled(void) ATTR_WARN_UNUSED_RESULT ATTR_ALWAYS_INLINE;
 511:../../tmk_core/protocol/lufa/LUFA-git/LUFA/Drivers/USB/Core/AVR8/../AVR8/Endpoint_AVR8.h **** 			static inline bool Endpoint_IsStalled(void)
 512:../../tmk_core/protocol/lufa/LUFA-git/LUFA/Drivers/USB/Core/AVR8/../AVR8/Endpoint_AVR8.h **** 			{
 513:../../tmk_core/protocol/lufa/LUFA-git/LUFA/Drivers/USB/Core/AVR8/../AVR8/Endpoint_AVR8.h **** 				return ((UECONX & (1 << STALLRQ)) ? true : false);
 143               		.loc 2 513 0
 144 0066 3091 EB00 		lds r19,235
 145               	.LBE189:
 146               	.LBE188:
 562:../../tmk_core/protocol/lufa/lufa.c ****             goto ERROR_EXIT;
 563:../../tmk_core/protocol/lufa/lufa.c ****         }
 564:../../tmk_core/protocol/lufa/lufa.c ****         if (Endpoint_IsStalled()) {
 147               		.loc 1 564 0
 148 006a 35FD      		sbrc r19,5
 149 006c 00C0      		rjmp .L9
 150               	.LVL7:
 151 006e 9150      		subi r25,lo8(-(-1))
 152               	.LVL8:
 565:../../tmk_core/protocol/lufa/lufa.c ****             goto ERROR_EXIT;
 566:../../tmk_core/protocol/lufa/lufa.c ****         }
 567:../../tmk_core/protocol/lufa/lufa.c ****         if (!(timeout--)) {
 153               		.loc 1 567 0
 154 0070 01F4      		brne .L8
 568:../../tmk_core/protocol/lufa/lufa.c ****             timeouted = true;
 155               		.loc 1 568 0
 156 0072 81E0      		ldi r24,lo8(1)
 157               	.LVL9:
 158 0074 8093 0000 		sts timeouted.4840,r24
 569:../../tmk_core/protocol/lufa/lufa.c ****             goto ERROR_EXIT;
 159               		.loc 1 569 0
 160 0078 00C0      		rjmp .L9
 161               	.LVL10:
 162               	.L8:
 163               	.LBB190:
 164               	.LBB191:
 165               		.file 3 "/usr/lib/avr/include/util/delay.h"
   1:/usr/lib/avr/include/util/delay.h **** /* Copyright (c) 2002, Marek Michalkiewicz
   2:/usr/lib/avr/include/util/delay.h ****    Copyright (c) 2004,2005,2007 Joerg Wunsch
   3:/usr/lib/avr/include/util/delay.h ****    Copyright (c) 2007  Florin-Viorel Petrov
   4:/usr/lib/avr/include/util/delay.h ****    All rights reserved.
   5:/usr/lib/avr/include/util/delay.h **** 
   6:/usr/lib/avr/include/util/delay.h ****    Redistribution and use in source and binary forms, with or without
   7:/usr/lib/avr/include/util/delay.h ****    modification, are permitted provided that the following conditions are met:
   8:/usr/lib/avr/include/util/delay.h **** 
   9:/usr/lib/avr/include/util/delay.h ****    * Redistributions of source code must retain the above copyright
  10:/usr/lib/avr/include/util/delay.h ****      notice, this list of conditions and the following disclaimer.
  11:/usr/lib/avr/include/util/delay.h **** 
  12:/usr/lib/avr/include/util/delay.h ****    * Redistributions in binary form must reproduce the above copyright
  13:/usr/lib/avr/include/util/delay.h ****      notice, this list of conditions and the following disclaimer in
  14:/usr/lib/avr/include/util/delay.h ****      the documentation and/or other materials provided with the
  15:/usr/lib/avr/include/util/delay.h ****      distribution.
  16:/usr/lib/avr/include/util/delay.h **** 
  17:/usr/lib/avr/include/util/delay.h ****    * Neither the name of the copyright holders nor the names of
  18:/usr/lib/avr/include/util/delay.h ****      contributors may be used to endorse or promote products derived
  19:/usr/lib/avr/include/util/delay.h ****      from this software without specific prior written permission.
  20:/usr/lib/avr/include/util/delay.h **** 
  21:/usr/lib/avr/include/util/delay.h ****   THIS SOFTWARE IS PROVIDED BY THE COPYRIGHT HOLDERS AND CONTRIBUTORS "AS IS"
  22:/usr/lib/avr/include/util/delay.h ****   AND ANY EXPRESS OR IMPLIED WARRANTIES, INCLUDING, BUT NOT LIMITED TO, THE
  23:/usr/lib/avr/include/util/delay.h ****   IMPLIED WARRANTIES OF MERCHANTABILITY AND FITNESS FOR A PARTICULAR PURPOSE
  24:/usr/lib/avr/include/util/delay.h ****   ARE DISCLAIMED. IN NO EVENT SHALL THE COPYRIGHT OWNER OR CONTRIBUTORS BE
  25:/usr/lib/avr/include/util/delay.h ****   LIABLE FOR ANY DIRECT, INDIRECT, INCIDENTAL, SPECIAL, EXEMPLARY, OR
  26:/usr/lib/avr/include/util/delay.h ****   CONSEQUENTIAL DAMAGES (INCLUDING, BUT NOT LIMITED TO, PROCUREMENT OF
  27:/usr/lib/avr/include/util/delay.h ****   SUBSTITUTE GOODS OR SERVICES; LOSS OF USE, DATA, OR PROFITS; OR BUSINESS
  28:/usr/lib/avr/include/util/delay.h ****   INTERRUPTION) HOWEVER CAUSED AND ON ANY THEORY OF LIABILITY, WHETHER IN
  29:/usr/lib/avr/include/util/delay.h ****   CONTRACT, STRICT LIABILITY, OR TORT (INCLUDING NEGLIGENCE OR OTHERWISE)
  30:/usr/lib/avr/include/util/delay.h ****   ARISING IN ANY WAY OUT OF THE USE OF THIS SOFTWARE, EVEN IF ADVISED OF THE
  31:/usr/lib/avr/include/util/delay.h ****   POSSIBILITY OF SUCH DAMAGE. */
  32:/usr/lib/avr/include/util/delay.h **** 
  33:/usr/lib/avr/include/util/delay.h **** /* $Id: delay.h.in 2251 2011-09-14 08:20:33Z joerg_wunsch $ */
  34:/usr/lib/avr/include/util/delay.h **** 
  35:/usr/lib/avr/include/util/delay.h **** #ifndef _UTIL_DELAY_H_
  36:/usr/lib/avr/include/util/delay.h **** #define _UTIL_DELAY_H_ 1
  37:/usr/lib/avr/include/util/delay.h **** 
  38:/usr/lib/avr/include/util/delay.h **** #ifndef __HAS_DELAY_CYCLES
  39:/usr/lib/avr/include/util/delay.h **** #define __HAS_DELAY_CYCLES 1
  40:/usr/lib/avr/include/util/delay.h **** #endif
  41:/usr/lib/avr/include/util/delay.h **** 
  42:/usr/lib/avr/include/util/delay.h **** #include <inttypes.h>
  43:/usr/lib/avr/include/util/delay.h **** #include <util/delay_basic.h>
  44:/usr/lib/avr/include/util/delay.h **** #include <math.h>
  45:/usr/lib/avr/include/util/delay.h **** 
  46:/usr/lib/avr/include/util/delay.h **** /** \file */
  47:/usr/lib/avr/include/util/delay.h **** /** \defgroup util_delay <util/delay.h>: Convenience functions for busy-wait delay loops
  48:/usr/lib/avr/include/util/delay.h ****     \code
  49:/usr/lib/avr/include/util/delay.h ****     #define F_CPU 1000000UL  // 1 MHz
  50:/usr/lib/avr/include/util/delay.h ****     //#define F_CPU 14.7456E6
  51:/usr/lib/avr/include/util/delay.h ****     #include <util/delay.h>
  52:/usr/lib/avr/include/util/delay.h ****     \endcode
  53:/usr/lib/avr/include/util/delay.h **** 
  54:/usr/lib/avr/include/util/delay.h ****     \note As an alternative method, it is possible to pass the
  55:/usr/lib/avr/include/util/delay.h ****     F_CPU macro down to the compiler from the Makefile.
  56:/usr/lib/avr/include/util/delay.h ****     Obviously, in that case, no \c \#define statement should be
  57:/usr/lib/avr/include/util/delay.h ****     used.
  58:/usr/lib/avr/include/util/delay.h **** 
  59:/usr/lib/avr/include/util/delay.h ****     The functions in this header file are wrappers around the basic
  60:/usr/lib/avr/include/util/delay.h ****     busy-wait functions from <util/delay_basic.h>.  They are meant as
  61:/usr/lib/avr/include/util/delay.h ****     convenience functions where actual time values can be specified
  62:/usr/lib/avr/include/util/delay.h ****     rather than a number of cycles to wait for.  The idea behind is
  63:/usr/lib/avr/include/util/delay.h ****     that compile-time constant expressions will be eliminated by
  64:/usr/lib/avr/include/util/delay.h ****     compiler optimization so floating-point expressions can be used
  65:/usr/lib/avr/include/util/delay.h ****     to calculate the number of delay cycles needed based on the CPU
  66:/usr/lib/avr/include/util/delay.h ****     frequency passed by the macro F_CPU.
  67:/usr/lib/avr/include/util/delay.h **** 
  68:/usr/lib/avr/include/util/delay.h ****     \note In order for these functions to work as intended, compiler
  69:/usr/lib/avr/include/util/delay.h ****     optimizations <em>must</em> be enabled, and the delay time
  70:/usr/lib/avr/include/util/delay.h ****     <em>must</em> be an expression that is a known constant at
  71:/usr/lib/avr/include/util/delay.h ****     compile-time.  If these requirements are not met, the resulting
  72:/usr/lib/avr/include/util/delay.h ****     delay will be much longer (and basically unpredictable), and
  73:/usr/lib/avr/include/util/delay.h ****     applications that otherwise do not use floating-point calculations
  74:/usr/lib/avr/include/util/delay.h ****     will experience severe code bloat by the floating-point library
  75:/usr/lib/avr/include/util/delay.h ****     routines linked into the application.
  76:/usr/lib/avr/include/util/delay.h **** 
  77:/usr/lib/avr/include/util/delay.h ****     The functions available allow the specification of microsecond, and
  78:/usr/lib/avr/include/util/delay.h ****     millisecond delays directly, using the application-supplied macro
  79:/usr/lib/avr/include/util/delay.h ****     F_CPU as the CPU clock frequency (in Hertz).
  80:/usr/lib/avr/include/util/delay.h **** 
  81:/usr/lib/avr/include/util/delay.h **** */
  82:/usr/lib/avr/include/util/delay.h **** 
  83:/usr/lib/avr/include/util/delay.h **** #if !defined(__DOXYGEN__)
  84:/usr/lib/avr/include/util/delay.h **** static inline void _delay_us(double __us) __attribute__((always_inline));
  85:/usr/lib/avr/include/util/delay.h **** static inline void _delay_ms(double __ms) __attribute__((always_inline));
  86:/usr/lib/avr/include/util/delay.h **** #endif
  87:/usr/lib/avr/include/util/delay.h **** 
  88:/usr/lib/avr/include/util/delay.h **** #ifndef F_CPU
  89:/usr/lib/avr/include/util/delay.h **** /* prevent compiler error by supplying a default */
  90:/usr/lib/avr/include/util/delay.h **** # warning "F_CPU not defined for <util/delay.h>"
  91:/usr/lib/avr/include/util/delay.h **** # define F_CPU 1000000UL
  92:/usr/lib/avr/include/util/delay.h **** #endif
  93:/usr/lib/avr/include/util/delay.h **** 
  94:/usr/lib/avr/include/util/delay.h **** #ifndef __OPTIMIZE__
  95:/usr/lib/avr/include/util/delay.h **** # warning "Compiler optimizations disabled; functions from <util/delay.h> won't work as designed"
  96:/usr/lib/avr/include/util/delay.h **** #endif
  97:/usr/lib/avr/include/util/delay.h **** 
  98:/usr/lib/avr/include/util/delay.h **** #if __HAS_DELAY_CYCLES && defined(__OPTIMIZE__) && \
  99:/usr/lib/avr/include/util/delay.h ****   !defined(__DELAY_BACKWARD_COMPATIBLE__) &&	   \
 100:/usr/lib/avr/include/util/delay.h ****   __STDC_HOSTED__
 101:/usr/lib/avr/include/util/delay.h **** #  include <math.h>
 102:/usr/lib/avr/include/util/delay.h **** #endif
 103:/usr/lib/avr/include/util/delay.h **** 
 104:/usr/lib/avr/include/util/delay.h **** /**
 105:/usr/lib/avr/include/util/delay.h ****    \ingroup util_delay
 106:/usr/lib/avr/include/util/delay.h **** 
 107:/usr/lib/avr/include/util/delay.h ****    Perform a delay of \c __ms milliseconds, using _delay_loop_2().
 108:/usr/lib/avr/include/util/delay.h **** 
 109:/usr/lib/avr/include/util/delay.h ****    The macro F_CPU is supposed to be defined to a
 110:/usr/lib/avr/include/util/delay.h ****    constant defining the CPU clock frequency (in Hertz).
 111:/usr/lib/avr/include/util/delay.h **** 
 112:/usr/lib/avr/include/util/delay.h ****    The maximal possible delay is 262.14 ms / F_CPU in MHz.
 113:/usr/lib/avr/include/util/delay.h **** 
 114:/usr/lib/avr/include/util/delay.h ****    When the user request delay which exceed the maximum possible one,
 115:/usr/lib/avr/include/util/delay.h ****    _delay_ms() provides a decreased resolution functionality. In this
 116:/usr/lib/avr/include/util/delay.h ****    mode _delay_ms() will work with a resolution of 1/10 ms, providing
 117:/usr/lib/avr/include/util/delay.h ****    delays up to 6.5535 seconds (independent from CPU frequency).  The
 118:/usr/lib/avr/include/util/delay.h ****    user will not be informed about decreased resolution.
 119:/usr/lib/avr/include/util/delay.h **** 
 120:/usr/lib/avr/include/util/delay.h ****    If the avr-gcc toolchain has __builtin_avr_delay_cycles(unsigned long)
 121:/usr/lib/avr/include/util/delay.h ****    support, maximal possible delay is 4294967.295 ms/ F_CPU in MHz. For
 122:/usr/lib/avr/include/util/delay.h ****    values greater than the maximal possible delay, overflows results in
 123:/usr/lib/avr/include/util/delay.h ****    no delay i.e., 0ms.
 124:/usr/lib/avr/include/util/delay.h **** 
 125:/usr/lib/avr/include/util/delay.h ****    Conversion of __us into clock cycles may not always result in integer.
 126:/usr/lib/avr/include/util/delay.h ****    By default, the clock cycles rounded up to next integer. This ensures that
 127:/usr/lib/avr/include/util/delay.h ****    the user gets atleast __us microseconds of delay.
 128:/usr/lib/avr/include/util/delay.h **** 
 129:/usr/lib/avr/include/util/delay.h ****    Alternatively, user can define __DELAY_ROUND_DOWN__ and __DELAY_ROUND_CLOSEST__
 130:/usr/lib/avr/include/util/delay.h ****    to round down and round to closest integer.
 131:/usr/lib/avr/include/util/delay.h **** 
 132:/usr/lib/avr/include/util/delay.h ****    Note: The new implementation of _delay_ms(double __ms) with 
 133:/usr/lib/avr/include/util/delay.h ****     __builtin_avr_delay_cycles(unsigned long) support is not backward compatible. 
 134:/usr/lib/avr/include/util/delay.h ****    User can define __DELAY_BACKWARD_COMPATIBLE__ to get a backward compatible delay.
 135:/usr/lib/avr/include/util/delay.h ****    Also, the backward compatible
 136:/usr/lib/avr/include/util/delay.h ****    algorithm will be chosen if the code is compiled in a <em>freestanding
 137:/usr/lib/avr/include/util/delay.h ****    environment</em> (GCC option \c -ffreestanding), as the math functions
 138:/usr/lib/avr/include/util/delay.h ****    required for rounding are not available to the compiler then.
 139:/usr/lib/avr/include/util/delay.h **** 
 140:/usr/lib/avr/include/util/delay.h ****  */
 141:/usr/lib/avr/include/util/delay.h **** void
 142:/usr/lib/avr/include/util/delay.h **** _delay_ms(double __ms)
 143:/usr/lib/avr/include/util/delay.h **** {
 144:/usr/lib/avr/include/util/delay.h **** 	uint16_t __ticks;
 145:/usr/lib/avr/include/util/delay.h **** 	double __tmp ; 
 146:/usr/lib/avr/include/util/delay.h **** #if __HAS_DELAY_CYCLES && defined(__OPTIMIZE__) && \
 147:/usr/lib/avr/include/util/delay.h ****   !defined(__DELAY_BACKWARD_COMPATIBLE__) &&	   \
 148:/usr/lib/avr/include/util/delay.h ****   __STDC_HOSTED__
 149:/usr/lib/avr/include/util/delay.h **** 	uint32_t __ticks_dc;
 150:/usr/lib/avr/include/util/delay.h **** 	extern void __builtin_avr_delay_cycles(unsigned long);
 151:/usr/lib/avr/include/util/delay.h **** 	__tmp = ((F_CPU) / 1e3) * __ms;
 152:/usr/lib/avr/include/util/delay.h **** 
 153:/usr/lib/avr/include/util/delay.h **** 	#if defined(__DELAY_ROUND_DOWN__)
 154:/usr/lib/avr/include/util/delay.h **** 		__ticks_dc = (uint32_t)fabs(__tmp);
 155:/usr/lib/avr/include/util/delay.h **** 
 156:/usr/lib/avr/include/util/delay.h **** 	#elif defined(__DELAY_ROUND_CLOSEST__)
 157:/usr/lib/avr/include/util/delay.h **** 		__ticks_dc = (uint32_t)(fabs(__tmp)+0.5);
 158:/usr/lib/avr/include/util/delay.h **** 
 159:/usr/lib/avr/include/util/delay.h **** 	#else
 160:/usr/lib/avr/include/util/delay.h **** 		//round up by default
 161:/usr/lib/avr/include/util/delay.h **** 		__ticks_dc = (uint32_t)(ceil(fabs(__tmp)));
 162:/usr/lib/avr/include/util/delay.h **** 	#endif
 163:/usr/lib/avr/include/util/delay.h **** 
 164:/usr/lib/avr/include/util/delay.h **** 	__builtin_avr_delay_cycles(__ticks_dc);
 166               		.loc 3 164 0
 167 007a EFE9      		ldi r30,lo8(3999)
 168 007c FFE0      		ldi r31,hi8(3999)
 169 007e 3197      		1: sbiw r30,1
 170 0080 01F4      		brne 1b
 171 0082 00C0      		rjmp .
 172 0084 0000      		nop
 173 0086 00C0      		rjmp .L7
 174               	.LVL11:
 175               	.L27:
 176               	.LBE191:
 177               	.LBE190:
 178               	.LBB192:
 179               	.LBB193:
 514:../../tmk_core/protocol/lufa/LUFA-git/LUFA/Drivers/USB/Core/AVR8/../AVR8/Endpoint_AVR8.h **** 			}
 515:../../tmk_core/protocol/lufa/LUFA-git/LUFA/Drivers/USB/Core/AVR8/../AVR8/Endpoint_AVR8.h **** 
 516:../../tmk_core/protocol/lufa/LUFA-git/LUFA/Drivers/USB/Core/AVR8/../AVR8/Endpoint_AVR8.h **** 			/** Resets the data toggle of the currently selected endpoint. */
 517:../../tmk_core/protocol/lufa/LUFA-git/LUFA/Drivers/USB/Core/AVR8/../AVR8/Endpoint_AVR8.h **** 			static inline void Endpoint_ResetDataToggle(void) ATTR_ALWAYS_INLINE;
 518:../../tmk_core/protocol/lufa/LUFA-git/LUFA/Drivers/USB/Core/AVR8/../AVR8/Endpoint_AVR8.h **** 			static inline void Endpoint_ResetDataToggle(void)
 519:../../tmk_core/protocol/lufa/LUFA-git/LUFA/Drivers/USB/Core/AVR8/../AVR8/Endpoint_AVR8.h **** 			{
 520:../../tmk_core/protocol/lufa/LUFA-git/LUFA/Drivers/USB/Core/AVR8/../AVR8/Endpoint_AVR8.h **** 				UECONX |= (1 << RSTDT);
 521:../../tmk_core/protocol/lufa/LUFA-git/LUFA/Drivers/USB/Core/AVR8/../AVR8/Endpoint_AVR8.h **** 			}
 522:../../tmk_core/protocol/lufa/LUFA-git/LUFA/Drivers/USB/Core/AVR8/../AVR8/Endpoint_AVR8.h **** 
 523:../../tmk_core/protocol/lufa/LUFA-git/LUFA/Drivers/USB/Core/AVR8/../AVR8/Endpoint_AVR8.h **** 			/** Sets the direction of the currently selected endpoint.
 524:../../tmk_core/protocol/lufa/LUFA-git/LUFA/Drivers/USB/Core/AVR8/../AVR8/Endpoint_AVR8.h **** 			 *
 525:../../tmk_core/protocol/lufa/LUFA-git/LUFA/Drivers/USB/Core/AVR8/../AVR8/Endpoint_AVR8.h **** 			 *  \param[in] DirectionMask  New endpoint direction, as a \c ENDPOINT_DIR_* mask.
 526:../../tmk_core/protocol/lufa/LUFA-git/LUFA/Drivers/USB/Core/AVR8/../AVR8/Endpoint_AVR8.h **** 			 */
 527:../../tmk_core/protocol/lufa/LUFA-git/LUFA/Drivers/USB/Core/AVR8/../AVR8/Endpoint_AVR8.h **** 			static inline void Endpoint_SetEndpointDirection(const uint8_t DirectionMask) ATTR_ALWAYS_INLINE
 528:../../tmk_core/protocol/lufa/LUFA-git/LUFA/Drivers/USB/Core/AVR8/../AVR8/Endpoint_AVR8.h **** 			static inline void Endpoint_SetEndpointDirection(const uint8_t DirectionMask)
 529:../../tmk_core/protocol/lufa/LUFA-git/LUFA/Drivers/USB/Core/AVR8/../AVR8/Endpoint_AVR8.h **** 			{
 530:../../tmk_core/protocol/lufa/LUFA-git/LUFA/Drivers/USB/Core/AVR8/../AVR8/Endpoint_AVR8.h **** 				UECFG0X = ((UECFG0X & ~(1 << EPDIR)) | (DirectionMask ? (1 << EPDIR) : 0));
 531:../../tmk_core/protocol/lufa/LUFA-git/LUFA/Drivers/USB/Core/AVR8/../AVR8/Endpoint_AVR8.h **** 			}
 532:../../tmk_core/protocol/lufa/LUFA-git/LUFA/Drivers/USB/Core/AVR8/../AVR8/Endpoint_AVR8.h **** 
 533:../../tmk_core/protocol/lufa/LUFA-git/LUFA/Drivers/USB/Core/AVR8/../AVR8/Endpoint_AVR8.h **** 			/** Reads one byte from the currently selected endpoint's bank, for OUT direction endpoints.
 534:../../tmk_core/protocol/lufa/LUFA-git/LUFA/Drivers/USB/Core/AVR8/../AVR8/Endpoint_AVR8.h **** 			 *
 535:../../tmk_core/protocol/lufa/LUFA-git/LUFA/Drivers/USB/Core/AVR8/../AVR8/Endpoint_AVR8.h **** 			 *  \ingroup Group_EndpointPrimitiveRW_AVR8
 536:../../tmk_core/protocol/lufa/LUFA-git/LUFA/Drivers/USB/Core/AVR8/../AVR8/Endpoint_AVR8.h **** 			 *
 537:../../tmk_core/protocol/lufa/LUFA-git/LUFA/Drivers/USB/Core/AVR8/../AVR8/Endpoint_AVR8.h **** 			 *  \return Next byte in the currently selected endpoint's FIFO buffer.
 538:../../tmk_core/protocol/lufa/LUFA-git/LUFA/Drivers/USB/Core/AVR8/../AVR8/Endpoint_AVR8.h **** 			 */
 539:../../tmk_core/protocol/lufa/LUFA-git/LUFA/Drivers/USB/Core/AVR8/../AVR8/Endpoint_AVR8.h **** 			static inline uint8_t Endpoint_Read_8(void) ATTR_WARN_UNUSED_RESULT ATTR_ALWAYS_INLINE;
 540:../../tmk_core/protocol/lufa/LUFA-git/LUFA/Drivers/USB/Core/AVR8/../AVR8/Endpoint_AVR8.h **** 			static inline uint8_t Endpoint_Read_8(void)
 541:../../tmk_core/protocol/lufa/LUFA-git/LUFA/Drivers/USB/Core/AVR8/../AVR8/Endpoint_AVR8.h **** 			{
 542:../../tmk_core/protocol/lufa/LUFA-git/LUFA/Drivers/USB/Core/AVR8/../AVR8/Endpoint_AVR8.h **** 				return UEDATX;
 543:../../tmk_core/protocol/lufa/LUFA-git/LUFA/Drivers/USB/Core/AVR8/../AVR8/Endpoint_AVR8.h **** 			}
 544:../../tmk_core/protocol/lufa/LUFA-git/LUFA/Drivers/USB/Core/AVR8/../AVR8/Endpoint_AVR8.h **** 
 545:../../tmk_core/protocol/lufa/LUFA-git/LUFA/Drivers/USB/Core/AVR8/../AVR8/Endpoint_AVR8.h **** 			/** Writes one byte to the currently selected endpoint's bank, for IN direction endpoints.
 546:../../tmk_core/protocol/lufa/LUFA-git/LUFA/Drivers/USB/Core/AVR8/../AVR8/Endpoint_AVR8.h **** 			 *
 547:../../tmk_core/protocol/lufa/LUFA-git/LUFA/Drivers/USB/Core/AVR8/../AVR8/Endpoint_AVR8.h **** 			 *  \ingroup Group_EndpointPrimitiveRW_AVR8
 548:../../tmk_core/protocol/lufa/LUFA-git/LUFA/Drivers/USB/Core/AVR8/../AVR8/Endpoint_AVR8.h **** 			 *
 549:../../tmk_core/protocol/lufa/LUFA-git/LUFA/Drivers/USB/Core/AVR8/../AVR8/Endpoint_AVR8.h **** 			 *  \param[in] Data  Data to write into the the currently selected endpoint's FIFO buffer.
 550:../../tmk_core/protocol/lufa/LUFA-git/LUFA/Drivers/USB/Core/AVR8/../AVR8/Endpoint_AVR8.h **** 			 */
 551:../../tmk_core/protocol/lufa/LUFA-git/LUFA/Drivers/USB/Core/AVR8/../AVR8/Endpoint_AVR8.h **** 			static inline void Endpoint_Write_8(const uint8_t Data) ATTR_ALWAYS_INLINE;
 552:../../tmk_core/protocol/lufa/LUFA-git/LUFA/Drivers/USB/Core/AVR8/../AVR8/Endpoint_AVR8.h **** 			static inline void Endpoint_Write_8(const uint8_t Data)
 553:../../tmk_core/protocol/lufa/LUFA-git/LUFA/Drivers/USB/Core/AVR8/../AVR8/Endpoint_AVR8.h **** 			{
 554:../../tmk_core/protocol/lufa/LUFA-git/LUFA/Drivers/USB/Core/AVR8/../AVR8/Endpoint_AVR8.h **** 				UEDATX = Data;
 180               		.loc 2 554 0
 181 0088 8093 F100 		sts 241,r24
 182               	.LBE193:
 183               	.LBE192:
 184               	.LBB194:
 185               	.LBB195:
 360:../../tmk_core/protocol/lufa/LUFA-git/LUFA/Drivers/USB/Core/AVR8/../AVR8/Endpoint_AVR8.h **** 				return ((UEINTX & (1 << RWAL)) ? true : false);
 186               		.loc 2 360 0
 187 008c 8091 E800 		lds r24,232
 188               	.LVL12:
 189               	.LBE195:
 190               	.LBE194:
 570:../../tmk_core/protocol/lufa/lufa.c ****         }
 571:../../tmk_core/protocol/lufa/lufa.c ****         _delay_ms(1);
 572:../../tmk_core/protocol/lufa/lufa.c ****     }
 573:../../tmk_core/protocol/lufa/lufa.c **** 
 574:../../tmk_core/protocol/lufa/lufa.c ****     Endpoint_Write_8(c);
 575:../../tmk_core/protocol/lufa/lufa.c **** 
 576:../../tmk_core/protocol/lufa/lufa.c ****     // send when bank is full
 577:../../tmk_core/protocol/lufa/lufa.c ****     if (!Endpoint_IsReadWriteAllowed()) {
 191               		.loc 1 577 0
 192 0090 85FD      		sbrc r24,5
 193 0092 00C0      		rjmp .L11
 194               	.L13:
 195               	.LBB196:
 196               	.LBB197:
 407:../../tmk_core/protocol/lufa/LUFA-git/LUFA/Drivers/USB/Core/AVR8/../AVR8/Endpoint_AVR8.h **** 				return ((UEINTX & (1 << TXINI)) ? true : false);
 197               		.loc 2 407 0
 198 0094 8091 E800 		lds r24,232
 199               	.LBE197:
 200               	.LBE196:
 578:../../tmk_core/protocol/lufa/lufa.c ****         while (!(Endpoint_IsINReady()));
 201               		.loc 1 578 0
 202 0098 80FF      		sbrs r24,0
 203 009a 00C0      		rjmp .L13
 204               	.LBB198:
 205               	.LBB199:
 456:../../tmk_core/protocol/lufa/LUFA-git/LUFA/Drivers/USB/Core/AVR8/../AVR8/Endpoint_AVR8.h **** 					UEINTX &= ~((1 << TXINI) | (1 << FIFOCON));
 206               		.loc 2 456 0
 207 009c 8091 E800 		lds r24,232
 208 00a0 8E77      		andi r24,lo8(126)
 209 00a2 8093 E800 		sts 232,r24
 210               	.LVL13:
 211 00a6 00C0      		rjmp .L14
 212               	.LVL14:
 213               	.L11:
 214               	.LBE199:
 215               	.LBE198:
 216               	.LBB200:
 579:../../tmk_core/protocol/lufa/lufa.c ****         Endpoint_ClearIN();
 580:../../tmk_core/protocol/lufa/lufa.c ****     } else {
 581:../../tmk_core/protocol/lufa/lufa.c ****         CONSOLE_FLUSH_SET(true);
 217               		.loc 1 581 0
 218 00a8 8FB7      		in r24,__SREG__
 219               	.LVL15:
 220               	/* #APP */
 221               	 ;  581 "../../tmk_core/protocol/lufa/lufa.c" 1
 222 00aa F894      		cli
 223               	 ;  0 "" 2
 224               	/* #NOAPP */
 225 00ac 91E0      		ldi r25,lo8(1)
 226               	.LVL16:
 227 00ae 9093 0000 		sts console_flush,r25
 228               	.LVL17:
 229 00b2 8FBF      		out __SREG__,r24
 230               	.LVL18:
 231               	.L14:
 232               	.LBE200:
 233               	.LBB201:
 234               	.LBB202:
 270:../../tmk_core/protocol/lufa/LUFA-git/LUFA/Drivers/USB/Core/AVR8/../AVR8/Endpoint_AVR8.h **** 					UENUM = (Address & ENDPOINT_EPNUM_MASK);
 235               		.loc 2 270 0
 236 00b4 2F70      		andi r18,lo8(15)
 237               	.LVL19:
 238 00b6 2093 E900 		sts 233,r18
 239               	.LBE202:
 240               	.LBE201:
 582:../../tmk_core/protocol/lufa/lufa.c ****     }
 583:../../tmk_core/protocol/lufa/lufa.c **** 
 584:../../tmk_core/protocol/lufa/lufa.c ****     Endpoint_SelectEndpoint(ep);
 585:../../tmk_core/protocol/lufa/lufa.c ****     return 0;
 241               		.loc 1 585 0
 242 00ba 80E0      		ldi r24,0
 243 00bc 0895      		ret
 244               	.LVL20:
 245               	.L9:
 246               	.LBB203:
 247               	.LBB204:
 270:../../tmk_core/protocol/lufa/LUFA-git/LUFA/Drivers/USB/Core/AVR8/../AVR8/Endpoint_AVR8.h **** 					UENUM = (Address & ENDPOINT_EPNUM_MASK);
 248               		.loc 2 270 0
 249 00be 2F70      		andi r18,lo8(15)
 250               	.LVL21:
 251 00c0 2093 E900 		sts 233,r18
 252               	.LVL22:
 253               	.L15:
 254               	.LBE204:
 255               	.LBE203:
 545:../../tmk_core/protocol/lufa/lufa.c ****         return -1;
 256               		.loc 1 545 0
 257 00c4 8FEF      		ldi r24,lo8(-1)
 586:../../tmk_core/protocol/lufa/lufa.c **** ERROR_EXIT:
 587:../../tmk_core/protocol/lufa/lufa.c ****     Endpoint_SelectEndpoint(ep);
 588:../../tmk_core/protocol/lufa/lufa.c ****     return -1;
 589:../../tmk_core/protocol/lufa/lufa.c **** }
 258               		.loc 1 589 0
 259 00c6 0895      		ret
 260               		.cfi_endproc
 261               	.LFE118:
 263               		.section	.text.send_consumer,"ax",@progbits
 265               	send_consumer:
 266               	.LFB117:
 505:../../tmk_core/protocol/lufa/lufa.c **** {
 267               		.loc 1 505 0
 268               		.cfi_startproc
 269               	.LVL23:
 270 0000 CF93      		push r28
 271               	.LCFI0:
 272               		.cfi_def_cfa_offset 3
 273               		.cfi_offset 28, -2
 274 0002 DF93      		push r29
 275               	.LCFI1:
 276               		.cfi_def_cfa_offset 4
 277               		.cfi_offset 29, -3
 278 0004 00D0      		rcall .
 279 0006 1F92      		push __zero_reg__
 280               	.LCFI2:
 281               		.cfi_def_cfa_offset 7
 282 0008 CDB7      		in r28,__SP_L__
 283 000a DEB7      		in r29,__SP_H__
 284               	.LCFI3:
 285               		.cfi_def_cfa_register 28
 286               	/* prologue: function */
 287               	/* frame size = 3 */
 288               	/* stack size = 5 */
 289               	.L__stack_usage = 5
 290               	.LVL24:
 508:../../tmk_core/protocol/lufa/lufa.c ****     if (USB_DeviceState != DEVICE_STATE_Configured)
 291               		.loc 1 508 0
 292 000c 2091 0000 		lds r18,USB_DeviceState
 293 0010 2430      		cpi r18,lo8(4)
 294 0012 01F4      		brne .L28
 511:../../tmk_core/protocol/lufa/lufa.c ****     report_extra_t r = {
 295               		.loc 1 511 0
 296 0014 23E0      		ldi r18,lo8(3)
 297 0016 2983      		std Y+1,r18
 298 0018 9B83      		std Y+3,r25
 299 001a 8A83      		std Y+2,r24
 300               	.LVL25:
 301               	.LBB205:
 302               	.LBB206:
 270:../../tmk_core/protocol/lufa/LUFA-git/LUFA/Drivers/USB/Core/AVR8/../AVR8/Endpoint_AVR8.h **** 					UENUM = (Address & ENDPOINT_EPNUM_MASK);
 303               		.loc 2 270 0
 304 001c 2093 E900 		sts 233,r18
 305               	.LVL26:
 306 0020 8FEF      		ldi r24,lo8(-1)
 307               	.LVL27:
 308               	.L30:
 309               	.LBE206:
 310               	.LBE205:
 311               	.LBB207:
 312               	.LBB208:
 360:../../tmk_core/protocol/lufa/LUFA-git/LUFA/Drivers/USB/Core/AVR8/../AVR8/Endpoint_AVR8.h **** 				return ((UEINTX & (1 << RWAL)) ? true : false);
 313               		.loc 2 360 0
 314 0022 9091 E800 		lds r25,232
 315 0026 8150      		subi r24,lo8(-(-1))
 316               	.LVL28:
 317               	.LBE208:
 318               	.LBE207:
 518:../../tmk_core/protocol/lufa/lufa.c ****     while (timeout-- && !Endpoint_IsReadWriteAllowed()) _delay_us(40);
 319               		.loc 1 518 0
 320 0028 95FD      		sbrc r25,5
 321 002a 00C0      		rjmp .L31
 322               	.LVL29:
 323               	.LBB209:
 324               	.LBB210:
 165:/usr/lib/avr/include/util/delay.h **** 
 166:/usr/lib/avr/include/util/delay.h **** #else
 167:/usr/lib/avr/include/util/delay.h **** 	__tmp = ((F_CPU) / 4e3) * __ms;
 168:/usr/lib/avr/include/util/delay.h **** 	if (__tmp < 1.0)
 169:/usr/lib/avr/include/util/delay.h **** 		__ticks = 1;
 170:/usr/lib/avr/include/util/delay.h **** 	else if (__tmp > 65535)
 171:/usr/lib/avr/include/util/delay.h **** 	{
 172:/usr/lib/avr/include/util/delay.h **** 		//	__ticks = requested delay in 1/10 ms
 173:/usr/lib/avr/include/util/delay.h **** 		__ticks = (uint16_t) (__ms * 10.0);
 174:/usr/lib/avr/include/util/delay.h **** 		while(__ticks)
 175:/usr/lib/avr/include/util/delay.h **** 		{
 176:/usr/lib/avr/include/util/delay.h **** 			// wait 1/10 ms
 177:/usr/lib/avr/include/util/delay.h **** 			_delay_loop_2(((F_CPU) / 4e3) / 10);
 178:/usr/lib/avr/include/util/delay.h **** 			__ticks --;
 179:/usr/lib/avr/include/util/delay.h **** 		}
 180:/usr/lib/avr/include/util/delay.h **** 		return;
 181:/usr/lib/avr/include/util/delay.h **** 	}
 182:/usr/lib/avr/include/util/delay.h **** 	else
 183:/usr/lib/avr/include/util/delay.h **** 		__ticks = (uint16_t)__tmp;
 184:/usr/lib/avr/include/util/delay.h **** 	_delay_loop_2(__ticks);
 185:/usr/lib/avr/include/util/delay.h **** #endif
 186:/usr/lib/avr/include/util/delay.h **** }
 187:/usr/lib/avr/include/util/delay.h **** 
 188:/usr/lib/avr/include/util/delay.h **** /**
 189:/usr/lib/avr/include/util/delay.h ****    \ingroup util_delay
 190:/usr/lib/avr/include/util/delay.h **** 
 191:/usr/lib/avr/include/util/delay.h ****    Perform a delay of \c __us microseconds, using _delay_loop_1().
 192:/usr/lib/avr/include/util/delay.h **** 
 193:/usr/lib/avr/include/util/delay.h ****    The macro F_CPU is supposed to be defined to a
 194:/usr/lib/avr/include/util/delay.h ****    constant defining the CPU clock frequency (in Hertz).
 195:/usr/lib/avr/include/util/delay.h **** 
 196:/usr/lib/avr/include/util/delay.h ****    The maximal possible delay is 768 us / F_CPU in MHz.
 197:/usr/lib/avr/include/util/delay.h **** 
 198:/usr/lib/avr/include/util/delay.h ****    If the user requests a delay greater than the maximal possible one,
 199:/usr/lib/avr/include/util/delay.h ****    _delay_us() will automatically call _delay_ms() instead.  The user
 200:/usr/lib/avr/include/util/delay.h ****    will not be informed about this case.
 201:/usr/lib/avr/include/util/delay.h **** 
 202:/usr/lib/avr/include/util/delay.h ****    If the avr-gcc toolchain has __builtin_avr_delay_cycles(unsigned long)
 203:/usr/lib/avr/include/util/delay.h ****    support, maximal possible delay is 4294967.295 us/ F_CPU in MHz. For
 204:/usr/lib/avr/include/util/delay.h ****    values greater than the maximal possible delay, overflow results in
 205:/usr/lib/avr/include/util/delay.h ****    no delay i.e., 0us.
 206:/usr/lib/avr/include/util/delay.h ****   
 207:/usr/lib/avr/include/util/delay.h ****    Conversion of __us into clock cycles may not always result in integer.
 208:/usr/lib/avr/include/util/delay.h ****    By default, the clock cycles rounded up to next integer. This ensures that
 209:/usr/lib/avr/include/util/delay.h ****    the user gets atleast __us microseconds of delay.
 210:/usr/lib/avr/include/util/delay.h **** 
 211:/usr/lib/avr/include/util/delay.h ****    Alternatively, user can define __DELAY_ROUND_DOWN__ and __DELAY_ROUND_CLOSEST__
 212:/usr/lib/avr/include/util/delay.h ****    to round down and round to closest integer.
 213:/usr/lib/avr/include/util/delay.h ****  
 214:/usr/lib/avr/include/util/delay.h ****    Note: The new implementation of _delay_us(double __us) with 
 215:/usr/lib/avr/include/util/delay.h ****     __builtin_avr_delay_cycles(unsigned long) support is not backward compatible.
 216:/usr/lib/avr/include/util/delay.h ****    User can define __DELAY_BACKWARD_COMPATIBLE__ to get a backward compatible delay.
 217:/usr/lib/avr/include/util/delay.h ****    Also, the backward compatible
 218:/usr/lib/avr/include/util/delay.h ****    algorithm will be chosen if the code is compiled in a <em>freestanding
 219:/usr/lib/avr/include/util/delay.h ****    environment</em> (GCC option \c -ffreestanding), as the math functions
 220:/usr/lib/avr/include/util/delay.h ****    required for rounding are not available to the compiler then.
 221:/usr/lib/avr/include/util/delay.h **** 
 222:/usr/lib/avr/include/util/delay.h ****  */
 223:/usr/lib/avr/include/util/delay.h **** void
 224:/usr/lib/avr/include/util/delay.h **** _delay_us(double __us)
 225:/usr/lib/avr/include/util/delay.h **** {
 226:/usr/lib/avr/include/util/delay.h **** 	uint8_t __ticks;
 227:/usr/lib/avr/include/util/delay.h **** 	double __tmp ; 
 228:/usr/lib/avr/include/util/delay.h **** #if __HAS_DELAY_CYCLES && defined(__OPTIMIZE__) && \
 229:/usr/lib/avr/include/util/delay.h ****   !defined(__DELAY_BACKWARD_COMPATIBLE__) &&	   \
 230:/usr/lib/avr/include/util/delay.h ****   __STDC_HOSTED__
 231:/usr/lib/avr/include/util/delay.h **** 	uint32_t __ticks_dc;
 232:/usr/lib/avr/include/util/delay.h **** 	extern void __builtin_avr_delay_cycles(unsigned long);
 233:/usr/lib/avr/include/util/delay.h **** 	__tmp = ((F_CPU) / 1e6) * __us;
 234:/usr/lib/avr/include/util/delay.h **** 
 235:/usr/lib/avr/include/util/delay.h **** 	#if defined(__DELAY_ROUND_DOWN__)
 236:/usr/lib/avr/include/util/delay.h **** 		__ticks_dc = (uint32_t)fabs(__tmp);
 237:/usr/lib/avr/include/util/delay.h **** 
 238:/usr/lib/avr/include/util/delay.h **** 	#elif defined(__DELAY_ROUND_CLOSEST__)
 239:/usr/lib/avr/include/util/delay.h **** 		__ticks_dc = (uint32_t)(fabs(__tmp)+0.5);
 240:/usr/lib/avr/include/util/delay.h **** 
 241:/usr/lib/avr/include/util/delay.h **** 	#else
 242:/usr/lib/avr/include/util/delay.h **** 		//round up by default
 243:/usr/lib/avr/include/util/delay.h **** 		__ticks_dc = (uint32_t)(ceil(fabs(__tmp)));
 244:/usr/lib/avr/include/util/delay.h **** 	#endif
 245:/usr/lib/avr/include/util/delay.h **** 
 246:/usr/lib/avr/include/util/delay.h **** 	__builtin_avr_delay_cycles(__ticks_dc);
 325               		.loc 3 246 0
 326 002c 95ED      		ldi r25,lo8(-43)
 327 002e 9A95      		1: dec r25
 328 0030 01F4      		brne 1b
 329 0032 0000      		nop
 330               	.LVL30:
 331               	.LBE210:
 332               	.LBE209:
 518:../../tmk_core/protocol/lufa/lufa.c ****     while (timeout-- && !Endpoint_IsReadWriteAllowed()) _delay_us(40);
 333               		.loc 1 518 0
 334 0034 8111      		cpse r24,__zero_reg__
 335 0036 00C0      		rjmp .L30
 336               	.LVL31:
 337               	.L31:
 338               	.LBB211:
 339               	.LBB212:
 360:../../tmk_core/protocol/lufa/LUFA-git/LUFA/Drivers/USB/Core/AVR8/../AVR8/Endpoint_AVR8.h **** 				return ((UEINTX & (1 << RWAL)) ? true : false);
 340               		.loc 2 360 0
 341 0038 8091 E800 		lds r24,232
 342               	.LBE212:
 343               	.LBE211:
 519:../../tmk_core/protocol/lufa/lufa.c ****     if (!Endpoint_IsReadWriteAllowed()) return;
 344               		.loc 1 519 0
 345 003c 85FF      		sbrs r24,5
 346 003e 00C0      		rjmp .L28
 521:../../tmk_core/protocol/lufa/lufa.c ****     Endpoint_Write_Stream_LE(&r, sizeof(report_extra_t), NULL);
 347               		.loc 1 521 0
 348 0040 40E0      		ldi r20,0
 349 0042 50E0      		ldi r21,0
 350 0044 63E0      		ldi r22,lo8(3)
 351 0046 70E0      		ldi r23,0
 352 0048 CE01      		movw r24,r28
 353 004a 0196      		adiw r24,1
 354 004c 0E94 0000 		call Endpoint_Write_Stream_LE
 355               	.LVL32:
 356               	.LBB213:
 357               	.LBB214:
 456:../../tmk_core/protocol/lufa/LUFA-git/LUFA/Drivers/USB/Core/AVR8/../AVR8/Endpoint_AVR8.h **** 					UEINTX &= ~((1 << TXINI) | (1 << FIFOCON));
 358               		.loc 2 456 0
 359 0050 8091 E800 		lds r24,232
 360 0054 8E77      		andi r24,lo8(126)
 361 0056 8093 E800 		sts 232,r24
 362               	.LVL33:
 363               	.L28:
 364               	/* epilogue start */
 365               	.LBE214:
 366               	.LBE213:
 523:../../tmk_core/protocol/lufa/lufa.c **** }
 367               		.loc 1 523 0
 368 005a 0F90      		pop __tmp_reg__
 369 005c 0F90      		pop __tmp_reg__
 370 005e 0F90      		pop __tmp_reg__
 371 0060 DF91      		pop r29
 372 0062 CF91      		pop r28
 373 0064 0895      		ret
 374               		.cfi_endproc
 375               	.LFE117:
 377               		.section	.text.send_system,"ax",@progbits
 379               	send_system:
 380               	.LFB116:
 484:../../tmk_core/protocol/lufa/lufa.c **** {
 381               		.loc 1 484 0
 382               		.cfi_startproc
 383               	.LVL34:
 384 0000 CF93      		push r28
 385               	.LCFI4:
 386               		.cfi_def_cfa_offset 3
 387               		.cfi_offset 28, -2
 388 0002 DF93      		push r29
 389               	.LCFI5:
 390               		.cfi_def_cfa_offset 4
 391               		.cfi_offset 29, -3
 392 0004 00D0      		rcall .
 393 0006 1F92      		push __zero_reg__
 394               	.LCFI6:
 395               		.cfi_def_cfa_offset 7
 396 0008 CDB7      		in r28,__SP_L__
 397 000a DEB7      		in r29,__SP_H__
 398               	.LCFI7:
 399               		.cfi_def_cfa_register 28
 400               	/* prologue: function */
 401               	/* frame size = 3 */
 402               	/* stack size = 5 */
 403               	.L__stack_usage = 5
 404               	.LVL35:
 487:../../tmk_core/protocol/lufa/lufa.c ****     if (USB_DeviceState != DEVICE_STATE_Configured)
 405               		.loc 1 487 0
 406 000c 2091 0000 		lds r18,USB_DeviceState
 407 0010 2430      		cpi r18,lo8(4)
 408 0012 01F4      		brne .L40
 490:../../tmk_core/protocol/lufa/lufa.c ****     report_extra_t r = {
 409               		.loc 1 490 0
 410 0014 22E0      		ldi r18,lo8(2)
 411 0016 2983      		std Y+1,r18
 412 0018 9B83      		std Y+3,r25
 413 001a 8A83      		std Y+2,r24
 414               	.LVL36:
 415               	.LBB215:
 416               	.LBB216:
 270:../../tmk_core/protocol/lufa/LUFA-git/LUFA/Drivers/USB/Core/AVR8/../AVR8/Endpoint_AVR8.h **** 					UENUM = (Address & ENDPOINT_EPNUM_MASK);
 417               		.loc 2 270 0
 418 001c 83E0      		ldi r24,lo8(3)
 419               	.LVL37:
 420 001e 8093 E900 		sts 233,r24
 421               	.LVL38:
 422 0022 8FEF      		ldi r24,lo8(-1)
 423               	.LVL39:
 424               	.L42:
 425               	.LBE216:
 426               	.LBE215:
 427               	.LBB217:
 428               	.LBB218:
 360:../../tmk_core/protocol/lufa/LUFA-git/LUFA/Drivers/USB/Core/AVR8/../AVR8/Endpoint_AVR8.h **** 				return ((UEINTX & (1 << RWAL)) ? true : false);
 429               		.loc 2 360 0
 430 0024 9091 E800 		lds r25,232
 431 0028 8150      		subi r24,lo8(-(-1))
 432               	.LVL40:
 433               	.LBE218:
 434               	.LBE217:
 497:../../tmk_core/protocol/lufa/lufa.c ****     while (timeout-- && !Endpoint_IsReadWriteAllowed()) _delay_us(40);
 435               		.loc 1 497 0
 436 002a 95FD      		sbrc r25,5
 437 002c 00C0      		rjmp .L43
 438               	.LVL41:
 439               	.LBB219:
 440               	.LBB220:
 441               		.loc 3 246 0
 442 002e 95ED      		ldi r25,lo8(-43)
 443 0030 9A95      		1: dec r25
 444 0032 01F4      		brne 1b
 445 0034 0000      		nop
 446               	.LVL42:
 447               	.LBE220:
 448               	.LBE219:
 497:../../tmk_core/protocol/lufa/lufa.c ****     while (timeout-- && !Endpoint_IsReadWriteAllowed()) _delay_us(40);
 449               		.loc 1 497 0
 450 0036 8111      		cpse r24,__zero_reg__
 451 0038 00C0      		rjmp .L42
 452               	.LVL43:
 453               	.L43:
 454               	.LBB221:
 455               	.LBB222:
 360:../../tmk_core/protocol/lufa/LUFA-git/LUFA/Drivers/USB/Core/AVR8/../AVR8/Endpoint_AVR8.h **** 				return ((UEINTX & (1 << RWAL)) ? true : false);
 456               		.loc 2 360 0
 457 003a 8091 E800 		lds r24,232
 458               	.LBE222:
 459               	.LBE221:
 498:../../tmk_core/protocol/lufa/lufa.c ****     if (!Endpoint_IsReadWriteAllowed()) return;
 460               		.loc 1 498 0
 461 003e 85FF      		sbrs r24,5
 462 0040 00C0      		rjmp .L40
 500:../../tmk_core/protocol/lufa/lufa.c ****     Endpoint_Write_Stream_LE(&r, sizeof(report_extra_t), NULL);
 463               		.loc 1 500 0
 464 0042 40E0      		ldi r20,0
 465 0044 50E0      		ldi r21,0
 466 0046 63E0      		ldi r22,lo8(3)
 467 0048 70E0      		ldi r23,0
 468 004a CE01      		movw r24,r28
 469 004c 0196      		adiw r24,1
 470 004e 0E94 0000 		call Endpoint_Write_Stream_LE
 471               	.LVL44:
 472               	.LBB223:
 473               	.LBB224:
 456:../../tmk_core/protocol/lufa/LUFA-git/LUFA/Drivers/USB/Core/AVR8/../AVR8/Endpoint_AVR8.h **** 					UEINTX &= ~((1 << TXINI) | (1 << FIFOCON));
 474               		.loc 2 456 0
 475 0052 8091 E800 		lds r24,232
 476 0056 8E77      		andi r24,lo8(126)
 477 0058 8093 E800 		sts 232,r24
 478               	.LVL45:
 479               	.L40:
 480               	/* epilogue start */
 481               	.LBE224:
 482               	.LBE223:
 502:../../tmk_core/protocol/lufa/lufa.c **** }
 483               		.loc 1 502 0
 484 005c 0F90      		pop __tmp_reg__
 485 005e 0F90      		pop __tmp_reg__
 486 0060 0F90      		pop __tmp_reg__
 487 0062 DF91      		pop r29
 488 0064 CF91      		pop r28
 489 0066 0895      		ret
 490               		.cfi_endproc
 491               	.LFE116:
 493               		.section	.text.send_mouse,"ax",@progbits
 495               	send_mouse:
 496               	.LFB115:
 461:../../tmk_core/protocol/lufa/lufa.c **** {
 497               		.loc 1 461 0
 498               		.cfi_startproc
 499               	.LVL46:
 500               	/* prologue: function */
 501               	/* frame size = 0 */
 502               	/* stack size = 0 */
 503               	.L__stack_usage = 0
 465:../../tmk_core/protocol/lufa/lufa.c ****     if (USB_DeviceState != DEVICE_STATE_Configured)
 504               		.loc 1 465 0
 505 0000 2091 0000 		lds r18,USB_DeviceState
 506 0004 2430      		cpi r18,lo8(4)
 507 0006 01F4      		brne .L52
 508               	.LVL47:
 509               	.LBB225:
 510               	.LBB226:
 270:../../tmk_core/protocol/lufa/LUFA-git/LUFA/Drivers/USB/Core/AVR8/../AVR8/Endpoint_AVR8.h **** 					UENUM = (Address & ENDPOINT_EPNUM_MASK);
 511               		.loc 2 270 0
 512 0008 22E0      		ldi r18,lo8(2)
 513 000a 2093 E900 		sts 233,r18
 514               	.LVL48:
 515 000e 2FEF      		ldi r18,lo8(-1)
 516               	.LVL49:
 517               	.L55:
 518               	.LBE226:
 519               	.LBE225:
 520               	.LBB227:
 521               	.LBB228:
 360:../../tmk_core/protocol/lufa/LUFA-git/LUFA/Drivers/USB/Core/AVR8/../AVR8/Endpoint_AVR8.h **** 				return ((UEINTX & (1 << RWAL)) ? true : false);
 522               		.loc 2 360 0
 523 0010 3091 E800 		lds r19,232
 524 0014 2150      		subi r18,lo8(-(-1))
 525               	.LVL50:
 526               	.LBE228:
 527               	.LBE227:
 472:../../tmk_core/protocol/lufa/lufa.c ****     while (timeout-- && !Endpoint_IsReadWriteAllowed()) _delay_us(40);
 528               		.loc 1 472 0
 529 0016 35FD      		sbrc r19,5
 530 0018 00C0      		rjmp .L56
 531               	.LVL51:
 532               	.LBB229:
 533               	.LBB230:
 534               		.loc 3 246 0
 535 001a 35ED      		ldi r19,lo8(-43)
 536 001c 3A95      		1: dec r19
 537 001e 01F4      		brne 1b
 538 0020 0000      		nop
 539               	.LVL52:
 540               	.LBE230:
 541               	.LBE229:
 472:../../tmk_core/protocol/lufa/lufa.c ****     while (timeout-- && !Endpoint_IsReadWriteAllowed()) _delay_us(40);
 542               		.loc 1 472 0
 543 0022 2111      		cpse r18,__zero_reg__
 544 0024 00C0      		rjmp .L55
 545               	.LVL53:
 546               	.L56:
 547               	.LBB231:
 548               	.LBB232:
 360:../../tmk_core/protocol/lufa/LUFA-git/LUFA/Drivers/USB/Core/AVR8/../AVR8/Endpoint_AVR8.h **** 				return ((UEINTX & (1 << RWAL)) ? true : false);
 549               		.loc 2 360 0
 550 0026 2091 E800 		lds r18,232
 551               	.LBE232:
 552               	.LBE231:
 473:../../tmk_core/protocol/lufa/lufa.c ****     if (!Endpoint_IsReadWriteAllowed()) return;
 553               		.loc 1 473 0
 554 002a 25FF      		sbrs r18,5
 555 002c 00C0      		rjmp .L52
 476:../../tmk_core/protocol/lufa/lufa.c ****     Endpoint_Write_Stream_LE(report, sizeof(report_mouse_t), NULL);
 556               		.loc 1 476 0
 557 002e 40E0      		ldi r20,0
 558 0030 50E0      		ldi r21,0
 559 0032 65E0      		ldi r22,lo8(5)
 560 0034 70E0      		ldi r23,0
 561 0036 0E94 0000 		call Endpoint_Write_Stream_LE
 562               	.LVL54:
 563               	.LBB233:
 564               	.LBB234:
 456:../../tmk_core/protocol/lufa/LUFA-git/LUFA/Drivers/USB/Core/AVR8/../AVR8/Endpoint_AVR8.h **** 					UEINTX &= ~((1 << TXINI) | (1 << FIFOCON));
 565               		.loc 2 456 0
 566 003a 8091 E800 		lds r24,232
 567 003e 8E77      		andi r24,lo8(126)
 568 0040 8093 E800 		sts 232,r24
 569               	.LVL55:
 570               	.L52:
 571 0044 0895      		ret
 572               	.LBE234:
 573               	.LBE233:
 574               		.cfi_endproc
 575               	.LFE115:
 577               		.section	.text.send_keyboard,"ax",@progbits
 579               	send_keyboard:
 580               	.LFB114:
 421:../../tmk_core/protocol/lufa/lufa.c **** {
 581               		.loc 1 421 0
 582               		.cfi_startproc
 583               	.LVL56:
 584 0000 CF93      		push r28
 585               	.LCFI8:
 586               		.cfi_def_cfa_offset 3
 587               		.cfi_offset 28, -2
 588 0002 DF93      		push r29
 589               	.LCFI9:
 590               		.cfi_def_cfa_offset 4
 591               		.cfi_offset 29, -3
 592               	/* prologue: function */
 593               	/* frame size = 0 */
 594               	/* stack size = 2 */
 595               	.L__stack_usage = 2
 596 0004 EC01      		movw r28,r24
 597               	.LVL57:
 424:../../tmk_core/protocol/lufa/lufa.c ****     if (USB_DeviceState != DEVICE_STATE_Configured)
 598               		.loc 1 424 0
 599 0006 8091 0000 		lds r24,USB_DeviceState
 600               	.LVL58:
 601 000a 8430      		cpi r24,lo8(4)
 602 000c 01F0      		breq .+2
 603 000e 00C0      		rjmp .L65
 429:../../tmk_core/protocol/lufa/lufa.c ****     if (keyboard_protocol && keyboard_nkro) {
 604               		.loc 1 429 0
 605 0010 8091 0000 		lds r24,keyboard_protocol
 606 0014 8823      		tst r24
 607 0016 01F0      		breq .L68
 429:../../tmk_core/protocol/lufa/lufa.c ****     if (keyboard_protocol && keyboard_nkro) {
 608               		.loc 1 429 0 is_stmt 0 discriminator 1
 609 0018 8091 0000 		lds r24,keyboard_nkro
 610 001c 8823      		tst r24
 611 001e 01F0      		breq .L68
 612               	.LVL59:
 613               	.LBB235:
 614               	.LBB236:
 270:../../tmk_core/protocol/lufa/LUFA-git/LUFA/Drivers/USB/Core/AVR8/../AVR8/Endpoint_AVR8.h **** 					UENUM = (Address & ENDPOINT_EPNUM_MASK);
 615               		.loc 2 270 0 is_stmt 1
 616 0020 85E0      		ldi r24,lo8(5)
 617 0022 8093 E900 		sts 233,r24
 618               	.LVL60:
 619 0026 8FEF      		ldi r24,lo8(-1)
 620               	.LVL61:
 621               	.L69:
 622               	.LBE236:
 623               	.LBE235:
 624               	.LBB237:
 625               	.LBB238:
 360:../../tmk_core/protocol/lufa/LUFA-git/LUFA/Drivers/USB/Core/AVR8/../AVR8/Endpoint_AVR8.h **** 				return ((UEINTX & (1 << RWAL)) ? true : false);
 626               		.loc 2 360 0
 627 0028 9091 E800 		lds r25,232
 628 002c 8150      		subi r24,lo8(-(-1))
 629               	.LVL62:
 630               	.LBE238:
 631               	.LBE237:
 434:../../tmk_core/protocol/lufa/lufa.c ****         while (timeout-- && !Endpoint_IsReadWriteAllowed()) _delay_us(4);
 632               		.loc 1 434 0
 633 002e 95FD      		sbrc r25,5
 634 0030 00C0      		rjmp .L70
 635               	.LVL63:
 636               	.LBB239:
 637               	.LBB240:
 638               		.loc 3 246 0
 639 0032 95E1      		ldi r25,lo8(21)
 640 0034 9A95      		1: dec r25
 641 0036 01F4      		brne 1b
 642 0038 0000      		nop
 643               	.LVL64:
 644               	.LBE240:
 645               	.LBE239:
 434:../../tmk_core/protocol/lufa/lufa.c ****         while (timeout-- && !Endpoint_IsReadWriteAllowed()) _delay_us(4);
 646               		.loc 1 434 0
 647 003a 8111      		cpse r24,__zero_reg__
 648 003c 00C0      		rjmp .L69
 649               	.LVL65:
 650               	.L70:
 651               	.LBB241:
 652               	.LBB242:
 360:../../tmk_core/protocol/lufa/LUFA-git/LUFA/Drivers/USB/Core/AVR8/../AVR8/Endpoint_AVR8.h **** 				return ((UEINTX & (1 << RWAL)) ? true : false);
 653               		.loc 2 360 0
 654 003e 8091 E800 		lds r24,232
 655               	.LBE242:
 656               	.LBE241:
 435:../../tmk_core/protocol/lufa/lufa.c ****         if (!Endpoint_IsReadWriteAllowed()) return;
 657               		.loc 1 435 0
 658 0042 85FF      		sbrs r24,5
 659 0044 00C0      		rjmp .L65
 438:../../tmk_core/protocol/lufa/lufa.c ****         Endpoint_Write_Stream_LE(report, NKRO_EPSIZE, NULL);
 660               		.loc 1 438 0
 661 0046 40E0      		ldi r20,0
 662 0048 50E0      		ldi r21,0
 663 004a 60E2      		ldi r22,lo8(32)
 664 004c 70E0      		ldi r23,0
 665 004e 00C0      		rjmp .L95
 666               	.LVL66:
 667               	.L68:
 668               	.LBB243:
 669               	.LBB244:
 270:../../tmk_core/protocol/lufa/LUFA-git/LUFA/Drivers/USB/Core/AVR8/../AVR8/Endpoint_AVR8.h **** 					UENUM = (Address & ENDPOINT_EPNUM_MASK);
 670               		.loc 2 270 0
 671 0050 81E0      		ldi r24,lo8(1)
 672 0052 8093 E900 		sts 233,r24
 673               	.LVL67:
 674 0056 8FEF      		ldi r24,lo8(-1)
 675               	.LVL68:
 676               	.L74:
 677               	.LBE244:
 678               	.LBE243:
 679               	.LBB245:
 680               	.LBB246:
 360:../../tmk_core/protocol/lufa/LUFA-git/LUFA/Drivers/USB/Core/AVR8/../AVR8/Endpoint_AVR8.h **** 				return ((UEINTX & (1 << RWAL)) ? true : false);
 681               		.loc 2 360 0
 682 0058 9091 E800 		lds r25,232
 683 005c 8150      		subi r24,lo8(-(-1))
 684               	.LVL69:
 685               	.LBE246:
 686               	.LBE245:
 447:../../tmk_core/protocol/lufa/lufa.c ****         while (timeout-- && !Endpoint_IsReadWriteAllowed()) _delay_us(40);
 687               		.loc 1 447 0
 688 005e 95FD      		sbrc r25,5
 689 0060 00C0      		rjmp .L75
 690               	.LVL70:
 691               	.LBB247:
 692               	.LBB248:
 693               		.loc 3 246 0
 694 0062 95ED      		ldi r25,lo8(-43)
 695 0064 9A95      		1: dec r25
 696 0066 01F4      		brne 1b
 697 0068 0000      		nop
 698               	.LVL71:
 699               	.LBE248:
 700               	.LBE247:
 447:../../tmk_core/protocol/lufa/lufa.c ****         while (timeout-- && !Endpoint_IsReadWriteAllowed()) _delay_us(40);
 701               		.loc 1 447 0
 702 006a 8111      		cpse r24,__zero_reg__
 703 006c 00C0      		rjmp .L74
 704               	.LVL72:
 705               	.L75:
 706               	.LBB249:
 707               	.LBB250:
 360:../../tmk_core/protocol/lufa/LUFA-git/LUFA/Drivers/USB/Core/AVR8/../AVR8/Endpoint_AVR8.h **** 				return ((UEINTX & (1 << RWAL)) ? true : false);
 708               		.loc 2 360 0
 709 006e 8091 E800 		lds r24,232
 710               	.LBE250:
 711               	.LBE249:
 448:../../tmk_core/protocol/lufa/lufa.c ****         if (!Endpoint_IsReadWriteAllowed()) return;
 712               		.loc 1 448 0
 713 0072 85FF      		sbrs r24,5
 714 0074 00C0      		rjmp .L65
 451:../../tmk_core/protocol/lufa/lufa.c ****         Endpoint_Write_Stream_LE(report, KEYBOARD_EPSIZE, NULL);
 715               		.loc 1 451 0
 716 0076 40E0      		ldi r20,0
 717 0078 50E0      		ldi r21,0
 718 007a 68E0      		ldi r22,lo8(8)
 719 007c 70E0      		ldi r23,0
 720               	.LVL73:
 721               	.L95:
 722 007e CE01      		movw r24,r28
 723 0080 0E94 0000 		call Endpoint_Write_Stream_LE
 724               	.LVL74:
 725               	.LBB251:
 726               	.LBB252:
 456:../../tmk_core/protocol/lufa/LUFA-git/LUFA/Drivers/USB/Core/AVR8/../AVR8/Endpoint_AVR8.h **** 					UEINTX &= ~((1 << TXINI) | (1 << FIFOCON));
 727               		.loc 2 456 0
 728 0084 8091 E800 		lds r24,232
 729 0088 8E77      		andi r24,lo8(126)
 730 008a 8093 E800 		sts 232,r24
 731               	.LBE252:
 732               	.LBE251:
 457:../../tmk_core/protocol/lufa/lufa.c ****     keyboard_report_sent = *report;
 733               		.loc 1 457 0
 734 008e 80E2      		ldi r24,lo8(32)
 735 0090 FE01      		movw r30,r28
 736 0092 A0E0      		ldi r26,lo8(keyboard_report_sent)
 737 0094 B0E0      		ldi r27,hi8(keyboard_report_sent)
 738               		0:
 739 0096 0190      		ld r0,Z+
 740 0098 0D92      		st X+,r0
 741 009a 8A95      		dec r24
 742 009c 01F4      		brne 0b
 743               	.L65:
 744               	/* epilogue start */
 458:../../tmk_core/protocol/lufa/lufa.c **** }
 745               		.loc 1 458 0
 746 009e DF91      		pop r29
 747 00a0 CF91      		pop r28
 748               	.LVL75:
 749 00a2 0895      		ret
 750               		.cfi_endproc
 751               	.LFE114:
 753               		.section	.text.EVENT_USB_Device_Connect,"ax",@progbits
 754               	.global	EVENT_USB_Device_Connect
 756               	EVENT_USB_Device_Connect:
 757               	.LFB105:
 161:../../tmk_core/protocol/lufa/lufa.c **** {
 758               		.loc 1 161 0
 759               		.cfi_startproc
 760               	/* prologue: function */
 761               	/* frame size = 0 */
 762               	/* stack size = 0 */
 763               	.L__stack_usage = 0
 162:../../tmk_core/protocol/lufa/lufa.c ****     print("[C]");
 764               		.loc 1 162 0
 765 0000 80E0      		ldi r24,lo8(__c.4752)
 766 0002 90E0      		ldi r25,hi8(__c.4752)
 767 0004 0E94 0000 		call xputs
 768               	.LVL76:
 164:../../tmk_core/protocol/lufa/lufa.c ****     if (!USB_IsInitialized) {
 769               		.loc 1 164 0
 770 0008 8091 0000 		lds r24,USB_IsInitialized
 771 000c 8111      		cpse r24,__zero_reg__
 772 000e 00C0      		rjmp .L96
 165:../../tmk_core/protocol/lufa/lufa.c ****         USB_Disable();
 773               		.loc 1 165 0
 774 0010 0E94 0000 		call USB_Disable
 775               	.LVL77:
 166:../../tmk_core/protocol/lufa/lufa.c ****         USB_Init();
 776               		.loc 1 166 0
 777 0014 0E94 0000 		call USB_Init
 778               	.LVL78:
 779               	.LBB253:
 780               	.LBB254:
 781               	.LBB255:
 782               		.file 4 "../../tmk_core/protocol/lufa/LUFA-git/LUFA/Drivers/USB/Core/AVR8/../AVR8/USBInterrupt_AVR
   1:../../tmk_core/protocol/lufa/LUFA-git/LUFA/Drivers/USB/Core/AVR8/../AVR8/USBInterrupt_AVR8.h **** /*
   2:../../tmk_core/protocol/lufa/LUFA-git/LUFA/Drivers/USB/Core/AVR8/../AVR8/USBInterrupt_AVR8.h ****              LUFA Library
   3:../../tmk_core/protocol/lufa/LUFA-git/LUFA/Drivers/USB/Core/AVR8/../AVR8/USBInterrupt_AVR8.h ****      Copyright (C) Dean Camera, 2014.
   4:../../tmk_core/protocol/lufa/LUFA-git/LUFA/Drivers/USB/Core/AVR8/../AVR8/USBInterrupt_AVR8.h **** 
   5:../../tmk_core/protocol/lufa/LUFA-git/LUFA/Drivers/USB/Core/AVR8/../AVR8/USBInterrupt_AVR8.h ****   dean [at] fourwalledcubicle [dot] com
   6:../../tmk_core/protocol/lufa/LUFA-git/LUFA/Drivers/USB/Core/AVR8/../AVR8/USBInterrupt_AVR8.h ****            www.lufa-lib.org
   7:../../tmk_core/protocol/lufa/LUFA-git/LUFA/Drivers/USB/Core/AVR8/../AVR8/USBInterrupt_AVR8.h **** */
   8:../../tmk_core/protocol/lufa/LUFA-git/LUFA/Drivers/USB/Core/AVR8/../AVR8/USBInterrupt_AVR8.h **** 
   9:../../tmk_core/protocol/lufa/LUFA-git/LUFA/Drivers/USB/Core/AVR8/../AVR8/USBInterrupt_AVR8.h **** /*
  10:../../tmk_core/protocol/lufa/LUFA-git/LUFA/Drivers/USB/Core/AVR8/../AVR8/USBInterrupt_AVR8.h ****   Copyright 2014  Dean Camera (dean [at] fourwalledcubicle [dot] com)
  11:../../tmk_core/protocol/lufa/LUFA-git/LUFA/Drivers/USB/Core/AVR8/../AVR8/USBInterrupt_AVR8.h **** 
  12:../../tmk_core/protocol/lufa/LUFA-git/LUFA/Drivers/USB/Core/AVR8/../AVR8/USBInterrupt_AVR8.h ****   Permission to use, copy, modify, distribute, and sell this
  13:../../tmk_core/protocol/lufa/LUFA-git/LUFA/Drivers/USB/Core/AVR8/../AVR8/USBInterrupt_AVR8.h ****   software and its documentation for any purpose is hereby granted
  14:../../tmk_core/protocol/lufa/LUFA-git/LUFA/Drivers/USB/Core/AVR8/../AVR8/USBInterrupt_AVR8.h ****   without fee, provided that the above copyright notice appear in
  15:../../tmk_core/protocol/lufa/LUFA-git/LUFA/Drivers/USB/Core/AVR8/../AVR8/USBInterrupt_AVR8.h ****   all copies and that both that the copyright notice and this
  16:../../tmk_core/protocol/lufa/LUFA-git/LUFA/Drivers/USB/Core/AVR8/../AVR8/USBInterrupt_AVR8.h ****   permission notice and warranty disclaimer appear in supporting
  17:../../tmk_core/protocol/lufa/LUFA-git/LUFA/Drivers/USB/Core/AVR8/../AVR8/USBInterrupt_AVR8.h ****   documentation, and that the name of the author not be used in
  18:../../tmk_core/protocol/lufa/LUFA-git/LUFA/Drivers/USB/Core/AVR8/../AVR8/USBInterrupt_AVR8.h ****   advertising or publicity pertaining to distribution of the
  19:../../tmk_core/protocol/lufa/LUFA-git/LUFA/Drivers/USB/Core/AVR8/../AVR8/USBInterrupt_AVR8.h ****   software without specific, written prior permission.
  20:../../tmk_core/protocol/lufa/LUFA-git/LUFA/Drivers/USB/Core/AVR8/../AVR8/USBInterrupt_AVR8.h **** 
  21:../../tmk_core/protocol/lufa/LUFA-git/LUFA/Drivers/USB/Core/AVR8/../AVR8/USBInterrupt_AVR8.h ****   The author disclaims all warranties with regard to this
  22:../../tmk_core/protocol/lufa/LUFA-git/LUFA/Drivers/USB/Core/AVR8/../AVR8/USBInterrupt_AVR8.h ****   software, including all implied warranties of merchantability
  23:../../tmk_core/protocol/lufa/LUFA-git/LUFA/Drivers/USB/Core/AVR8/../AVR8/USBInterrupt_AVR8.h ****   and fitness.  In no event shall the author be liable for any
  24:../../tmk_core/protocol/lufa/LUFA-git/LUFA/Drivers/USB/Core/AVR8/../AVR8/USBInterrupt_AVR8.h ****   special, indirect or consequential damages or any damages
  25:../../tmk_core/protocol/lufa/LUFA-git/LUFA/Drivers/USB/Core/AVR8/../AVR8/USBInterrupt_AVR8.h ****   whatsoever resulting from loss of use, data or profits, whether
  26:../../tmk_core/protocol/lufa/LUFA-git/LUFA/Drivers/USB/Core/AVR8/../AVR8/USBInterrupt_AVR8.h ****   in an action of contract, negligence or other tortious action,
  27:../../tmk_core/protocol/lufa/LUFA-git/LUFA/Drivers/USB/Core/AVR8/../AVR8/USBInterrupt_AVR8.h ****   arising out of or in connection with the use or performance of
  28:../../tmk_core/protocol/lufa/LUFA-git/LUFA/Drivers/USB/Core/AVR8/../AVR8/USBInterrupt_AVR8.h ****   this software.
  29:../../tmk_core/protocol/lufa/LUFA-git/LUFA/Drivers/USB/Core/AVR8/../AVR8/USBInterrupt_AVR8.h **** */
  30:../../tmk_core/protocol/lufa/LUFA-git/LUFA/Drivers/USB/Core/AVR8/../AVR8/USBInterrupt_AVR8.h **** 
  31:../../tmk_core/protocol/lufa/LUFA-git/LUFA/Drivers/USB/Core/AVR8/../AVR8/USBInterrupt_AVR8.h **** /** \file
  32:../../tmk_core/protocol/lufa/LUFA-git/LUFA/Drivers/USB/Core/AVR8/../AVR8/USBInterrupt_AVR8.h ****  *  \brief USB Controller Interrupt definitions for the AVR8 microcontrollers.
  33:../../tmk_core/protocol/lufa/LUFA-git/LUFA/Drivers/USB/Core/AVR8/../AVR8/USBInterrupt_AVR8.h ****  *
  34:../../tmk_core/protocol/lufa/LUFA-git/LUFA/Drivers/USB/Core/AVR8/../AVR8/USBInterrupt_AVR8.h ****  *  This file contains definitions required for the correct handling of low level USB service routi
  35:../../tmk_core/protocol/lufa/LUFA-git/LUFA/Drivers/USB/Core/AVR8/../AVR8/USBInterrupt_AVR8.h ****  *  from the USB controller.
  36:../../tmk_core/protocol/lufa/LUFA-git/LUFA/Drivers/USB/Core/AVR8/../AVR8/USBInterrupt_AVR8.h ****  *
  37:../../tmk_core/protocol/lufa/LUFA-git/LUFA/Drivers/USB/Core/AVR8/../AVR8/USBInterrupt_AVR8.h ****  *  \note This file should not be included directly. It is automatically included as needed by the 
  38:../../tmk_core/protocol/lufa/LUFA-git/LUFA/Drivers/USB/Core/AVR8/../AVR8/USBInterrupt_AVR8.h ****  *        dispatch header located in LUFA/Drivers/USB/USB.h.
  39:../../tmk_core/protocol/lufa/LUFA-git/LUFA/Drivers/USB/Core/AVR8/../AVR8/USBInterrupt_AVR8.h ****  */
  40:../../tmk_core/protocol/lufa/LUFA-git/LUFA/Drivers/USB/Core/AVR8/../AVR8/USBInterrupt_AVR8.h **** 
  41:../../tmk_core/protocol/lufa/LUFA-git/LUFA/Drivers/USB/Core/AVR8/../AVR8/USBInterrupt_AVR8.h **** #ifndef __USBINTERRUPT_AVR8_H__
  42:../../tmk_core/protocol/lufa/LUFA-git/LUFA/Drivers/USB/Core/AVR8/../AVR8/USBInterrupt_AVR8.h **** #define __USBINTERRUPT_AVR8_H__
  43:../../tmk_core/protocol/lufa/LUFA-git/LUFA/Drivers/USB/Core/AVR8/../AVR8/USBInterrupt_AVR8.h **** 
  44:../../tmk_core/protocol/lufa/LUFA-git/LUFA/Drivers/USB/Core/AVR8/../AVR8/USBInterrupt_AVR8.h **** 	/* Includes: */
  45:../../tmk_core/protocol/lufa/LUFA-git/LUFA/Drivers/USB/Core/AVR8/../AVR8/USBInterrupt_AVR8.h **** 		#include "../../../../Common/Common.h"
  46:../../tmk_core/protocol/lufa/LUFA-git/LUFA/Drivers/USB/Core/AVR8/../AVR8/USBInterrupt_AVR8.h **** 
  47:../../tmk_core/protocol/lufa/LUFA-git/LUFA/Drivers/USB/Core/AVR8/../AVR8/USBInterrupt_AVR8.h **** 	/* Enable C linkage for C++ Compilers: */
  48:../../tmk_core/protocol/lufa/LUFA-git/LUFA/Drivers/USB/Core/AVR8/../AVR8/USBInterrupt_AVR8.h **** 		#if defined(__cplusplus)
  49:../../tmk_core/protocol/lufa/LUFA-git/LUFA/Drivers/USB/Core/AVR8/../AVR8/USBInterrupt_AVR8.h **** 			extern "C" {
  50:../../tmk_core/protocol/lufa/LUFA-git/LUFA/Drivers/USB/Core/AVR8/../AVR8/USBInterrupt_AVR8.h **** 		#endif
  51:../../tmk_core/protocol/lufa/LUFA-git/LUFA/Drivers/USB/Core/AVR8/../AVR8/USBInterrupt_AVR8.h **** 
  52:../../tmk_core/protocol/lufa/LUFA-git/LUFA/Drivers/USB/Core/AVR8/../AVR8/USBInterrupt_AVR8.h **** 	/* Preprocessor Checks: */
  53:../../tmk_core/protocol/lufa/LUFA-git/LUFA/Drivers/USB/Core/AVR8/../AVR8/USBInterrupt_AVR8.h **** 		#if !defined(__INCLUDE_FROM_USB_DRIVER)
  54:../../tmk_core/protocol/lufa/LUFA-git/LUFA/Drivers/USB/Core/AVR8/../AVR8/USBInterrupt_AVR8.h **** 			#error Do not include this file directly. Include LUFA/Drivers/USB/USB.h instead.
  55:../../tmk_core/protocol/lufa/LUFA-git/LUFA/Drivers/USB/Core/AVR8/../AVR8/USBInterrupt_AVR8.h **** 		#endif
  56:../../tmk_core/protocol/lufa/LUFA-git/LUFA/Drivers/USB/Core/AVR8/../AVR8/USBInterrupt_AVR8.h **** 
  57:../../tmk_core/protocol/lufa/LUFA-git/LUFA/Drivers/USB/Core/AVR8/../AVR8/USBInterrupt_AVR8.h **** 	/* Private Interface - For use in library only: */
  58:../../tmk_core/protocol/lufa/LUFA-git/LUFA/Drivers/USB/Core/AVR8/../AVR8/USBInterrupt_AVR8.h **** 	#if !defined(__DOXYGEN__)
  59:../../tmk_core/protocol/lufa/LUFA-git/LUFA/Drivers/USB/Core/AVR8/../AVR8/USBInterrupt_AVR8.h **** 		/* Enums: */
  60:../../tmk_core/protocol/lufa/LUFA-git/LUFA/Drivers/USB/Core/AVR8/../AVR8/USBInterrupt_AVR8.h **** 			enum USB_Interrupts_t
  61:../../tmk_core/protocol/lufa/LUFA-git/LUFA/Drivers/USB/Core/AVR8/../AVR8/USBInterrupt_AVR8.h **** 			{
  62:../../tmk_core/protocol/lufa/LUFA-git/LUFA/Drivers/USB/Core/AVR8/../AVR8/USBInterrupt_AVR8.h **** 				#if (defined(USB_SERIES_4_AVR) || defined(USB_SERIES_6_AVR) || defined(USB_SERIES_7_AVR) || def
  63:../../tmk_core/protocol/lufa/LUFA-git/LUFA/Drivers/USB/Core/AVR8/../AVR8/USBInterrupt_AVR8.h **** 				USB_INT_VBUSTI  = 0,
  64:../../tmk_core/protocol/lufa/LUFA-git/LUFA/Drivers/USB/Core/AVR8/../AVR8/USBInterrupt_AVR8.h **** 				#endif
  65:../../tmk_core/protocol/lufa/LUFA-git/LUFA/Drivers/USB/Core/AVR8/../AVR8/USBInterrupt_AVR8.h **** 				#if (defined(USB_CAN_BE_BOTH) || defined(__DOXYGEN__))
  66:../../tmk_core/protocol/lufa/LUFA-git/LUFA/Drivers/USB/Core/AVR8/../AVR8/USBInterrupt_AVR8.h **** 				USB_INT_IDTI    = 1,
  67:../../tmk_core/protocol/lufa/LUFA-git/LUFA/Drivers/USB/Core/AVR8/../AVR8/USBInterrupt_AVR8.h **** 				#endif
  68:../../tmk_core/protocol/lufa/LUFA-git/LUFA/Drivers/USB/Core/AVR8/../AVR8/USBInterrupt_AVR8.h **** 				#if (defined(USB_CAN_BE_DEVICE) || defined(__DOXYGEN__))
  69:../../tmk_core/protocol/lufa/LUFA-git/LUFA/Drivers/USB/Core/AVR8/../AVR8/USBInterrupt_AVR8.h **** 				USB_INT_WAKEUPI = 2,
  70:../../tmk_core/protocol/lufa/LUFA-git/LUFA/Drivers/USB/Core/AVR8/../AVR8/USBInterrupt_AVR8.h **** 				USB_INT_SUSPI   = 3,
  71:../../tmk_core/protocol/lufa/LUFA-git/LUFA/Drivers/USB/Core/AVR8/../AVR8/USBInterrupt_AVR8.h **** 				USB_INT_EORSTI  = 4,
  72:../../tmk_core/protocol/lufa/LUFA-git/LUFA/Drivers/USB/Core/AVR8/../AVR8/USBInterrupt_AVR8.h **** 				USB_INT_SOFI    = 5,
  73:../../tmk_core/protocol/lufa/LUFA-git/LUFA/Drivers/USB/Core/AVR8/../AVR8/USBInterrupt_AVR8.h **** 				USB_INT_RXSTPI  = 6,
  74:../../tmk_core/protocol/lufa/LUFA-git/LUFA/Drivers/USB/Core/AVR8/../AVR8/USBInterrupt_AVR8.h **** 				#endif
  75:../../tmk_core/protocol/lufa/LUFA-git/LUFA/Drivers/USB/Core/AVR8/../AVR8/USBInterrupt_AVR8.h **** 				#if (defined(USB_CAN_BE_HOST) || defined(__DOXYGEN__))
  76:../../tmk_core/protocol/lufa/LUFA-git/LUFA/Drivers/USB/Core/AVR8/../AVR8/USBInterrupt_AVR8.h **** 				USB_INT_HSOFI   = 7,
  77:../../tmk_core/protocol/lufa/LUFA-git/LUFA/Drivers/USB/Core/AVR8/../AVR8/USBInterrupt_AVR8.h **** 				USB_INT_DCONNI  = 8,
  78:../../tmk_core/protocol/lufa/LUFA-git/LUFA/Drivers/USB/Core/AVR8/../AVR8/USBInterrupt_AVR8.h **** 				USB_INT_DDISCI  = 9,
  79:../../tmk_core/protocol/lufa/LUFA-git/LUFA/Drivers/USB/Core/AVR8/../AVR8/USBInterrupt_AVR8.h **** 				USB_INT_RSTI    = 10,
  80:../../tmk_core/protocol/lufa/LUFA-git/LUFA/Drivers/USB/Core/AVR8/../AVR8/USBInterrupt_AVR8.h **** 				USB_INT_BCERRI  = 11,
  81:../../tmk_core/protocol/lufa/LUFA-git/LUFA/Drivers/USB/Core/AVR8/../AVR8/USBInterrupt_AVR8.h **** 				USB_INT_VBERRI  = 12,
  82:../../tmk_core/protocol/lufa/LUFA-git/LUFA/Drivers/USB/Core/AVR8/../AVR8/USBInterrupt_AVR8.h **** 				USB_INT_SRPI    = 13,
  83:../../tmk_core/protocol/lufa/LUFA-git/LUFA/Drivers/USB/Core/AVR8/../AVR8/USBInterrupt_AVR8.h **** 				#endif
  84:../../tmk_core/protocol/lufa/LUFA-git/LUFA/Drivers/USB/Core/AVR8/../AVR8/USBInterrupt_AVR8.h **** 			};
  85:../../tmk_core/protocol/lufa/LUFA-git/LUFA/Drivers/USB/Core/AVR8/../AVR8/USBInterrupt_AVR8.h **** 
  86:../../tmk_core/protocol/lufa/LUFA-git/LUFA/Drivers/USB/Core/AVR8/../AVR8/USBInterrupt_AVR8.h **** 		/* Inline Functions: */
  87:../../tmk_core/protocol/lufa/LUFA-git/LUFA/Drivers/USB/Core/AVR8/../AVR8/USBInterrupt_AVR8.h **** 			static inline void USB_INT_Enable(const uint8_t Interrupt) ATTR_ALWAYS_INLINE;
  88:../../tmk_core/protocol/lufa/LUFA-git/LUFA/Drivers/USB/Core/AVR8/../AVR8/USBInterrupt_AVR8.h **** 			static inline void USB_INT_Enable(const uint8_t Interrupt)
  89:../../tmk_core/protocol/lufa/LUFA-git/LUFA/Drivers/USB/Core/AVR8/../AVR8/USBInterrupt_AVR8.h **** 			{
  90:../../tmk_core/protocol/lufa/LUFA-git/LUFA/Drivers/USB/Core/AVR8/../AVR8/USBInterrupt_AVR8.h **** 				switch (Interrupt)
  91:../../tmk_core/protocol/lufa/LUFA-git/LUFA/Drivers/USB/Core/AVR8/../AVR8/USBInterrupt_AVR8.h **** 				{
  92:../../tmk_core/protocol/lufa/LUFA-git/LUFA/Drivers/USB/Core/AVR8/../AVR8/USBInterrupt_AVR8.h **** 					#if (defined(USB_SERIES_4_AVR) || defined(USB_SERIES_6_AVR) || defined(USB_SERIES_7_AVR))
  93:../../tmk_core/protocol/lufa/LUFA-git/LUFA/Drivers/USB/Core/AVR8/../AVR8/USBInterrupt_AVR8.h **** 					case USB_INT_VBUSTI:
  94:../../tmk_core/protocol/lufa/LUFA-git/LUFA/Drivers/USB/Core/AVR8/../AVR8/USBInterrupt_AVR8.h **** 						USBCON |= (1 << VBUSTE);
  95:../../tmk_core/protocol/lufa/LUFA-git/LUFA/Drivers/USB/Core/AVR8/../AVR8/USBInterrupt_AVR8.h **** 						break;
  96:../../tmk_core/protocol/lufa/LUFA-git/LUFA/Drivers/USB/Core/AVR8/../AVR8/USBInterrupt_AVR8.h **** 					#endif
  97:../../tmk_core/protocol/lufa/LUFA-git/LUFA/Drivers/USB/Core/AVR8/../AVR8/USBInterrupt_AVR8.h **** 					#if defined(USB_CAN_BE_BOTH)
  98:../../tmk_core/protocol/lufa/LUFA-git/LUFA/Drivers/USB/Core/AVR8/../AVR8/USBInterrupt_AVR8.h **** 					case USB_INT_IDTI:
  99:../../tmk_core/protocol/lufa/LUFA-git/LUFA/Drivers/USB/Core/AVR8/../AVR8/USBInterrupt_AVR8.h **** 						USBCON |= (1 << IDTE);
 100:../../tmk_core/protocol/lufa/LUFA-git/LUFA/Drivers/USB/Core/AVR8/../AVR8/USBInterrupt_AVR8.h **** 						break;
 101:../../tmk_core/protocol/lufa/LUFA-git/LUFA/Drivers/USB/Core/AVR8/../AVR8/USBInterrupt_AVR8.h **** 					#endif
 102:../../tmk_core/protocol/lufa/LUFA-git/LUFA/Drivers/USB/Core/AVR8/../AVR8/USBInterrupt_AVR8.h **** 					#if defined(USB_CAN_BE_DEVICE)
 103:../../tmk_core/protocol/lufa/LUFA-git/LUFA/Drivers/USB/Core/AVR8/../AVR8/USBInterrupt_AVR8.h **** 					case USB_INT_WAKEUPI:
 104:../../tmk_core/protocol/lufa/LUFA-git/LUFA/Drivers/USB/Core/AVR8/../AVR8/USBInterrupt_AVR8.h **** 						UDIEN  |= (1 << WAKEUPE);
 105:../../tmk_core/protocol/lufa/LUFA-git/LUFA/Drivers/USB/Core/AVR8/../AVR8/USBInterrupt_AVR8.h **** 						break;
 106:../../tmk_core/protocol/lufa/LUFA-git/LUFA/Drivers/USB/Core/AVR8/../AVR8/USBInterrupt_AVR8.h **** 					case USB_INT_SUSPI:
 107:../../tmk_core/protocol/lufa/LUFA-git/LUFA/Drivers/USB/Core/AVR8/../AVR8/USBInterrupt_AVR8.h **** 						UDIEN  |= (1 << SUSPE);
 108:../../tmk_core/protocol/lufa/LUFA-git/LUFA/Drivers/USB/Core/AVR8/../AVR8/USBInterrupt_AVR8.h **** 						break;
 109:../../tmk_core/protocol/lufa/LUFA-git/LUFA/Drivers/USB/Core/AVR8/../AVR8/USBInterrupt_AVR8.h **** 					case USB_INT_EORSTI:
 110:../../tmk_core/protocol/lufa/LUFA-git/LUFA/Drivers/USB/Core/AVR8/../AVR8/USBInterrupt_AVR8.h **** 						UDIEN  |= (1 << EORSTE);
 111:../../tmk_core/protocol/lufa/LUFA-git/LUFA/Drivers/USB/Core/AVR8/../AVR8/USBInterrupt_AVR8.h **** 						break;
 112:../../tmk_core/protocol/lufa/LUFA-git/LUFA/Drivers/USB/Core/AVR8/../AVR8/USBInterrupt_AVR8.h **** 					case USB_INT_SOFI:
 113:../../tmk_core/protocol/lufa/LUFA-git/LUFA/Drivers/USB/Core/AVR8/../AVR8/USBInterrupt_AVR8.h **** 						UDIEN  |= (1 << SOFE);
 783               		.loc 4 113 0
 784 0018 8091 E200 		lds r24,226
 785 001c 8460      		ori r24,lo8(4)
 786 001e 8093 E200 		sts 226,r24
 787               	.LVL79:
 788               	.L96:
 789 0022 0895      		ret
 790               	.LBE255:
 791               	.LBE254:
 792               	.LBE253:
 793               		.cfi_endproc
 794               	.LFE105:
 796               		.section	.text.EVENT_USB_Device_Disconnect,"ax",@progbits
 797               	.global	EVENT_USB_Device_Disconnect
 799               	EVENT_USB_Device_Disconnect:
 800               	.LFB106:
 172:../../tmk_core/protocol/lufa/lufa.c **** {
 801               		.loc 1 172 0
 802               		.cfi_startproc
 803               	/* prologue: function */
 804               	/* frame size = 0 */
 805               	/* stack size = 0 */
 806               	.L__stack_usage = 0
 173:../../tmk_core/protocol/lufa/lufa.c ****     print("[D]");
 807               		.loc 1 173 0
 808 0000 80E0      		ldi r24,lo8(__c.4757)
 809 0002 90E0      		ldi r25,hi8(__c.4757)
 810 0004 0E94 0000 		call xputs
 811               	.LVL80:
 175:../../tmk_core/protocol/lufa/lufa.c ****     USB_IsInitialized = false;
 812               		.loc 1 175 0
 813 0008 1092 0000 		sts USB_IsInitialized,__zero_reg__
 814 000c 0895      		ret
 815               		.cfi_endproc
 816               	.LFE106:
 818               		.section	.text.EVENT_USB_Device_Reset,"ax",@progbits
 819               	.global	EVENT_USB_Device_Reset
 821               	EVENT_USB_Device_Reset:
 822               	.LFB107:
 186:../../tmk_core/protocol/lufa/lufa.c **** {
 823               		.loc 1 186 0
 824               		.cfi_startproc
 825               	/* prologue: function */
 826               	/* frame size = 0 */
 827               	/* stack size = 0 */
 828               	.L__stack_usage = 0
 829 0000 0895      		ret
 830               		.cfi_endproc
 831               	.LFE107:
 833               		.section	.text.EVENT_USB_Device_StartOfFrame,"ax",@progbits
 834               	.global	EVENT_USB_Device_StartOfFrame
 836               	EVENT_USB_Device_StartOfFrame:
 837               	.LFB110:
 216:../../tmk_core/protocol/lufa/lufa.c **** {
 838               		.loc 1 216 0
 839               		.cfi_startproc
 840               	/* prologue: function */
 841               	/* frame size = 0 */
 842               	/* stack size = 0 */
 843               	.L__stack_usage = 0
 218:../../tmk_core/protocol/lufa/lufa.c ****     if (++count % 50) return;
 844               		.loc 1 218 0
 845 0000 8091 0000 		lds r24,count.4770
 846 0004 8F5F      		subi r24,lo8(-(1))
 847 0006 8093 0000 		sts count.4770,r24
 848 000a 62E3      		ldi r22,lo8(50)
 849 000c 0E94 0000 		call __udivmodqi4
 850 0010 9111      		cpse r25,__zero_reg__
 851 0012 00C0      		rjmp .L100
 219:../../tmk_core/protocol/lufa/lufa.c ****     count = 0;
 852               		.loc 1 219 0
 853 0014 1092 0000 		sts count.4770,__zero_reg__
 221:../../tmk_core/protocol/lufa/lufa.c ****     if (!console_flush) return;
 854               		.loc 1 221 0
 855 0018 8091 0000 		lds r24,console_flush
 856 001c 8823      		tst r24
 857 001e 01F0      		breq .L100
 858               	.LBB280:
 859               	.LBB281:
  95:../../tmk_core/protocol/lufa/lufa.c ****     if (USB_DeviceState != DEVICE_STATE_Configured)
 860               		.loc 1 95 0
 861 0020 8091 0000 		lds r24,USB_DeviceState
 862 0024 8430      		cpi r24,lo8(4)
 863 0026 01F4      		brne .L104
 864               	.LBB282:
 865               	.LBB283:
 253:../../tmk_core/protocol/lufa/LUFA-git/LUFA/Drivers/USB/Core/AVR8/../AVR8/Endpoint_AVR8.h **** 					return ((UENUM & ENDPOINT_EPNUM_MASK) | Endpoint_GetEndpointDirection());
 866               		.loc 2 253 0
 867 0028 8091 E900 		lds r24,233
 868 002c 8F70      		andi r24,lo8(15)
 869               	.LBB284:
 870               	.LBB285:
 240:../../tmk_core/protocol/lufa/LUFA-git/LUFA/Drivers/USB/Core/AVR8/../AVR8/Endpoint_AVR8.h **** 				return (UECFG0X & (1 << EPDIR)) ? ENDPOINT_DIR_IN : ENDPOINT_DIR_OUT;
 871               		.loc 2 240 0
 872 002e 9091 EC00 		lds r25,236
 873 0032 90FF      		sbrs r25,0
 874 0034 00C0      		rjmp .L110
 875 0036 90E8      		ldi r25,lo8(-128)
 876 0038 00C0      		rjmp .L105
 877               	.L110:
 878 003a 90E0      		ldi r25,0
 879               	.L105:
 880               	.LBE285:
 881               	.LBE284:
 253:../../tmk_core/protocol/lufa/LUFA-git/LUFA/Drivers/USB/Core/AVR8/../AVR8/Endpoint_AVR8.h **** 					return ((UENUM & ENDPOINT_EPNUM_MASK) | Endpoint_GetEndpointDirection());
 882               		.loc 2 253 0
 883 003c 982B      		or r25,r24
 884               	.LVL81:
 885               	.LBE283:
 886               	.LBE282:
 887               	.LBB286:
 888               	.LBB287:
 270:../../tmk_core/protocol/lufa/LUFA-git/LUFA/Drivers/USB/Core/AVR8/../AVR8/Endpoint_AVR8.h **** 					UENUM = (Address & ENDPOINT_EPNUM_MASK);
 889               		.loc 2 270 0
 890 003e 84E0      		ldi r24,lo8(4)
 891 0040 8093 E900 		sts 233,r24
 892               	.LBE287:
 893               	.LBE286:
 894               	.LBB288:
 895               	.LBB289:
 313:../../tmk_core/protocol/lufa/LUFA-git/LUFA/Drivers/USB/Core/AVR8/../AVR8/Endpoint_AVR8.h **** 				return ((UECONX & (1 << EPEN)) ? true : false);
 896               		.loc 2 313 0
 897 0044 8091 EB00 		lds r24,235
 898               	.LBE289:
 899               	.LBE288:
 127:../../tmk_core/protocol/lufa/lufa.c ****     if (!Endpoint_IsEnabled() || !Endpoint_IsConfigured()) {
 900               		.loc 1 127 0
 901 0048 80FF      		sbrs r24,0
 902 004a 00C0      		rjmp .L109
 903               	.LBB290:
 904               	.LBB291:
 370:../../tmk_core/protocol/lufa/LUFA-git/LUFA/Drivers/USB/Core/AVR8/../AVR8/Endpoint_AVR8.h **** 				return ((UESTA0X & (1 << CFGOK)) ? true : false);
 905               		.loc 2 370 0
 906 004c 8091 EE00 		lds r24,238
 907               	.LBE291:
 908               	.LBE290:
 127:../../tmk_core/protocol/lufa/lufa.c ****     if (!Endpoint_IsEnabled() || !Endpoint_IsConfigured()) {
 909               		.loc 1 127 0
 910 0050 87FF      		sbrs r24,7
 911 0052 00C0      		rjmp .L109
 912               	.L107:
 913               	.LBB292:
 914               	.LBB293:
 360:../../tmk_core/protocol/lufa/LUFA-git/LUFA/Drivers/USB/Core/AVR8/../AVR8/Endpoint_AVR8.h **** 				return ((UEINTX & (1 << RWAL)) ? true : false);
 915               		.loc 2 360 0
 916 0054 8091 E800 		lds r24,232
 917               	.LBE293:
 918               	.LBE292:
 133:../../tmk_core/protocol/lufa/lufa.c ****     while (Endpoint_IsReadWriteAllowed())
 919               		.loc 1 133 0
 920 0058 85FF      		sbrs r24,5
 921 005a 00C0      		rjmp .L120
 922               	.LVL82:
 923               	.LBB294:
 924               	.LBB295:
 925               		.loc 2 554 0
 926 005c 1092 F100 		sts 241,__zero_reg__
 927 0060 00C0      		rjmp .L107
 928               	.LVL83:
 929               	.L120:
 930               	.LBE295:
 931               	.LBE294:
 932               	.LBB296:
 933               	.LBB297:
 407:../../tmk_core/protocol/lufa/LUFA-git/LUFA/Drivers/USB/Core/AVR8/../AVR8/Endpoint_AVR8.h **** 				return ((UEINTX & (1 << TXINI)) ? true : false);
 934               		.loc 2 407 0
 935 0062 8091 E800 		lds r24,232
 936               	.LBE297:
 937               	.LBE296:
 137:../../tmk_core/protocol/lufa/lufa.c ****     if (Endpoint_IsINReady()) {
 938               		.loc 1 137 0
 939 0066 80FF      		sbrs r24,0
 940 0068 00C0      		rjmp .L109
 941               	.LBB298:
 942               	.LBB299:
 456:../../tmk_core/protocol/lufa/LUFA-git/LUFA/Drivers/USB/Core/AVR8/../AVR8/Endpoint_AVR8.h **** 					UEINTX &= ~((1 << TXINI) | (1 << FIFOCON));
 943               		.loc 2 456 0
 944 006a 8091 E800 		lds r24,232
 945 006e 8E77      		andi r24,lo8(126)
 946 0070 8093 E800 		sts 232,r24
 947               	.L109:
 948               	.LVL84:
 949               	.LBE299:
 950               	.LBE298:
 951               	.LBB300:
 952               	.LBB301:
 270:../../tmk_core/protocol/lufa/LUFA-git/LUFA/Drivers/USB/Core/AVR8/../AVR8/Endpoint_AVR8.h **** 					UENUM = (Address & ENDPOINT_EPNUM_MASK);
 953               		.loc 2 270 0
 954 0074 9F70      		andi r25,lo8(15)
 955               	.LVL85:
 956 0076 9093 E900 		sts 233,r25
 957               	.LVL86:
 958               	.L104:
 959               	.LBE301:
 960               	.LBE300:
 961               	.LBE281:
 962               	.LBE280:
 223:../../tmk_core/protocol/lufa/lufa.c ****     console_flush = false;
 963               		.loc 1 223 0
 964 007a 1092 0000 		sts console_flush,__zero_reg__
 965               	.L100:
 966 007e 0895      		ret
 967               		.cfi_endproc
 968               	.LFE110:
 970               		.section	.text.EVENT_USB_Device_ConfigurationChanged,"ax",@progbits
 971               	.global	EVENT_USB_Device_ConfigurationChanged
 973               	EVENT_USB_Device_ConfigurationChanged:
 974               	.LFB111:
 234:../../tmk_core/protocol/lufa/lufa.c **** {
 975               		.loc 1 234 0
 976               		.cfi_startproc
 977               	/* prologue: function */
 978               	/* frame size = 0 */
 979               	/* stack size = 0 */
 980               	.L__stack_usage = 0
 981               	.LVL87:
 982               	.LBB302:
 983               	.LBB303:
 210:../../tmk_core/protocol/lufa/LUFA-git/LUFA/Drivers/USB/Core/AVR8/../AVR8/Endpoint_AVR8.h **** 				return Endpoint_ConfigureEndpoint_Prv(Number,
 984               		.loc 2 210 0
 985 0000 42E0      		ldi r20,lo8(2)
 986 0002 61EC      		ldi r22,lo8(-63)
 987 0004 81E0      		ldi r24,lo8(1)
 988 0006 0E94 0000 		call Endpoint_ConfigureEndpoint_Prv
 989               	.LVL88:
 990               	.LBE303:
 991               	.LBE302:
 992               	.LBB304:
 993               	.LBB305:
 994 000a 42E0      		ldi r20,lo8(2)
 995 000c 61EC      		ldi r22,lo8(-63)
 996 000e 82E0      		ldi r24,lo8(2)
 997 0010 0E94 0000 		call Endpoint_ConfigureEndpoint_Prv
 998               	.LVL89:
 999               	.LBE305:
 1000               	.LBE304:
 1001               	.LBB306:
 1002               	.LBB307:
 1003 0014 42E0      		ldi r20,lo8(2)
 1004 0016 61EC      		ldi r22,lo8(-63)
 1005 0018 83E0      		ldi r24,lo8(3)
 1006 001a 0E94 0000 		call Endpoint_ConfigureEndpoint_Prv
 1007               	.LVL90:
 1008               	.LBE307:
 1009               	.LBE306:
 1010               	.LBB308:
 1011               	.LBB309:
 1012 001e 42E2      		ldi r20,lo8(34)
 1013 0020 61EC      		ldi r22,lo8(-63)
 1014 0022 84E0      		ldi r24,lo8(4)
 1015 0024 0E94 0000 		call Endpoint_ConfigureEndpoint_Prv
 1016               	.LVL91:
 1017               	.LBE309:
 1018               	.LBE308:
 1019               	.LBB310:
 1020               	.LBB311:
 1021 0028 42E2      		ldi r20,lo8(34)
 1022 002a 61EC      		ldi r22,lo8(-63)
 1023 002c 85E0      		ldi r24,lo8(5)
 1024 002e 0C94 0000 		jmp Endpoint_ConfigureEndpoint_Prv
 1025               	.LVL92:
 1026               	.LBE311:
 1027               	.LBE310:
 1028               		.cfi_endproc
 1029               	.LFE111:
 1031               		.section	.text.EVENT_USB_Device_ControlRequest,"ax",@progbits
 1032               	.global	EVENT_USB_Device_ControlRequest
 1034               	EVENT_USB_Device_ControlRequest:
 1035               	.LFB112:
 290:../../tmk_core/protocol/lufa/lufa.c **** {
 1036               		.loc 1 290 0
 1037               		.cfi_startproc
 1038               	/* prologue: function */
 1039               	/* frame size = 0 */
 1040               	/* stack size = 0 */
 1041               	.L__stack_usage = 0
 1042               	.LVL93:
 295:../../tmk_core/protocol/lufa/lufa.c ****     switch (USB_ControlRequest.bRequest)
 1043               		.loc 1 295 0
 1044 0000 8091 0000 		lds r24,USB_ControlRequest+1
 1045 0004 8330      		cpi r24,lo8(3)
 1046 0006 01F4      		brne .+2
 1047 0008 00C0      		rjmp .L124
 1048 000a 00F4      		brsh .L125
 1049 000c 8130      		cpi r24,lo8(1)
 1050 000e 01F0      		breq .L126
 1051 0010 8230      		cpi r24,lo8(2)
 1052 0012 01F4      		brne .+2
 1053 0014 00C0      		rjmp .L127
 1054 0016 0895      		ret
 1055               	.L125:
 1056 0018 8A30      		cpi r24,lo8(10)
 1057 001a 01F4      		brne .+2
 1058 001c 00C0      		rjmp .L128
 1059 001e 8B30      		cpi r24,lo8(11)
 1060 0020 01F4      		brne .+2
 1061 0022 00C0      		rjmp .L129
 1062 0024 8930      		cpi r24,lo8(9)
 1063 0026 01F0      		breq .+2
 1064 0028 00C0      		rjmp .L122
 1065 002a 00C0      		rjmp .L154
 1066               	.L126:
 298:../../tmk_core/protocol/lufa/lufa.c ****             if (USB_ControlRequest.bmRequestType == (REQDIR_DEVICETOHOST | REQTYPE_CLASS | REQREC_I
 1067               		.loc 1 298 0
 1068 002c 8091 0000 		lds r24,USB_ControlRequest
 1069 0030 813A      		cpi r24,lo8(-95)
 1070 0032 01F0      		breq .+2
 1071 0034 00C0      		rjmp .L122
 1072               	.LBB312:
 1073               	.LBB313:
 444:../../tmk_core/protocol/lufa/LUFA-git/LUFA/Drivers/USB/Core/AVR8/../AVR8/Endpoint_AVR8.h **** 				UEINTX &= ~(1 << RXSTPI);
 1074               		.loc 2 444 0
 1075 0036 8091 E800 		lds r24,232
 1076 003a 877F      		andi r24,lo8(-9)
 1077 003c 8093 E800 		sts 232,r24
 1078               	.LBE313:
 1079               	.LBE312:
 303:../../tmk_core/protocol/lufa/lufa.c ****                 switch (USB_ControlRequest.wIndex) {
 1080               		.loc 1 303 0
 1081 0040 8091 0000 		lds r24,USB_ControlRequest+4
 1082 0044 9091 0000 		lds r25,USB_ControlRequest+4+1
 1083 0048 892B      		or r24,r25
 1084 004a 01F0      		breq .L142
 292:../../tmk_core/protocol/lufa/lufa.c ****     uint8_t  ReportSize = 0;
 1085               		.loc 1 292 0
 1086 004c 60E0      		ldi r22,0
 291:../../tmk_core/protocol/lufa/lufa.c ****     uint8_t* ReportData = NULL;
 1087               		.loc 1 291 0
 1088 004e 80E0      		ldi r24,0
 1089 0050 90E0      		ldi r25,0
 1090 0052 00C0      		rjmp .L133
 1091               	.L142:
 307:../../tmk_core/protocol/lufa/lufa.c ****                     ReportSize = sizeof(keyboard_report_sent);
 1092               		.loc 1 307 0
 1093 0054 60E2      		ldi r22,lo8(32)
 306:../../tmk_core/protocol/lufa/lufa.c ****                     ReportData = (uint8_t*)&keyboard_report_sent;
 1094               		.loc 1 306 0
 1095 0056 80E0      		ldi r24,lo8(keyboard_report_sent)
 1096 0058 90E0      		ldi r25,hi8(keyboard_report_sent)
 1097               	.L133:
 1098               	.LVL94:
 312:../../tmk_core/protocol/lufa/lufa.c ****                 Endpoint_Write_Control_Stream_LE(ReportData, ReportSize);
 1099               		.loc 1 312 0
 1100 005a 70E0      		ldi r23,0
 1101 005c 0E94 0000 		call Endpoint_Write_Control_Stream_LE
 1102               	.LVL95:
 1103               	.LBB314:
 1104               	.LBB315:
 471:../../tmk_core/protocol/lufa/LUFA-git/LUFA/Drivers/USB/Core/AVR8/../AVR8/Endpoint_AVR8.h **** 					UEINTX &= ~((1 << RXOUTI) | (1 << FIFOCON));
 1105               		.loc 2 471 0
 1106 0060 8091 E800 		lds r24,232
 1107 0064 8B77      		andi r24,lo8(123)
 1108 0066 8093 E800 		sts 232,r24
 1109 006a 0895      		ret
 1110               	.LVL96:
 1111               	.L154:
 1112               	.LBE315:
 1113               	.LBE314:
 321:../../tmk_core/protocol/lufa/lufa.c ****             if (USB_ControlRequest.bmRequestType == (REQDIR_HOSTTODEVICE | REQTYPE_CLASS | REQREC_I
 1114               		.loc 1 321 0
 1115 006c 8091 0000 		lds r24,USB_ControlRequest
 1116 0070 8132      		cpi r24,lo8(33)
 1117 0072 01F0      		breq .+2
 1118 0074 00C0      		rjmp .L122
 325:../../tmk_core/protocol/lufa/lufa.c ****                 switch (USB_ControlRequest.wIndex) {
 1119               		.loc 1 325 0
 1120 0076 8091 0000 		lds r24,USB_ControlRequest+4
 1121 007a 9091 0000 		lds r25,USB_ControlRequest+4+1
 1122 007e 0097      		sbiw r24,0
 1123 0080 01F0      		breq .L135
 1124 0082 0497      		sbiw r24,4
 1125 0084 01F0      		breq .+2
 1126 0086 00C0      		rjmp .L122
 1127               	.L135:
 1128               	.LBB316:
 1129               	.LBB317:
 444:../../tmk_core/protocol/lufa/LUFA-git/LUFA/Drivers/USB/Core/AVR8/../AVR8/Endpoint_AVR8.h **** 				UEINTX &= ~(1 << RXSTPI);
 1130               		.loc 2 444 0
 1131 0088 8091 E800 		lds r24,232
 1132 008c 877F      		andi r24,lo8(-9)
 1133 008e 8093 E800 		sts 232,r24
 1134               	.L136:
 1135               	.LBE317:
 1136               	.LBE316:
 1137               	.LBB318:
 1138               	.LBB319:
 419:../../tmk_core/protocol/lufa/LUFA-git/LUFA/Drivers/USB/Core/AVR8/../AVR8/Endpoint_AVR8.h **** 				return ((UEINTX & (1 << RXOUTI)) ? true : false);
 1139               		.loc 2 419 0 discriminator 1
 1140 0092 8091 E800 		lds r24,232
 1141               	.LBE319:
 1142               	.LBE318:
 332:../../tmk_core/protocol/lufa/lufa.c ****                     while (!(Endpoint_IsOUTReceived())) {
 1143               		.loc 1 332 0 discriminator 1
 1144 0096 82FD      		sbrc r24,2
 1145 0098 00C0      		rjmp .L155
 333:../../tmk_core/protocol/lufa/lufa.c ****                         if (USB_DeviceState == DEVICE_STATE_Unattached)
 1146               		.loc 1 333 0
 1147 009a 8091 0000 		lds r24,USB_DeviceState
 1148 009e 8111      		cpse r24,__zero_reg__
 1149 00a0 00C0      		rjmp .L136
 1150 00a2 00C0      		rjmp .L122
 1151               	.L155:
 1152               	.LBB320:
 1153               	.LBB321:
 542:../../tmk_core/protocol/lufa/LUFA-git/LUFA/Drivers/USB/Core/AVR8/../AVR8/Endpoint_AVR8.h **** 				return UEDATX;
 1154               		.loc 2 542 0
 1155 00a4 8091 F100 		lds r24,241
 1156               	.LBE321:
 1157               	.LBE320:
 336:../../tmk_core/protocol/lufa/lufa.c ****                     keyboard_led_stats = Endpoint_Read_8();
 1158               		.loc 1 336 0
 1159 00a8 8093 0000 		sts keyboard_led_stats,r24
 1160               	.LBB322:
 1161               	.LBB323:
 471:../../tmk_core/protocol/lufa/LUFA-git/LUFA/Drivers/USB/Core/AVR8/../AVR8/Endpoint_AVR8.h **** 					UEINTX &= ~((1 << RXOUTI) | (1 << FIFOCON));
 1162               		.loc 2 471 0
 1163 00ac 8091 E800 		lds r24,232
 1164 00b0 8B77      		andi r24,lo8(123)
 1165 00b2 00C0      		rjmp .L152
 1166               	.L124:
 1167               	.LBE323:
 1168               	.LBE322:
 351:../../tmk_core/protocol/lufa/lufa.c ****             if (USB_ControlRequest.bmRequestType == (REQDIR_DEVICETOHOST | REQTYPE_CLASS | REQREC_I
 1169               		.loc 1 351 0
 1170 00b4 8091 0000 		lds r24,USB_ControlRequest
 1171 00b8 813A      		cpi r24,lo8(-95)
 1172 00ba 01F0      		breq .+2
 1173 00bc 00C0      		rjmp .L122
 353:../../tmk_core/protocol/lufa/lufa.c ****                 if (USB_ControlRequest.wIndex == KEYBOARD_INTERFACE) {
 1174               		.loc 1 353 0
 1175 00be 8091 0000 		lds r24,USB_ControlRequest+4
 1176 00c2 9091 0000 		lds r25,USB_ControlRequest+4+1
 1177 00c6 892B      		or r24,r25
 1178 00c8 01F0      		breq .+2
 1179 00ca 00C0      		rjmp .L122
 1180               	.LBB324:
 1181               	.LBB325:
 444:../../tmk_core/protocol/lufa/LUFA-git/LUFA/Drivers/USB/Core/AVR8/../AVR8/Endpoint_AVR8.h **** 				UEINTX &= ~(1 << RXSTPI);
 1182               		.loc 2 444 0
 1183 00cc 8091 E800 		lds r24,232
 1184 00d0 877F      		andi r24,lo8(-9)
 1185 00d2 8093 E800 		sts 232,r24
 1186               	.L139:
 1187               	.LBE325:
 1188               	.LBE324:
 1189               	.LBB326:
 1190               	.LBB327:
 407:../../tmk_core/protocol/lufa/LUFA-git/LUFA/Drivers/USB/Core/AVR8/../AVR8/Endpoint_AVR8.h **** 				return ((UEINTX & (1 << TXINI)) ? true : false);
 1191               		.loc 2 407 0 discriminator 1
 1192 00d6 8091 E800 		lds r24,232
 1193               	.LBE327:
 1194               	.LBE326:
 355:../../tmk_core/protocol/lufa/lufa.c ****                     while (!(Endpoint_IsINReady()));
 1195               		.loc 1 355 0 discriminator 1
 1196 00da 80FF      		sbrs r24,0
 1197 00dc 00C0      		rjmp .L139
 356:../../tmk_core/protocol/lufa/lufa.c ****                     Endpoint_Write_8(keyboard_protocol);
 1198               		.loc 1 356 0
 1199 00de 8091 0000 		lds r24,keyboard_protocol
 1200               	.LVL97:
 1201 00e2 00C0      		rjmp .L153
 1202               	.LVL98:
 1203               	.L129:
 367:../../tmk_core/protocol/lufa/lufa.c ****             if (USB_ControlRequest.bmRequestType == (REQDIR_HOSTTODEVICE | REQTYPE_CLASS | REQREC_I
 1204               		.loc 1 367 0
 1205 00e4 8091 0000 		lds r24,USB_ControlRequest
 1206 00e8 8132      		cpi r24,lo8(33)
 1207 00ea 01F4      		brne .L122
 369:../../tmk_core/protocol/lufa/lufa.c ****                 if (USB_ControlRequest.wIndex == KEYBOARD_INTERFACE) {
 1208               		.loc 1 369 0
 1209 00ec 8091 0000 		lds r24,USB_ControlRequest+4
 1210 00f0 9091 0000 		lds r25,USB_ControlRequest+4+1
 1211 00f4 892B      		or r24,r25
 1212 00f6 01F4      		brne .L122
 1213               	.LBB328:
 1214               	.LBB329:
 444:../../tmk_core/protocol/lufa/LUFA-git/LUFA/Drivers/USB/Core/AVR8/../AVR8/Endpoint_AVR8.h **** 				UEINTX &= ~(1 << RXSTPI);
 1215               		.loc 2 444 0
 1216 00f8 8091 E800 		lds r24,232
 1217 00fc 877F      		andi r24,lo8(-9)
 1218 00fe 8093 E800 		sts 232,r24
 1219               	.LBE329:
 1220               	.LBE328:
 371:../../tmk_core/protocol/lufa/lufa.c ****                     Endpoint_ClearStatusStage();
 1221               		.loc 1 371 0
 1222 0102 0E94 0000 		call Endpoint_ClearStatusStage
 1223               	.LVL99:
 373:../../tmk_core/protocol/lufa/lufa.c ****                     keyboard_protocol = (USB_ControlRequest.wValue & 0xFF);
 1224               		.loc 1 373 0
 1225 0106 8091 0000 		lds r24,USB_ControlRequest+2
 1226 010a 8093 0000 		sts keyboard_protocol,r24
 374:../../tmk_core/protocol/lufa/lufa.c ****                     clear_keyboard();
 1227               		.loc 1 374 0
 1228 010e 0C94 0000 		jmp clear_keyboard
 1229               	.LVL100:
 1230               	.L128:
 383:../../tmk_core/protocol/lufa/lufa.c ****             if (USB_ControlRequest.bmRequestType == (REQDIR_HOSTTODEVICE | REQTYPE_CLASS | REQREC_I
 1231               		.loc 1 383 0
 1232 0112 8091 0000 		lds r24,USB_ControlRequest
 1233 0116 8132      		cpi r24,lo8(33)
 1234 0118 01F4      		brne .L122
 1235               	.LBB330:
 1236               	.LBB331:
 444:../../tmk_core/protocol/lufa/LUFA-git/LUFA/Drivers/USB/Core/AVR8/../AVR8/Endpoint_AVR8.h **** 				UEINTX &= ~(1 << RXSTPI);
 1237               		.loc 2 444 0
 1238 011a 8091 E800 		lds r24,232
 1239 011e 877F      		andi r24,lo8(-9)
 1240 0120 8093 E800 		sts 232,r24
 1241               	.LBE331:
 1242               	.LBE330:
 386:../../tmk_core/protocol/lufa/lufa.c ****                 Endpoint_ClearStatusStage();
 1243               		.loc 1 386 0
 1244 0124 0E94 0000 		call Endpoint_ClearStatusStage
 1245               	.LVL101:
 388:../../tmk_core/protocol/lufa/lufa.c ****                 keyboard_idle = ((USB_ControlRequest.wValue & 0xFF00) >> 8);
 1246               		.loc 1 388 0
 1247 0128 8091 0000 		lds r24,USB_ControlRequest+3
 1248 012c 8093 0000 		sts keyboard_idle,r24
 1249 0130 0895      		ret
 1250               	.L127:
 396:../../tmk_core/protocol/lufa/lufa.c ****             if (USB_ControlRequest.bmRequestType == (REQDIR_DEVICETOHOST | REQTYPE_CLASS | REQREC_I
 1251               		.loc 1 396 0
 1252 0132 8091 0000 		lds r24,USB_ControlRequest
 1253 0136 813A      		cpi r24,lo8(-95)
 1254 0138 01F4      		brne .L122
 1255               	.LBB332:
 1256               	.LBB333:
 444:../../tmk_core/protocol/lufa/LUFA-git/LUFA/Drivers/USB/Core/AVR8/../AVR8/Endpoint_AVR8.h **** 				UEINTX &= ~(1 << RXSTPI);
 1257               		.loc 2 444 0
 1258 013a 8091 E800 		lds r24,232
 1259 013e 877F      		andi r24,lo8(-9)
 1260 0140 8093 E800 		sts 232,r24
 1261               	.L141:
 1262               	.LBE333:
 1263               	.LBE332:
 1264               	.LBB334:
 1265               	.LBB335:
 407:../../tmk_core/protocol/lufa/LUFA-git/LUFA/Drivers/USB/Core/AVR8/../AVR8/Endpoint_AVR8.h **** 				return ((UEINTX & (1 << TXINI)) ? true : false);
 1266               		.loc 2 407 0 discriminator 1
 1267 0144 8091 E800 		lds r24,232
 1268               	.LBE335:
 1269               	.LBE334:
 399:../../tmk_core/protocol/lufa/lufa.c ****                 while (!(Endpoint_IsINReady()));
 1270               		.loc 1 399 0 discriminator 1
 1271 0148 80FF      		sbrs r24,0
 1272 014a 00C0      		rjmp .L141
 400:../../tmk_core/protocol/lufa/lufa.c ****                 Endpoint_Write_8(keyboard_idle);
 1273               		.loc 1 400 0
 1274 014c 8091 0000 		lds r24,keyboard_idle
 1275               	.L153:
 1276               	.LVL102:
 1277               	.LBB336:
 1278               	.LBB337:
 1279               		.loc 2 554 0
 1280 0150 8093 F100 		sts 241,r24
 1281               	.LBE337:
 1282               	.LBE336:
 1283               	.LBB338:
 1284               	.LBB339:
 456:../../tmk_core/protocol/lufa/LUFA-git/LUFA/Drivers/USB/Core/AVR8/../AVR8/Endpoint_AVR8.h **** 					UEINTX &= ~((1 << TXINI) | (1 << FIFOCON));
 1285               		.loc 2 456 0
 1286 0154 8091 E800 		lds r24,232
 1287               	.LVL103:
 1288 0158 8E77      		andi r24,lo8(126)
 1289               	.LVL104:
 1290               	.L152:
 1291 015a 8093 E800 		sts 232,r24
 1292               	.LBE339:
 1293               	.LBE338:
 402:../../tmk_core/protocol/lufa/lufa.c ****                 Endpoint_ClearStatusStage();
 1294               		.loc 1 402 0
 1295 015e 0C94 0000 		jmp Endpoint_ClearStatusStage
 1296               	.LVL105:
 1297               	.L122:
 1298 0162 0895      		ret
 1299               		.cfi_endproc
 1300               	.LFE112:
 1302               		.section	.text.hook_early_init,"ax",@progbits
 1303               		.weak	hook_early_init
 1305               	hook_early_init:
 1306               	.LFB122:
 590:../../tmk_core/protocol/lufa/lufa.c **** #else
 591:../../tmk_core/protocol/lufa/lufa.c **** int8_t sendchar(uint8_t c)
 592:../../tmk_core/protocol/lufa/lufa.c **** {
 593:../../tmk_core/protocol/lufa/lufa.c **** #ifdef LUFA_DEBUG_SUART
 594:../../tmk_core/protocol/lufa/lufa.c ****     xmit(c);
 595:../../tmk_core/protocol/lufa/lufa.c **** #endif
 596:../../tmk_core/protocol/lufa/lufa.c ****     return 0;
 597:../../tmk_core/protocol/lufa/lufa.c **** }
 598:../../tmk_core/protocol/lufa/lufa.c **** #endif
 599:../../tmk_core/protocol/lufa/lufa.c **** 
 600:../../tmk_core/protocol/lufa/lufa.c **** 
 601:../../tmk_core/protocol/lufa/lufa.c **** /*******************************************************************************
 602:../../tmk_core/protocol/lufa/lufa.c ****  * main
 603:../../tmk_core/protocol/lufa/lufa.c ****  ******************************************************************************/
 604:../../tmk_core/protocol/lufa/lufa.c **** static void setup_mcu(void)
 605:../../tmk_core/protocol/lufa/lufa.c **** {
 606:../../tmk_core/protocol/lufa/lufa.c ****     /* Disable watchdog if enabled by bootloader/fuses */
 607:../../tmk_core/protocol/lufa/lufa.c ****     MCUSR &= ~(1 << WDRF);
 608:../../tmk_core/protocol/lufa/lufa.c ****     wdt_disable();
 609:../../tmk_core/protocol/lufa/lufa.c **** 
 610:../../tmk_core/protocol/lufa/lufa.c ****     /* Disable clock division */
 611:../../tmk_core/protocol/lufa/lufa.c ****     clock_prescale_set(clock_div_1);
 612:../../tmk_core/protocol/lufa/lufa.c **** }
 613:../../tmk_core/protocol/lufa/lufa.c **** 
 614:../../tmk_core/protocol/lufa/lufa.c **** static void setup_usb(void)
 615:../../tmk_core/protocol/lufa/lufa.c **** {
 616:../../tmk_core/protocol/lufa/lufa.c ****     // Leonardo needs. Without this USB device is not recognized.
 617:../../tmk_core/protocol/lufa/lufa.c ****     USB_Disable();
 618:../../tmk_core/protocol/lufa/lufa.c **** 
 619:../../tmk_core/protocol/lufa/lufa.c ****     USB_Init();
 620:../../tmk_core/protocol/lufa/lufa.c **** 
 621:../../tmk_core/protocol/lufa/lufa.c ****     // for Console_Task
 622:../../tmk_core/protocol/lufa/lufa.c ****     USB_Device_EnableSOFEvents();
 623:../../tmk_core/protocol/lufa/lufa.c **** }
 624:../../tmk_core/protocol/lufa/lufa.c **** 
 625:../../tmk_core/protocol/lufa/lufa.c **** int main(void)  __attribute__ ((weak));
 626:../../tmk_core/protocol/lufa/lufa.c **** int main(void)
 627:../../tmk_core/protocol/lufa/lufa.c **** {
 628:../../tmk_core/protocol/lufa/lufa.c ****     setup_mcu();
 629:../../tmk_core/protocol/lufa/lufa.c **** 
 630:../../tmk_core/protocol/lufa/lufa.c **** #ifdef LUFA_DEBUG_SUART
 631:../../tmk_core/protocol/lufa/lufa.c ****     SUART_OUT_DDR |= (1<<SUART_OUT_BIT);
 632:../../tmk_core/protocol/lufa/lufa.c ****     SUART_OUT_PORT |= (1<<SUART_OUT_BIT);
 633:../../tmk_core/protocol/lufa/lufa.c **** #endif
 634:../../tmk_core/protocol/lufa/lufa.c ****     print_set_sendchar(sendchar);
 635:../../tmk_core/protocol/lufa/lufa.c ****     print("\r\ninit\n");
 636:../../tmk_core/protocol/lufa/lufa.c **** 
 637:../../tmk_core/protocol/lufa/lufa.c ****     hook_early_init();
 638:../../tmk_core/protocol/lufa/lufa.c ****     keyboard_setup();
 639:../../tmk_core/protocol/lufa/lufa.c ****     setup_usb();
 640:../../tmk_core/protocol/lufa/lufa.c ****     sei();
 641:../../tmk_core/protocol/lufa/lufa.c **** 
 642:../../tmk_core/protocol/lufa/lufa.c ****     /* wait for USB startup & debug output */
 643:../../tmk_core/protocol/lufa/lufa.c ****     while (USB_DeviceState != DEVICE_STATE_Configured) {
 644:../../tmk_core/protocol/lufa/lufa.c **** #if defined(INTERRUPT_CONTROL_ENDPOINT)
 645:../../tmk_core/protocol/lufa/lufa.c ****         ;
 646:../../tmk_core/protocol/lufa/lufa.c **** #else
 647:../../tmk_core/protocol/lufa/lufa.c ****         USB_USBTask();
 648:../../tmk_core/protocol/lufa/lufa.c **** #endif
 649:../../tmk_core/protocol/lufa/lufa.c ****     }
 650:../../tmk_core/protocol/lufa/lufa.c ****     print("USB configured.\n");
 651:../../tmk_core/protocol/lufa/lufa.c **** 
 652:../../tmk_core/protocol/lufa/lufa.c ****     /* init modules */
 653:../../tmk_core/protocol/lufa/lufa.c ****     keyboard_init();
 654:../../tmk_core/protocol/lufa/lufa.c ****     host_set_driver(&lufa_driver);
 655:../../tmk_core/protocol/lufa/lufa.c **** #ifdef SLEEP_LED_ENABLE
 656:../../tmk_core/protocol/lufa/lufa.c ****     sleep_led_init();
 657:../../tmk_core/protocol/lufa/lufa.c **** #endif
 658:../../tmk_core/protocol/lufa/lufa.c **** 
 659:../../tmk_core/protocol/lufa/lufa.c ****     print("Keyboard start.\n");
 660:../../tmk_core/protocol/lufa/lufa.c ****     hook_late_init();
 661:../../tmk_core/protocol/lufa/lufa.c ****     while (1) {
 662:../../tmk_core/protocol/lufa/lufa.c ****         while (USB_DeviceState == DEVICE_STATE_Suspended) {
 663:../../tmk_core/protocol/lufa/lufa.c **** #ifdef LUFA_DEBUG
 664:../../tmk_core/protocol/lufa/lufa.c ****             print("[s]");
 665:../../tmk_core/protocol/lufa/lufa.c **** #endif
 666:../../tmk_core/protocol/lufa/lufa.c ****             hook_usb_suspend_loop();
 667:../../tmk_core/protocol/lufa/lufa.c ****         }
 668:../../tmk_core/protocol/lufa/lufa.c **** 
 669:../../tmk_core/protocol/lufa/lufa.c ****         keyboard_task();
 670:../../tmk_core/protocol/lufa/lufa.c **** 
 671:../../tmk_core/protocol/lufa/lufa.c **** #if !defined(INTERRUPT_CONTROL_ENDPOINT)
 672:../../tmk_core/protocol/lufa/lufa.c ****         USB_USBTask();
 673:../../tmk_core/protocol/lufa/lufa.c **** #endif
 674:../../tmk_core/protocol/lufa/lufa.c ****     }
 675:../../tmk_core/protocol/lufa/lufa.c **** }
 676:../../tmk_core/protocol/lufa/lufa.c **** 
 677:../../tmk_core/protocol/lufa/lufa.c **** 
 678:../../tmk_core/protocol/lufa/lufa.c **** /* hooks */
 679:../../tmk_core/protocol/lufa/lufa.c **** __attribute__((weak))
 680:../../tmk_core/protocol/lufa/lufa.c **** void hook_early_init(void) {}
 1307               		.loc 1 680 0
 1308               		.cfi_startproc
 1309               	/* prologue: function */
 1310               	/* frame size = 0 */
 1311               	/* stack size = 0 */
 1312               	.L__stack_usage = 0
 1313 0000 0895      		ret
 1314               		.cfi_endproc
 1315               	.LFE122:
 1317               		.section	.text.hook_late_init,"ax",@progbits
 1318               		.weak	hook_late_init
 1320               	hook_late_init:
 1321               	.LFB123:
 681:../../tmk_core/protocol/lufa/lufa.c **** 
 682:../../tmk_core/protocol/lufa/lufa.c **** __attribute__((weak))
 683:../../tmk_core/protocol/lufa/lufa.c **** void hook_late_init(void) {}
 1322               		.loc 1 683 0
 1323               		.cfi_startproc
 1324               	/* prologue: function */
 1325               	/* frame size = 0 */
 1326               	/* stack size = 0 */
 1327               	.L__stack_usage = 0
 1328 0000 0895      		ret
 1329               		.cfi_endproc
 1330               	.LFE123:
 1332               		.section	.text.hook_usb_suspend_entry,"ax",@progbits
 1333               		.weak	hook_usb_suspend_entry
 1335               	hook_usb_suspend_entry:
 1336               	.LFB124:
 684:../../tmk_core/protocol/lufa/lufa.c **** 
 685:../../tmk_core/protocol/lufa/lufa.c **** static uint8_t _led_stats = 0;
 686:../../tmk_core/protocol/lufa/lufa.c ****  __attribute__((weak))
 687:../../tmk_core/protocol/lufa/lufa.c **** void hook_usb_suspend_entry(void)
 688:../../tmk_core/protocol/lufa/lufa.c **** {
 1337               		.loc 1 688 0
 1338               		.cfi_startproc
 1339               	/* prologue: function */
 1340               	/* frame size = 0 */
 1341               	/* stack size = 0 */
 1342               	.L__stack_usage = 0
 689:../../tmk_core/protocol/lufa/lufa.c ****     // Turn LED off to save power
 690:../../tmk_core/protocol/lufa/lufa.c ****     // Set 0 with putting aside status before suspend and restore
 691:../../tmk_core/protocol/lufa/lufa.c ****     // it after wakeup, then LED is updated at keyboard_task() in main loop
 692:../../tmk_core/protocol/lufa/lufa.c ****     _led_stats = keyboard_led_stats;
 1343               		.loc 1 692 0
 1344 0000 8091 0000 		lds r24,keyboard_led_stats
 1345 0004 8093 0000 		sts _led_stats,r24
 693:../../tmk_core/protocol/lufa/lufa.c ****     keyboard_led_stats = 0;
 1346               		.loc 1 693 0
 1347 0008 1092 0000 		sts keyboard_led_stats,__zero_reg__
 694:../../tmk_core/protocol/lufa/lufa.c ****     led_set(keyboard_led_stats);
 1348               		.loc 1 694 0
 1349 000c 80E0      		ldi r24,0
 1350 000e 0E94 0000 		call led_set
 1351               	.LVL106:
 695:../../tmk_core/protocol/lufa/lufa.c **** 
 696:../../tmk_core/protocol/lufa/lufa.c ****     matrix_clear();
 1352               		.loc 1 696 0
 1353 0012 0E94 0000 		call matrix_clear
 1354               	.LVL107:
 697:../../tmk_core/protocol/lufa/lufa.c ****     clear_keyboard();
 1355               		.loc 1 697 0
 1356 0016 0C94 0000 		jmp clear_keyboard
 1357               	.LVL108:
 1358               		.cfi_endproc
 1359               	.LFE124:
 1361               		.section	.text.EVENT_USB_Device_Suspend,"ax",@progbits
 1362               	.global	EVENT_USB_Device_Suspend
 1364               	EVENT_USB_Device_Suspend:
 1365               	.LFB108:
 193:../../tmk_core/protocol/lufa/lufa.c **** {
 1366               		.loc 1 193 0
 1367               		.cfi_startproc
 1368               	/* prologue: function */
 1369               	/* frame size = 0 */
 1370               	/* stack size = 0 */
 1371               	.L__stack_usage = 0
 197:../../tmk_core/protocol/lufa/lufa.c ****     hook_usb_suspend_entry();
 1372               		.loc 1 197 0
 1373 0000 0C94 0000 		jmp hook_usb_suspend_entry
 1374               	.LVL109:
 1375               		.cfi_endproc
 1376               	.LFE108:
 1378               		.section	.text.hook_usb_suspend_loop,"ax",@progbits
 1379               		.weak	hook_usb_suspend_loop
 1381               	hook_usb_suspend_loop:
 1382               	.LFB125:
 698:../../tmk_core/protocol/lufa/lufa.c **** #ifdef SLEEP_LED_ENABLE
 699:../../tmk_core/protocol/lufa/lufa.c ****     sleep_led_enable();
 700:../../tmk_core/protocol/lufa/lufa.c **** #endif
 701:../../tmk_core/protocol/lufa/lufa.c **** }
 702:../../tmk_core/protocol/lufa/lufa.c **** 
 703:../../tmk_core/protocol/lufa/lufa.c **** __attribute__((weak))
 704:../../tmk_core/protocol/lufa/lufa.c **** void hook_usb_suspend_loop(void)
 705:../../tmk_core/protocol/lufa/lufa.c **** {
 1383               		.loc 1 705 0
 1384               		.cfi_startproc
 1385               	/* prologue: function */
 1386               	/* frame size = 0 */
 1387               	/* stack size = 0 */
 1388               	.L__stack_usage = 0
 706:../../tmk_core/protocol/lufa/lufa.c ****     suspend_power_down();
 1389               		.loc 1 706 0
 1390 0000 0E94 0000 		call suspend_power_down
 1391               	.LVL110:
 707:../../tmk_core/protocol/lufa/lufa.c ****     if (USB_Device_RemoteWakeupEnabled && suspend_wakeup_condition()) {
 1392               		.loc 1 707 0
 1393 0004 8091 0000 		lds r24,USB_Device_RemoteWakeupEnabled
 1394 0008 8823      		tst r24
 1395 000a 01F0      		breq .L160
 1396               		.loc 1 707 0 is_stmt 0 discriminator 1
 1397 000c 0E94 0000 		call suspend_wakeup_condition
 1398               	.LVL111:
 1399 0010 8111      		cpse r24,__zero_reg__
 708:../../tmk_core/protocol/lufa/lufa.c ****         USB_Device_SendRemoteWakeup();
 1400               		.loc 1 708 0 is_stmt 1
 1401 0012 0C94 0000 		jmp USB_Device_SendRemoteWakeup
 1402               	.LVL112:
 1403               	.L160:
 1404 0016 0895      		ret
 1405               		.cfi_endproc
 1406               	.LFE125:
 1408               		.section	.text.startup.main,"ax",@progbits
 1409               		.weak	main
 1411               	main:
 1412               	.LFB121:
 627:../../tmk_core/protocol/lufa/lufa.c **** {
 1413               		.loc 1 627 0
 1414               		.cfi_startproc
 1415               	/* prologue: function */
 1416               	/* frame size = 0 */
 1417               	/* stack size = 0 */
 1418               	.L__stack_usage = 0
 1419               	.LBB352:
 1420               	.LBB353:
 607:../../tmk_core/protocol/lufa/lufa.c ****     MCUSR &= ~(1 << WDRF);
 1421               		.loc 1 607 0
 1422 0000 84B7      		in r24,0x34
 1423 0002 877F      		andi r24,lo8(-9)
 1424 0004 84BF      		out 0x34,r24
 608:../../tmk_core/protocol/lufa/lufa.c ****     wdt_disable();
 1425               		.loc 1 608 0
 1426 0006 88E1      		ldi r24,lo8(24)
 1427               	/* #APP */
 1428               	 ;  608 "../../tmk_core/protocol/lufa/lufa.c" 1
 1429 0008 0FB6      		in __tmp_reg__, __SREG__
 1430 000a F894      		cli
 1431 000c 8093 6000 		sts 96, r24
 1432 0010 1092 6000 		sts 96, __zero_reg__
 1433 0014 0FBE      		out __SREG__,__tmp_reg__
 1434               		
 1435               	 ;  0 "" 2
 1436               	.LVL113:
 1437               	/* #NOAPP */
 1438               	.LBB354:
 1439               	.LBB355:
 1440               		.file 5 "/usr/lib/avr/include/avr/power.h"
   1:/usr/lib/avr/include/avr/power.h **** /* Copyright (c) 2006, 2007, 2008  Eric B. Weddington
   2:/usr/lib/avr/include/avr/power.h ****    All rights reserved.
   3:/usr/lib/avr/include/avr/power.h **** 
   4:/usr/lib/avr/include/avr/power.h ****    Redistribution and use in source and binary forms, with or without
   5:/usr/lib/avr/include/avr/power.h ****    modification, are permitted provided that the following conditions are met:
   6:/usr/lib/avr/include/avr/power.h **** 
   7:/usr/lib/avr/include/avr/power.h ****    * Redistributions of source code must retain the above copyright
   8:/usr/lib/avr/include/avr/power.h ****      notice, this list of conditions and the following disclaimer.
   9:/usr/lib/avr/include/avr/power.h ****    * Redistributions in binary form must reproduce the above copyright
  10:/usr/lib/avr/include/avr/power.h ****      notice, this list of conditions and the following disclaimer in
  11:/usr/lib/avr/include/avr/power.h ****      the documentation and/or other materials provided with the
  12:/usr/lib/avr/include/avr/power.h ****      distribution.
  13:/usr/lib/avr/include/avr/power.h ****    * Neither the name of the copyright holders nor the names of
  14:/usr/lib/avr/include/avr/power.h ****      contributors may be used to endorse or promote products derived
  15:/usr/lib/avr/include/avr/power.h ****      from this software without specific prior written permission.
  16:/usr/lib/avr/include/avr/power.h **** 
  17:/usr/lib/avr/include/avr/power.h ****   THIS SOFTWARE IS PROVIDED BY THE COPYRIGHT HOLDERS AND CONTRIBUTORS "AS IS"
  18:/usr/lib/avr/include/avr/power.h ****   AND ANY EXPRESS OR IMPLIED WARRANTIES, INCLUDING, BUT NOT LIMITED TO, THE
  19:/usr/lib/avr/include/avr/power.h ****   IMPLIED WARRANTIES OF MERCHANTABILITY AND FITNESS FOR A PARTICULAR PURPOSE
  20:/usr/lib/avr/include/avr/power.h ****   ARE DISCLAIMED. IN NO EVENT SHALL THE COPYRIGHT OWNER OR CONTRIBUTORS BE
  21:/usr/lib/avr/include/avr/power.h ****   LIABLE FOR ANY DIRECT, INDIRECT, INCIDENTAL, SPECIAL, EXEMPLARY, OR
  22:/usr/lib/avr/include/avr/power.h ****   CONSEQUENTIAL DAMAGES (INCLUDING, BUT NOT LIMITED TO, PROCUREMENT OF
  23:/usr/lib/avr/include/avr/power.h ****   SUBSTITUTE GOODS OR SERVICES; LOSS OF USE, DATA, OR PROFITS; OR BUSINESS
  24:/usr/lib/avr/include/avr/power.h ****   INTERRUPTION) HOWEVER CAUSED AND ON ANY THEORY OF LIABILITY, WHETHER IN
  25:/usr/lib/avr/include/avr/power.h ****   CONTRACT, STRICT LIABILITY, OR TORT (INCLUDING NEGLIGENCE OR OTHERWISE)
  26:/usr/lib/avr/include/avr/power.h ****   ARISING IN ANY WAY OUT OF THE USE OF THIS SOFTWARE, EVEN IF ADVISED OF THE
  27:/usr/lib/avr/include/avr/power.h ****   POSSIBILITY OF SUCH DAMAGE. */
  28:/usr/lib/avr/include/avr/power.h **** 
  29:/usr/lib/avr/include/avr/power.h **** /* $Id: power.h 2254 2011-09-26 15:06:50Z arcanum $ */
  30:/usr/lib/avr/include/avr/power.h **** 
  31:/usr/lib/avr/include/avr/power.h **** #ifndef _AVR_POWER_H_
  32:/usr/lib/avr/include/avr/power.h **** #define _AVR_POWER_H_   1
  33:/usr/lib/avr/include/avr/power.h **** 
  34:/usr/lib/avr/include/avr/power.h **** #include <avr/io.h>
  35:/usr/lib/avr/include/avr/power.h **** #include <stdint.h>
  36:/usr/lib/avr/include/avr/power.h **** 
  37:/usr/lib/avr/include/avr/power.h **** 
  38:/usr/lib/avr/include/avr/power.h **** /** \file */
  39:/usr/lib/avr/include/avr/power.h **** /** \defgroup avr_power <avr/power.h>: Power Reduction Management
  40:/usr/lib/avr/include/avr/power.h **** 
  41:/usr/lib/avr/include/avr/power.h **** \code #include <avr/power.h>\endcode
  42:/usr/lib/avr/include/avr/power.h **** 
  43:/usr/lib/avr/include/avr/power.h **** Many AVRs contain a Power Reduction Register (PRR) or Registers (PRRx) that 
  44:/usr/lib/avr/include/avr/power.h **** allow you to reduce power consumption by disabling or enabling various on-board 
  45:/usr/lib/avr/include/avr/power.h **** peripherals as needed.
  46:/usr/lib/avr/include/avr/power.h **** 
  47:/usr/lib/avr/include/avr/power.h **** There are many macros in this header file that provide an easy interface
  48:/usr/lib/avr/include/avr/power.h **** to enable or disable on-board peripherals to reduce power. See the table below.
  49:/usr/lib/avr/include/avr/power.h **** 
  50:/usr/lib/avr/include/avr/power.h **** \note Not all AVR devices have a Power Reduction Register (for example
  51:/usr/lib/avr/include/avr/power.h **** the ATmega128). On those devices without a Power Reduction Register, these 
  52:/usr/lib/avr/include/avr/power.h **** macros are not available.
  53:/usr/lib/avr/include/avr/power.h **** 
  54:/usr/lib/avr/include/avr/power.h **** \note Not all AVR devices contain the same peripherals (for example, the LCD
  55:/usr/lib/avr/include/avr/power.h **** interface), or they will be named differently (for example, USART and 
  56:/usr/lib/avr/include/avr/power.h **** USART0). Please consult your device's datasheet, or the header file, to 
  57:/usr/lib/avr/include/avr/power.h **** find out which macros are applicable to your device.
  58:/usr/lib/avr/include/avr/power.h **** 
  59:/usr/lib/avr/include/avr/power.h **** */
  60:/usr/lib/avr/include/avr/power.h **** 
  61:/usr/lib/avr/include/avr/power.h **** 
  62:/usr/lib/avr/include/avr/power.h **** /** \addtogroup avr_power
  63:/usr/lib/avr/include/avr/power.h **** 
  64:/usr/lib/avr/include/avr/power.h **** \anchor avr_powermacros
  65:/usr/lib/avr/include/avr/power.h **** <small>
  66:/usr/lib/avr/include/avr/power.h **** <center>
  67:/usr/lib/avr/include/avr/power.h **** <table border="3">
  68:/usr/lib/avr/include/avr/power.h ****   <tr>
  69:/usr/lib/avr/include/avr/power.h ****     <td width="10%"><strong>Power Macro</strong></td>
  70:/usr/lib/avr/include/avr/power.h ****     <td width="15%"><strong>Description</strong></td>
  71:/usr/lib/avr/include/avr/power.h ****     <td width="75%"><strong>Applicable for device</strong></td>
  72:/usr/lib/avr/include/avr/power.h ****   </tr>
  73:/usr/lib/avr/include/avr/power.h **** 
  74:/usr/lib/avr/include/avr/power.h ****   <tr>
  75:/usr/lib/avr/include/avr/power.h ****     <td>power_adc_enable()</td>
  76:/usr/lib/avr/include/avr/power.h ****     <td>Enable the Analog to Digital Converter module.</td>
  77:/usr/lib/avr/include/avr/power.h ****     <td>ATmega640, ATmega1280, ATmega1281, ATmega128RFA1, ATmega2560, ATmega2561, AT90USB646, AT90U
  78:/usr/lib/avr/include/avr/power.h ****   </tr>
  79:/usr/lib/avr/include/avr/power.h **** 
  80:/usr/lib/avr/include/avr/power.h ****   <tr>
  81:/usr/lib/avr/include/avr/power.h ****     <td>power_adc_disable()</td>
  82:/usr/lib/avr/include/avr/power.h ****     <td>Disable the Analog to Digital Converter module.</td>
  83:/usr/lib/avr/include/avr/power.h ****     <td>ATmega640, ATmega1280, ATmega1281, ATmega128RFA1, ATmega2560, ATmega2561, AT90USB646, AT90U
  84:/usr/lib/avr/include/avr/power.h ****   </tr>
  85:/usr/lib/avr/include/avr/power.h **** 
  86:/usr/lib/avr/include/avr/power.h ****   <tr>
  87:/usr/lib/avr/include/avr/power.h ****     <td>power_lcd_enable()</td>
  88:/usr/lib/avr/include/avr/power.h ****     <td>Enable the LCD module.</td>
  89:/usr/lib/avr/include/avr/power.h ****     <td>ATmega169, ATmega169P, ATmega329, ATmega329A, ATmega3290, ATmega3290A, ATmega649, ATmega649
  90:/usr/lib/avr/include/avr/power.h ****   </tr>
  91:/usr/lib/avr/include/avr/power.h **** 
  92:/usr/lib/avr/include/avr/power.h ****   <tr>
  93:/usr/lib/avr/include/avr/power.h ****     <td>power_lcd_disable().</td>
  94:/usr/lib/avr/include/avr/power.h ****     <td>Disable the LCD module.</td>
  95:/usr/lib/avr/include/avr/power.h ****     <td>ATmega169, ATmega169P, ATmega329, ATmega329A, ATmega3290, ATmega3290A, ATmega649, ATmega649
  96:/usr/lib/avr/include/avr/power.h ****   </tr>
  97:/usr/lib/avr/include/avr/power.h **** 
  98:/usr/lib/avr/include/avr/power.h ****   <tr>
  99:/usr/lib/avr/include/avr/power.h ****     <td>power_pscr_enable()</td>
 100:/usr/lib/avr/include/avr/power.h ****     <td>Enable the Reduced Power Stage Controller module.</td>
 101:/usr/lib/avr/include/avr/power.h ****     <td>AT90PWM81</td>
 102:/usr/lib/avr/include/avr/power.h ****   </tr>
 103:/usr/lib/avr/include/avr/power.h **** 
 104:/usr/lib/avr/include/avr/power.h ****   <tr>
 105:/usr/lib/avr/include/avr/power.h ****     <td>power_pscr_disable()</td>
 106:/usr/lib/avr/include/avr/power.h ****     <td>Disable the Reduced Power Stage Controller module.</td>
 107:/usr/lib/avr/include/avr/power.h ****     <td>AT90PWM81</td>
 108:/usr/lib/avr/include/avr/power.h ****   </tr>
 109:/usr/lib/avr/include/avr/power.h **** 
 110:/usr/lib/avr/include/avr/power.h ****   <tr>
 111:/usr/lib/avr/include/avr/power.h ****     <td>power_psc0_enable()</td>
 112:/usr/lib/avr/include/avr/power.h ****     <td>Enable the Power Stage Controller 0 module.</td>
 113:/usr/lib/avr/include/avr/power.h ****     <td>AT90PWM1, AT90PWM2, AT90PWM2B, AT90PWM3, AT90PWM3B</td>
 114:/usr/lib/avr/include/avr/power.h ****   </tr>
 115:/usr/lib/avr/include/avr/power.h **** 
 116:/usr/lib/avr/include/avr/power.h ****   <tr>
 117:/usr/lib/avr/include/avr/power.h ****     <td>power_psc0_disable()</td>
 118:/usr/lib/avr/include/avr/power.h ****     <td>Disable the Power Stage Controller 0 module.</td>
 119:/usr/lib/avr/include/avr/power.h ****     <td>AT90PWM1, AT90PWM2, AT90PWM2B, AT90PWM3, AT90PWM3B</td>
 120:/usr/lib/avr/include/avr/power.h ****   </tr>
 121:/usr/lib/avr/include/avr/power.h **** 
 122:/usr/lib/avr/include/avr/power.h ****   <tr>
 123:/usr/lib/avr/include/avr/power.h ****     <td>power_psc1_enable()</td>
 124:/usr/lib/avr/include/avr/power.h ****     <td>Enable the Power Stage Controller 1 module.</td>
 125:/usr/lib/avr/include/avr/power.h ****     <td>AT90PWM1, AT90PWM2, AT90PWM2B, AT90PWM3, AT90PWM3B</td>
 126:/usr/lib/avr/include/avr/power.h ****   </tr>
 127:/usr/lib/avr/include/avr/power.h **** 
 128:/usr/lib/avr/include/avr/power.h ****   <tr>
 129:/usr/lib/avr/include/avr/power.h ****     <td>power_psc1_disable()</td>
 130:/usr/lib/avr/include/avr/power.h ****     <td>Disable the Power Stage Controller 1 module.</td>
 131:/usr/lib/avr/include/avr/power.h ****     <td>AT90PWM1, AT90PWM2, AT90PWM2B, AT90PWM3, AT90PWM3B</td>
 132:/usr/lib/avr/include/avr/power.h ****   </tr>
 133:/usr/lib/avr/include/avr/power.h **** 
 134:/usr/lib/avr/include/avr/power.h ****   <tr>
 135:/usr/lib/avr/include/avr/power.h ****     <td>power_psc2_enable()</td>
 136:/usr/lib/avr/include/avr/power.h ****     <td>Enable the Power Stage Controller 2 module.</td>
 137:/usr/lib/avr/include/avr/power.h ****     <td>AT90PWM1, AT90PWM2, AT90PWM2B, AT90PWM3, AT90PWM3B, AT90PWM81</td>
 138:/usr/lib/avr/include/avr/power.h ****   </tr>
 139:/usr/lib/avr/include/avr/power.h **** 
 140:/usr/lib/avr/include/avr/power.h ****   <tr>
 141:/usr/lib/avr/include/avr/power.h ****     <td>power_psc2_disable()</td>
 142:/usr/lib/avr/include/avr/power.h ****     <td>Disable the Power Stage Controller 2 module.</td>
 143:/usr/lib/avr/include/avr/power.h ****     <td>AT90PWM1, AT90PWM2, AT90PWM2B, AT90PWM3, AT90PWM3B, AT90PWM81</td>
 144:/usr/lib/avr/include/avr/power.h ****   </tr>
 145:/usr/lib/avr/include/avr/power.h **** 
 146:/usr/lib/avr/include/avr/power.h ****   <tr>
 147:/usr/lib/avr/include/avr/power.h ****     <td>power_spi_enable()</td>
 148:/usr/lib/avr/include/avr/power.h ****     <td>Enable the Serial Peripheral Interface module.</td>
 149:/usr/lib/avr/include/avr/power.h ****     <td>ATmega640, ATmega1280, ATmega1281, ATmega128RFA1, ATmega2560, ATmega2561, AT90USB646, AT90U
 150:/usr/lib/avr/include/avr/power.h ****   </tr>
 151:/usr/lib/avr/include/avr/power.h **** 
 152:/usr/lib/avr/include/avr/power.h ****   <tr>
 153:/usr/lib/avr/include/avr/power.h ****     <td>power_spi_disable()</td>
 154:/usr/lib/avr/include/avr/power.h ****     <td>Disable the Serial Peripheral Interface module.</td>
 155:/usr/lib/avr/include/avr/power.h ****     <td>ATmega640, ATmega1280, ATmega1281, ATmega128RFA1, ATmega2560, ATmega2561, AT90USB646, AT90U
 156:/usr/lib/avr/include/avr/power.h ****   </tr>
 157:/usr/lib/avr/include/avr/power.h **** 
 158:/usr/lib/avr/include/avr/power.h ****   <tr>
 159:/usr/lib/avr/include/avr/power.h ****     <td>power_timer0_enable()</td>
 160:/usr/lib/avr/include/avr/power.h ****     <td>Enable the Timer 0 module.</td>
 161:/usr/lib/avr/include/avr/power.h ****     <td>ATmega640, ATmega1280, ATmega1281, ATmega128RFA1, ATmega2560, ATmega2561, AT90USB646, AT90U
 162:/usr/lib/avr/include/avr/power.h ****   </tr>
 163:/usr/lib/avr/include/avr/power.h **** 
 164:/usr/lib/avr/include/avr/power.h ****   <tr>
 165:/usr/lib/avr/include/avr/power.h ****     <td>power_timer0_disable()</td>
 166:/usr/lib/avr/include/avr/power.h ****     <td>Disable the Timer 0 module.</td>
 167:/usr/lib/avr/include/avr/power.h ****     <td>ATmega640, ATmega1280, ATmega1281, ATmega128RFA1, ATmega2560, ATmega2561, AT90USB646, AT90U
 168:/usr/lib/avr/include/avr/power.h ****   </tr>
 169:/usr/lib/avr/include/avr/power.h **** 
 170:/usr/lib/avr/include/avr/power.h ****   <tr>
 171:/usr/lib/avr/include/avr/power.h ****     <td>power_timer1_enable()</td>
 172:/usr/lib/avr/include/avr/power.h ****     <td>Enable the Timer 1 module.</td>
 173:/usr/lib/avr/include/avr/power.h ****     <td>ATmega640, ATmega1280, ATmega1281, ATmega128RFA1, ATmega2560, ATmega2561, AT90USB646, AT90U
 174:/usr/lib/avr/include/avr/power.h ****   </tr>
 175:/usr/lib/avr/include/avr/power.h **** 
 176:/usr/lib/avr/include/avr/power.h ****   <tr>
 177:/usr/lib/avr/include/avr/power.h ****     <td>power_timer1_disable()</td>
 178:/usr/lib/avr/include/avr/power.h ****     <td>Disable the Timer 1 module.</td>
 179:/usr/lib/avr/include/avr/power.h ****     <td>ATmega640, ATmega1280, ATmega1281, ATmega128RFA1, ATmega2560, ATmega2561, AT90USB646, AT90U
 180:/usr/lib/avr/include/avr/power.h ****   </tr>
 181:/usr/lib/avr/include/avr/power.h **** 
 182:/usr/lib/avr/include/avr/power.h ****   <tr>
 183:/usr/lib/avr/include/avr/power.h ****     <td>power_timer2_enable()</td>
 184:/usr/lib/avr/include/avr/power.h ****     <td>Enable the Timer 2 module.</td>
 185:/usr/lib/avr/include/avr/power.h ****     <td>ATmega640, ATmega1280, ATmega1281, ATmega128RFA1, ATmega2560, ATmega2561, AT90USB646, AT90U
 186:/usr/lib/avr/include/avr/power.h ****   </tr>
 187:/usr/lib/avr/include/avr/power.h **** 
 188:/usr/lib/avr/include/avr/power.h ****   <tr>
 189:/usr/lib/avr/include/avr/power.h ****     <td>power_timer2_disable()</td>
 190:/usr/lib/avr/include/avr/power.h ****     <td>Disable the Timer 2 module.</td>
 191:/usr/lib/avr/include/avr/power.h ****     <td>ATmega640, ATmega1280, ATmega1281, ATmega128RFA1, ATmega2560, ATmega2561, AT90USB646, AT90U
 192:/usr/lib/avr/include/avr/power.h ****   </tr>
 193:/usr/lib/avr/include/avr/power.h **** 
 194:/usr/lib/avr/include/avr/power.h ****   <tr>
 195:/usr/lib/avr/include/avr/power.h ****     <td>power_timer3_enable()</td>
 196:/usr/lib/avr/include/avr/power.h ****     <td>Enable the Timer 3 module.</td>
 197:/usr/lib/avr/include/avr/power.h ****     <td>ATmega640, ATmega1280, ATmega1281, ATmega128RFA1, ATmega2560, ATmega2561, AT90USB646, AT90U
 198:/usr/lib/avr/include/avr/power.h ****   </tr>
 199:/usr/lib/avr/include/avr/power.h **** 
 200:/usr/lib/avr/include/avr/power.h ****   <tr>
 201:/usr/lib/avr/include/avr/power.h ****     <td>power_timer3_disable()</td>
 202:/usr/lib/avr/include/avr/power.h ****     <td>Disable the Timer 3 module.</td>
 203:/usr/lib/avr/include/avr/power.h ****     <td>ATmega640, ATmega1280, ATmega1281, ATmega128RFA1, ATmega2560, ATmega2561, AT90USB646, AT90U
 204:/usr/lib/avr/include/avr/power.h ****   </tr>
 205:/usr/lib/avr/include/avr/power.h **** 
 206:/usr/lib/avr/include/avr/power.h ****   <tr>
 207:/usr/lib/avr/include/avr/power.h ****     <td>power_timer4_enable()</td>
 208:/usr/lib/avr/include/avr/power.h ****     <td>Enable the Timer 4 module.</td>
 209:/usr/lib/avr/include/avr/power.h ****     <td>ATmega640, ATmega1280, ATmega1281, ATmega128RFA1, ATmega2560, ATmega2561</td>
 210:/usr/lib/avr/include/avr/power.h ****   </tr>
 211:/usr/lib/avr/include/avr/power.h **** 
 212:/usr/lib/avr/include/avr/power.h ****   <tr>
 213:/usr/lib/avr/include/avr/power.h ****     <td>power_timer4_disable()</td>
 214:/usr/lib/avr/include/avr/power.h ****     <td>Disable the Timer 4 module.</td>
 215:/usr/lib/avr/include/avr/power.h ****     <td>ATmega640, ATmega1280, ATmega1281, ATmega128RFA1, ATmega2560, ATmega2561</td>
 216:/usr/lib/avr/include/avr/power.h ****   </tr>
 217:/usr/lib/avr/include/avr/power.h **** 
 218:/usr/lib/avr/include/avr/power.h ****   <tr>
 219:/usr/lib/avr/include/avr/power.h ****     <td>power_timer5_enable()</td>
 220:/usr/lib/avr/include/avr/power.h ****     <td>Enable the Timer 5 module.</td>
 221:/usr/lib/avr/include/avr/power.h ****     <td>ATmega640, ATmega1280, ATmega1281, ATmega128RFA1, ATmega2560, ATmega2561</td>
 222:/usr/lib/avr/include/avr/power.h ****   </tr>
 223:/usr/lib/avr/include/avr/power.h **** 
 224:/usr/lib/avr/include/avr/power.h ****   <tr>
 225:/usr/lib/avr/include/avr/power.h ****     <td>power_timer5_disable()</td>
 226:/usr/lib/avr/include/avr/power.h ****     <td>Disable the Timer 5 module.</td>
 227:/usr/lib/avr/include/avr/power.h ****     <td>ATmega640, ATmega1280, ATmega1281, ATmega128RFA1, ATmega2560, ATmega2561</td>
 228:/usr/lib/avr/include/avr/power.h ****   </tr>
 229:/usr/lib/avr/include/avr/power.h **** 
 230:/usr/lib/avr/include/avr/power.h ****   <tr>
 231:/usr/lib/avr/include/avr/power.h ****     <td>power_twi_enable()</td>
 232:/usr/lib/avr/include/avr/power.h ****     <td>Enable the Two Wire Interface module.</td>
 233:/usr/lib/avr/include/avr/power.h ****     <td>ATmega640, ATmega1280, ATmega1281, ATmega128RFA1, ATmega2560, ATmega2561, AT90USB646, AT90U
 234:/usr/lib/avr/include/avr/power.h ****   </tr>
 235:/usr/lib/avr/include/avr/power.h **** 
 236:/usr/lib/avr/include/avr/power.h ****   <tr>
 237:/usr/lib/avr/include/avr/power.h ****     <td>power_twi_disable()</td>
 238:/usr/lib/avr/include/avr/power.h ****     <td>Disable the Two Wire Interface module.</td>
 239:/usr/lib/avr/include/avr/power.h ****     <td>ATmega640, ATmega1280, ATmega1281, ATmega128RFA1, ATmega2560, ATmega2561, AT90USB646, AT90U
 240:/usr/lib/avr/include/avr/power.h ****   </tr>
 241:/usr/lib/avr/include/avr/power.h **** 
 242:/usr/lib/avr/include/avr/power.h ****   <tr>
 243:/usr/lib/avr/include/avr/power.h ****     <td>power_usart_enable()</td>
 244:/usr/lib/avr/include/avr/power.h ****     <td>Enable the USART module.</td>
 245:/usr/lib/avr/include/avr/power.h ****     <td>AT90PWM2, AT90PWM2B, AT90PWM3, AT90PWM3B</td>
 246:/usr/lib/avr/include/avr/power.h ****   </tr>
 247:/usr/lib/avr/include/avr/power.h **** 
 248:/usr/lib/avr/include/avr/power.h ****   <tr>
 249:/usr/lib/avr/include/avr/power.h ****     <td>power_usart_disable()</td>
 250:/usr/lib/avr/include/avr/power.h ****     <td>Disable the USART module.</td>
 251:/usr/lib/avr/include/avr/power.h ****     <td>AT90PWM2, AT90PWM2B, AT90PWM3, AT90PWM3B</td>
 252:/usr/lib/avr/include/avr/power.h ****   </tr>
 253:/usr/lib/avr/include/avr/power.h **** 
 254:/usr/lib/avr/include/avr/power.h ****   <tr>
 255:/usr/lib/avr/include/avr/power.h ****     <td>power_usart0_enable()</td>
 256:/usr/lib/avr/include/avr/power.h ****     <td>Enable the USART 0 module.</td>
 257:/usr/lib/avr/include/avr/power.h ****     <td>ATmega640, ATmega1280, ATmega1281, ATmega128RFA1, ATmega2560, ATmega2561, ATmega165, ATmega
 258:/usr/lib/avr/include/avr/power.h ****   </tr>
 259:/usr/lib/avr/include/avr/power.h **** 
 260:/usr/lib/avr/include/avr/power.h ****   <tr>
 261:/usr/lib/avr/include/avr/power.h ****     <td>power_usart0_disable()</td>
 262:/usr/lib/avr/include/avr/power.h ****     <td>Disable the USART 0 module.</td>
 263:/usr/lib/avr/include/avr/power.h ****     <td>ATmega640, ATmega1280, ATmega1281, ATmega128RFA1, ATmega2560, ATmega2561, ATmega165, ATmega
 264:/usr/lib/avr/include/avr/power.h ****   </tr>
 265:/usr/lib/avr/include/avr/power.h **** 
 266:/usr/lib/avr/include/avr/power.h ****   <tr>
 267:/usr/lib/avr/include/avr/power.h ****     <td>power_usart1_enable()</td>
 268:/usr/lib/avr/include/avr/power.h ****     <td>Enable the USART 1 module.</td>
 269:/usr/lib/avr/include/avr/power.h ****     <td>ATmega640, ATmega1280, ATmega1281, ATmega128RFA1, ATmega2560, ATmega2561, AT90USB646, AT90U
 270:/usr/lib/avr/include/avr/power.h ****   </tr>
 271:/usr/lib/avr/include/avr/power.h **** 
 272:/usr/lib/avr/include/avr/power.h ****   <tr>
 273:/usr/lib/avr/include/avr/power.h ****     <td>power_usart1_disable()</td>
 274:/usr/lib/avr/include/avr/power.h ****     <td>Disable the USART 1 module.</td>
 275:/usr/lib/avr/include/avr/power.h ****     <td>ATmega640, ATmega1280, ATmega1281, ATmega128RFA1, ATmega2560, ATmega2561, AT90USB646, AT90U
 276:/usr/lib/avr/include/avr/power.h ****   </tr>
 277:/usr/lib/avr/include/avr/power.h **** 
 278:/usr/lib/avr/include/avr/power.h ****   <tr>
 279:/usr/lib/avr/include/avr/power.h ****     <td>power_usart2_enable()</td>
 280:/usr/lib/avr/include/avr/power.h ****     <td>Enable the USART 2 module.</td>
 281:/usr/lib/avr/include/avr/power.h ****     <td>ATmega640, ATmega1280, ATmega1281, ATmega2560, ATmega2561</td>
 282:/usr/lib/avr/include/avr/power.h ****   </tr>
 283:/usr/lib/avr/include/avr/power.h **** 
 284:/usr/lib/avr/include/avr/power.h ****   <tr>
 285:/usr/lib/avr/include/avr/power.h ****     <td>power_usart2_disable()</td>
 286:/usr/lib/avr/include/avr/power.h ****     <td>Disable the USART 2 module.</td>
 287:/usr/lib/avr/include/avr/power.h ****     <td>ATmega640, ATmega1280, ATmega1281, ATmega2560, ATmega2561</td>
 288:/usr/lib/avr/include/avr/power.h ****   </tr>
 289:/usr/lib/avr/include/avr/power.h **** 
 290:/usr/lib/avr/include/avr/power.h ****   <tr>
 291:/usr/lib/avr/include/avr/power.h ****     <td>power_usart3_enable()</td>
 292:/usr/lib/avr/include/avr/power.h ****     <td>Enable the USART 3 module.</td>
 293:/usr/lib/avr/include/avr/power.h ****     <td>ATmega640, ATmega1280, ATmega1281, ATmega2560, ATmega2561</td>
 294:/usr/lib/avr/include/avr/power.h ****   </tr>
 295:/usr/lib/avr/include/avr/power.h **** 
 296:/usr/lib/avr/include/avr/power.h ****   <tr>
 297:/usr/lib/avr/include/avr/power.h ****     <td>power_usart3_disable()</td>
 298:/usr/lib/avr/include/avr/power.h ****     <td>Disable the USART 3 module.</td>
 299:/usr/lib/avr/include/avr/power.h ****     <td>ATmega640, ATmega1280, ATmega1281, ATmega2560, ATmega2561</td>
 300:/usr/lib/avr/include/avr/power.h ****   </tr>
 301:/usr/lib/avr/include/avr/power.h **** 
 302:/usr/lib/avr/include/avr/power.h ****   <tr>
 303:/usr/lib/avr/include/avr/power.h ****     <td>power_usb_enable()</td>
 304:/usr/lib/avr/include/avr/power.h ****     <td>Enable the USB module.</td>
 305:/usr/lib/avr/include/avr/power.h ****     <td>AT90USB646, AT90USB647, AT90USB1286, AT90USB1287</td>
 306:/usr/lib/avr/include/avr/power.h ****   </tr>
 307:/usr/lib/avr/include/avr/power.h **** 
 308:/usr/lib/avr/include/avr/power.h ****   <tr>
 309:/usr/lib/avr/include/avr/power.h ****     <td>power_usb_disable()</td>
 310:/usr/lib/avr/include/avr/power.h ****     <td>Disable the USB module.</td>
 311:/usr/lib/avr/include/avr/power.h ****     <td>AT90USB646, AT90USB647, AT90USB1286, AT90USB1287</td>
 312:/usr/lib/avr/include/avr/power.h ****   </tr>
 313:/usr/lib/avr/include/avr/power.h **** 
 314:/usr/lib/avr/include/avr/power.h ****   <tr>
 315:/usr/lib/avr/include/avr/power.h ****     <td>power_usi_enable()</td>
 316:/usr/lib/avr/include/avr/power.h ****     <td>Enable the Universal Serial Interface module.</td>
 317:/usr/lib/avr/include/avr/power.h ****     <td>ATtiny24, ATtiny44, ATtiny84, ATtiny84A, ATtiny25, ATtiny45, ATtiny85, ATtiny261, ATtiny461
 318:/usr/lib/avr/include/avr/power.h ****   </tr>
 319:/usr/lib/avr/include/avr/power.h **** 
 320:/usr/lib/avr/include/avr/power.h ****   <tr>
 321:/usr/lib/avr/include/avr/power.h ****     <td>power_usi_disable()</td>
 322:/usr/lib/avr/include/avr/power.h ****     <td>Disable the Universal Serial Interface module.</td>
 323:/usr/lib/avr/include/avr/power.h ****     <td>ATtiny24, ATtiny44, ATtiny84, ATtiny84A, ATtiny25, ATtiny45, ATtiny85, ATtiny261, ATtiny461
 324:/usr/lib/avr/include/avr/power.h ****   </tr>
 325:/usr/lib/avr/include/avr/power.h **** 
 326:/usr/lib/avr/include/avr/power.h ****   <tr>
 327:/usr/lib/avr/include/avr/power.h ****     <td>power_vadc_enable()</td>
 328:/usr/lib/avr/include/avr/power.h ****     <td>Enable the Voltage ADC module.</td>
 329:/usr/lib/avr/include/avr/power.h ****     <td>ATmega406</td>
 330:/usr/lib/avr/include/avr/power.h ****   </tr>
 331:/usr/lib/avr/include/avr/power.h **** 
 332:/usr/lib/avr/include/avr/power.h ****   <tr>
 333:/usr/lib/avr/include/avr/power.h ****     <td>power_vadc_disable()</td>
 334:/usr/lib/avr/include/avr/power.h ****     <td>Disable the Voltage ADC module.</td>
 335:/usr/lib/avr/include/avr/power.h ****     <td>ATmega406</td>
 336:/usr/lib/avr/include/avr/power.h ****   </tr>
 337:/usr/lib/avr/include/avr/power.h **** 
 338:/usr/lib/avr/include/avr/power.h ****   <tr>
 339:/usr/lib/avr/include/avr/power.h ****     <td>power_all_enable()</td>
 340:/usr/lib/avr/include/avr/power.h ****     <td>Enable all modules.</td>
 341:/usr/lib/avr/include/avr/power.h ****     <td>ATxmega6A4, ATxmega32A4, ATxmega64A1, ATxmega64A1U, ATxmega64A3, ATxmegaA1, ATxmegaA1U, ATx
 342:/usr/lib/avr/include/avr/power.h ****   </tr>
 343:/usr/lib/avr/include/avr/power.h **** 
 344:/usr/lib/avr/include/avr/power.h ****   <tr>
 345:/usr/lib/avr/include/avr/power.h ****     <td>power_all_disable()</td>
 346:/usr/lib/avr/include/avr/power.h ****     <td>Disable all modules.</td>
 347:/usr/lib/avr/include/avr/power.h ****     <td>ATxmega6A4, ATxmega32A4, ATxmega64A1, ATxmega64A1U, ATxmega64A3, ATxmegaA1, ATxmegaA1U, ATx
 348:/usr/lib/avr/include/avr/power.h ****   </tr>
 349:/usr/lib/avr/include/avr/power.h **** </table>
 350:/usr/lib/avr/include/avr/power.h **** </center>
 351:/usr/lib/avr/include/avr/power.h **** </small>
 352:/usr/lib/avr/include/avr/power.h **** 
 353:/usr/lib/avr/include/avr/power.h **** @} */
 354:/usr/lib/avr/include/avr/power.h **** 
 355:/usr/lib/avr/include/avr/power.h **** // Xmega A series has AES, EBI and DMA bits
 356:/usr/lib/avr/include/avr/power.h **** // Include any other device on need basis
 357:/usr/lib/avr/include/avr/power.h **** #if defined(__AVR_ATxmega16A4__) \
 358:/usr/lib/avr/include/avr/power.h **** || defined(__AVR_ATxmega32A4__) \
 359:/usr/lib/avr/include/avr/power.h **** || defined(__AVR_ATxmega64A1__) \
 360:/usr/lib/avr/include/avr/power.h **** || defined(__AVR_ATxmega64A1U__) \
 361:/usr/lib/avr/include/avr/power.h **** || defined(__AVR_ATxmega64A3__) \
 362:/usr/lib/avr/include/avr/power.h **** || defined(__AVR_ATxmega128A1__) \
 363:/usr/lib/avr/include/avr/power.h **** || defined(__AVR_ATxmega128A1U__) \
 364:/usr/lib/avr/include/avr/power.h **** || defined(__AVR_ATxmega128A3__) \
 365:/usr/lib/avr/include/avr/power.h **** || defined(__AVR_ATxmega192A3__) \
 366:/usr/lib/avr/include/avr/power.h **** || defined(__AVR_ATxmega256A3__) \
 367:/usr/lib/avr/include/avr/power.h **** || defined(__AVR_ATxmega256A3B__)
 368:/usr/lib/avr/include/avr/power.h **** 
 369:/usr/lib/avr/include/avr/power.h **** #define power_aes_enable()  (PR_PRGEN &= (uint8_t)~(PR_AES_bm))
 370:/usr/lib/avr/include/avr/power.h **** #define power_aes_disable() (PR_PRGEN |= (uint8_t)PR_AES_bm)
 371:/usr/lib/avr/include/avr/power.h **** 
 372:/usr/lib/avr/include/avr/power.h **** #define power_ebi_enable()  (PR_PRGEN &= (uint8_t)~(PR_EBI_bm))
 373:/usr/lib/avr/include/avr/power.h **** #define power_ebi_disable() (PR_PRGEN |= (uint8_t)PR_EBI_bm)
 374:/usr/lib/avr/include/avr/power.h **** 
 375:/usr/lib/avr/include/avr/power.h **** #define power_dma_enable()    (PR_PRGEN &= (uint8_t)~(PR_DMA_bm))
 376:/usr/lib/avr/include/avr/power.h **** #define power_dma_disable()   (PR_PRGEN |= (uint8_t)PR_DMA_bm)
 377:/usr/lib/avr/include/avr/power.h **** 
 378:/usr/lib/avr/include/avr/power.h **** #define power_daca_enable()     (PR_PRPA &= (uint8_t)~(PR_DAC_bm))
 379:/usr/lib/avr/include/avr/power.h **** #define power_daca_disable()    (PR_PRPA |= (uint8_t)PR_DAC_bm)
 380:/usr/lib/avr/include/avr/power.h **** #define power_dacb_enable()     (PR_PRPB &= (uint8_t)~(PR_DAC_bm))
 381:/usr/lib/avr/include/avr/power.h **** #define power_dacb_disable()    (PR_PRPB |= (uint8_t)PR_DAC_bm)
 382:/usr/lib/avr/include/avr/power.h **** 
 383:/usr/lib/avr/include/avr/power.h **** #define power_usartc1_enable()  (PR_PRPC &= (uint8_t)~(PR_USART1_bm))
 384:/usr/lib/avr/include/avr/power.h **** #define power_usartc1_disable() (PR_PRPC |= (uint8_t)PR_USART1_bm)
 385:/usr/lib/avr/include/avr/power.h **** #define power_usartd1_enable()  (PR_PRPD &= (uint8_t)~(PR_USART1_bm))
 386:/usr/lib/avr/include/avr/power.h **** #define power_usartd1_disable() (PR_PRPD |= (uint8_t)PR_USART1_bm)
 387:/usr/lib/avr/include/avr/power.h **** #define power_usarte1_enable()  (PR_PRPE &= (uint8_t)~(PR_USART1_bm))
 388:/usr/lib/avr/include/avr/power.h **** #define power_usarte1_disable() (PR_PRPE |= (uint8_t)PR_USART1_bm)
 389:/usr/lib/avr/include/avr/power.h **** #define power_usartf1_enable()  (PR_PRPF &= (uint8_t)~(PR_USART1_bm))
 390:/usr/lib/avr/include/avr/power.h **** #define power_usartf1_disable() (PR_PRPF |= (uint8_t)PR_USART1_bm)
 391:/usr/lib/avr/include/avr/power.h **** 
 392:/usr/lib/avr/include/avr/power.h **** #define power_all_enable() \
 393:/usr/lib/avr/include/avr/power.h **** do { \
 394:/usr/lib/avr/include/avr/power.h ****     PR_PRGEN &= (uint8_t)~(PR_AES_bm|PR_EBI_bm|PR_RTC_bm|PR_EVSYS_bm|PR_DMA_bm); \
 395:/usr/lib/avr/include/avr/power.h ****     PR_PRPA &= (uint8_t)~(PR_DAC_bm|PR_ADC_bm|PR_AC_bm); \
 396:/usr/lib/avr/include/avr/power.h ****     PR_PRPB &= (uint8_t)~(PR_DAC_bm|PR_ADC_bm|PR_AC_bm); \
 397:/usr/lib/avr/include/avr/power.h ****     PR_PRPC &= (uint8_t)~(PR_TWI_bm|PR_USART1_bm|PR_USART0_bm|PR_SPI_bm|PR_HIRES_bm|PR_TC1_bm|PR_TC
 398:/usr/lib/avr/include/avr/power.h ****     PR_PRPD &= (uint8_t)~(PR_TWI_bm|PR_USART1_bm|PR_USART0_bm|PR_SPI_bm|PR_HIRES_bm|PR_TC1_bm|PR_TC
 399:/usr/lib/avr/include/avr/power.h ****     PR_PRPE &= (uint8_t)~(PR_TWI_bm|PR_USART1_bm|PR_USART0_bm|PR_SPI_bm|PR_HIRES_bm|PR_TC1_bm|PR_TC
 400:/usr/lib/avr/include/avr/power.h ****     PR_PRPF &= (uint8_t)~(PR_TWI_bm|PR_USART1_bm|PR_USART0_bm|PR_SPI_bm|PR_HIRES_bm|PR_TC1_bm|PR_TC
 401:/usr/lib/avr/include/avr/power.h **** } while(0)
 402:/usr/lib/avr/include/avr/power.h **** 
 403:/usr/lib/avr/include/avr/power.h **** 
 404:/usr/lib/avr/include/avr/power.h **** #define power_all_disable() \
 405:/usr/lib/avr/include/avr/power.h **** do { \
 406:/usr/lib/avr/include/avr/power.h ****     PR_PRGEN|= (uint8_t)(PR_AES_bm|PR_EBI_bm|PR_RTC_bm|PR_EVSYS_bm|PR_DMA_bm); \
 407:/usr/lib/avr/include/avr/power.h ****     PR_PRPA |= (uint8_t)(PR_DAC_bm|PR_ADC_bm|PR_AC_bm); \
 408:/usr/lib/avr/include/avr/power.h ****     PR_PRPB |= (uint8_t)(PR_DAC_bm|PR_ADC_bm|PR_AC_bm); \
 409:/usr/lib/avr/include/avr/power.h ****     PR_PRPC |= (uint8_t)(PR_TWI_bm|PR_USART1_bm|PR_USART0_bm|PR_SPI_bm|PR_HIRES_bm|PR_TC1_bm|PR_TC0
 410:/usr/lib/avr/include/avr/power.h ****     PR_PRPD |= (uint8_t)(PR_TWI_bm|PR_USART1_bm|PR_USART0_bm|PR_SPI_bm|PR_HIRES_bm|PR_TC1_bm|PR_TC0
 411:/usr/lib/avr/include/avr/power.h ****     PR_PRPE |= (uint8_t)(PR_TWI_bm|PR_USART1_bm|PR_USART0_bm|PR_SPI_bm|PR_HIRES_bm|PR_TC1_bm|PR_TC0
 412:/usr/lib/avr/include/avr/power.h ****     PR_PRPF |= (uint8_t)(PR_TWI_bm|PR_USART1_bm|PR_USART0_bm|PR_SPI_bm|PR_HIRES_bm|PR_TC1_bm|PR_TC0
 413:/usr/lib/avr/include/avr/power.h **** } while(0)
 414:/usr/lib/avr/include/avr/power.h **** #endif
 415:/usr/lib/avr/include/avr/power.h **** 
 416:/usr/lib/avr/include/avr/power.h **** #if defined(__AVR_ATxmega16A4__) \
 417:/usr/lib/avr/include/avr/power.h **** || defined(__AVR_ATxmega16D4__) \
 418:/usr/lib/avr/include/avr/power.h **** || defined(__AVR_ATxmega32A4__) \
 419:/usr/lib/avr/include/avr/power.h **** || defined(__AVR_ATxmega32D4__) \
 420:/usr/lib/avr/include/avr/power.h **** || defined(__AVR_ATxmega64A1__) \
 421:/usr/lib/avr/include/avr/power.h **** || defined(__AVR_ATxmega64A1U__) \
 422:/usr/lib/avr/include/avr/power.h **** || defined(__AVR_ATxmega64A3__) \
 423:/usr/lib/avr/include/avr/power.h **** || defined(__AVR_ATxmega64D3__) \
 424:/usr/lib/avr/include/avr/power.h **** || defined(__AVR_ATxmega128A1__) \
 425:/usr/lib/avr/include/avr/power.h **** || defined(__AVR_ATxmega128A1U__) \
 426:/usr/lib/avr/include/avr/power.h **** || defined(__AVR_ATxmega128A3__) \
 427:/usr/lib/avr/include/avr/power.h **** || defined(__AVR_ATxmega128D3__) \
 428:/usr/lib/avr/include/avr/power.h **** || defined(__AVR_ATxmega192A3__) \
 429:/usr/lib/avr/include/avr/power.h **** || defined(__AVR_ATxmega192D3__) \
 430:/usr/lib/avr/include/avr/power.h **** || defined(__AVR_ATxmega256A3__) \
 431:/usr/lib/avr/include/avr/power.h **** || defined(__AVR_ATxmega256A3B__)
 432:/usr/lib/avr/include/avr/power.h **** 
 433:/usr/lib/avr/include/avr/power.h **** 
 434:/usr/lib/avr/include/avr/power.h **** #define power_rtc_enable()  (PR_PRGEN &= (uint8_t)~(PR_RTC_bm))
 435:/usr/lib/avr/include/avr/power.h **** #define power_rtc_disable() (PR_PRGEN |= (uint8_t)PR_RTC_bm)
 436:/usr/lib/avr/include/avr/power.h **** 
 437:/usr/lib/avr/include/avr/power.h **** #define power_evsys_enable()    (PR_PRGEN &= (uint8_t)~(PR_EVSYS_bm))
 438:/usr/lib/avr/include/avr/power.h **** #define power_evsys_disable()   (PR_PRGEN |= (uint8_t)PR_EVSYS_bm)
 439:/usr/lib/avr/include/avr/power.h **** 
 440:/usr/lib/avr/include/avr/power.h **** #define power_adca_enable()     (PR_PRPA &= (uint8_t)~(PR_ADC_bm))
 441:/usr/lib/avr/include/avr/power.h **** #define power_adca_disable()    (PR_PRPA |= (uint8_t)PR_ADC_bm)
 442:/usr/lib/avr/include/avr/power.h **** #define power_adcb_enable()     (PR_PRPB &= (uint8_t)~(PR_ADC_bm))
 443:/usr/lib/avr/include/avr/power.h **** #define power_adcb_disable()    (PR_PRPB |= (uint8_t)PR_ADC_bm)
 444:/usr/lib/avr/include/avr/power.h **** 
 445:/usr/lib/avr/include/avr/power.h **** #define power_aca_enable()      (PR_PRPA &= (uint8_t)~(PR_AC_bm))
 446:/usr/lib/avr/include/avr/power.h **** #define power_aca_disable()     (PR_PRPA |= (uint8_t)PR_AC_bm)
 447:/usr/lib/avr/include/avr/power.h **** #define power_acb_enable()      (PR_PRPB &= (uint8_t)~(PR_AC_bm))
 448:/usr/lib/avr/include/avr/power.h **** #define power_acb_disable()     (PR_PRPB |= (uint8_t)PR_AC_bm)
 449:/usr/lib/avr/include/avr/power.h **** 
 450:/usr/lib/avr/include/avr/power.h **** #define power_twic_enable()     (PR_PRPC &= (uint8_t)~(PR_TWI_bm))
 451:/usr/lib/avr/include/avr/power.h **** #define power_twic_disable()    (PR_PRPC |= (uint8_t)PR_TWI_bm)
 452:/usr/lib/avr/include/avr/power.h **** #define power_twid_enable()     (PR_PRPD &= (uint8_t)~(PR_TWI_bm))
 453:/usr/lib/avr/include/avr/power.h **** #define power_twid_disable()    (PR_PRPD |= (uint8_t)PR_TWI_bm)
 454:/usr/lib/avr/include/avr/power.h **** #define power_twie_enable()     (PR_PRPE &= (uint8_t)~(PR_TWI_bm))
 455:/usr/lib/avr/include/avr/power.h **** #define power_twie_disable()    (PR_PRPE |= (uint8_t)PR_TWI_bm)
 456:/usr/lib/avr/include/avr/power.h **** #define power_twif_enable()     (PR_PRPF &= (uint8_t)~(PR_TWI_bm))
 457:/usr/lib/avr/include/avr/power.h **** #define power_twif_disable()    (PR_PRPF |= (uint8_t)PR_TWI_bm)
 458:/usr/lib/avr/include/avr/power.h **** 
 459:/usr/lib/avr/include/avr/power.h **** #define power_usartc0_enable()  (PR_PRPC &= (uint8_t)~(PR_USART0_bm))
 460:/usr/lib/avr/include/avr/power.h **** #define power_usartc0_disable() (PR_PRPC |= (uint8_t)PR_USART0_bm)
 461:/usr/lib/avr/include/avr/power.h **** #define power_usartd0_enable()  (PR_PRPD &= (uint8_t)~(PR_USART0_bm))
 462:/usr/lib/avr/include/avr/power.h **** #define power_usartd0_disable() (PR_PRPD |= (uint8_t)PR_USART0_bm)
 463:/usr/lib/avr/include/avr/power.h **** #define power_usarte0_enable()  (PR_PRPE &= (uint8_t)~(PR_USART0_bm))
 464:/usr/lib/avr/include/avr/power.h **** #define power_usarte0_disable() (PR_PRPE |= (uint8_t)PR_USART0_bm)
 465:/usr/lib/avr/include/avr/power.h **** #define power_usartf0_enable()  (PR_PRPF &= (uint8_t)~(PR_USART0_bm))
 466:/usr/lib/avr/include/avr/power.h **** #define power_usartf0_disable() (PR_PRPF |= (uint8_t)PR_USART0_bm)
 467:/usr/lib/avr/include/avr/power.h **** 
 468:/usr/lib/avr/include/avr/power.h **** #define power_spic_enable()     (PR_PRPC &= (uint8_t)~(PR_SPI_bm))
 469:/usr/lib/avr/include/avr/power.h **** #define power_spic_disable()    (PR_PRPC |= (uint8_t)PR_SPI_bm)
 470:/usr/lib/avr/include/avr/power.h **** #define power_spid_enable()     (PR_PRPD &= (uint8_t)~(PR_SPI_bm))
 471:/usr/lib/avr/include/avr/power.h **** #define power_spid_disable()    (PR_PRPD |= (uint8_t)PR_SPI_bm)
 472:/usr/lib/avr/include/avr/power.h **** #define power_spie_enable()     (PR_PRPE &= (uint8_t)~(PR_SPI_bm))
 473:/usr/lib/avr/include/avr/power.h **** #define power_spie_disable()    (PR_PRPE |= (uint8_t)PR_SPI_bm)
 474:/usr/lib/avr/include/avr/power.h **** #define power_spif_enable()     (PR_PRPF &= (uint8_t)~(PR_SPI_bm))
 475:/usr/lib/avr/include/avr/power.h **** #define power_spif_disable()    (PR_PRPF |= (uint8_t)PR_SPI_bm)
 476:/usr/lib/avr/include/avr/power.h **** 
 477:/usr/lib/avr/include/avr/power.h **** #define power_hiresc_enable()   (PR_PRPC &= (uint8_t)~(PR_HIRES_bm))
 478:/usr/lib/avr/include/avr/power.h **** #define power_hiresc_disable()  (PR_PRPC |= (uint8_t)PR_HIRES_bm)
 479:/usr/lib/avr/include/avr/power.h **** #define power_hiresd_enable()   (PR_PRPD &= (uint8_t)~(PR_HIRES_bm))
 480:/usr/lib/avr/include/avr/power.h **** #define power_hiresd_disable()  (PR_PRPD |= (uint8_t)PR_HIRES_bm)
 481:/usr/lib/avr/include/avr/power.h **** #define power_hirese_enable()   (PR_PRPE &= (uint8_t)~(PR_HIRES_bm))
 482:/usr/lib/avr/include/avr/power.h **** #define power_hirese_disable()  (PR_PRPE |= (uint8_t)PR_HIRES_bm)
 483:/usr/lib/avr/include/avr/power.h **** #define power_hiresf_enable()   (PR_PRPF &= (uint8_t)~(PR_HIRES_bm))
 484:/usr/lib/avr/include/avr/power.h **** #define power_hiresf_disable()  (PR_PRPF |= (uint8_t)PR_HIRES_bm)
 485:/usr/lib/avr/include/avr/power.h **** 
 486:/usr/lib/avr/include/avr/power.h **** #define power_tc1c_enable()     (PR_PRPC &= (uint8_t)~(PR_TC1_bm))
 487:/usr/lib/avr/include/avr/power.h **** #define power_tc1c_disable()    (PR_PRPC |= (uint8_t)PR_TC1_bm)
 488:/usr/lib/avr/include/avr/power.h **** #define power_tc1d_enable()     (PR_PRPD &= (uint8_t)~(PR_TC1_bm))
 489:/usr/lib/avr/include/avr/power.h **** #define power_tc1d_disable()    (PR_PRPD |= (uint8_t)PR_TC1_bm)
 490:/usr/lib/avr/include/avr/power.h **** #define power_tc1e_enable()     (PR_PRPE &= (uint8_t)~(PR_TC1_bm))
 491:/usr/lib/avr/include/avr/power.h **** #define power_tc1e_disable()    (PR_PRPE |= (uint8_t)PR_TC1_bm)
 492:/usr/lib/avr/include/avr/power.h **** #define power_tc1f_enable()     (PR_PRPF &= (uint8_t)~(PR_TC1_bm))
 493:/usr/lib/avr/include/avr/power.h **** #define power_tc1f_disable()    (PR_PRPF |= (uint8_t)PR_TC1_bm)
 494:/usr/lib/avr/include/avr/power.h **** 
 495:/usr/lib/avr/include/avr/power.h **** #define power_tc0c_enable()     (PR_PRPC &= (uint8_t)~(PR_TC0_bm))
 496:/usr/lib/avr/include/avr/power.h **** #define power_tc0c_disable()    (PR_PRPC |= (uint8_t)PR_TC0_bm)
 497:/usr/lib/avr/include/avr/power.h **** #define power_tc0d_enable()     (PR_PRPD &= (uint8_t)~(PR_TC0_bm))
 498:/usr/lib/avr/include/avr/power.h **** #define power_tc0d_disable()    (PR_PRPD |= (uint8_t)PR_TC0_bm)
 499:/usr/lib/avr/include/avr/power.h **** #define power_tc0e_enable()     (PR_PRPE &= (uint8_t)~(PR_TC0_bm))
 500:/usr/lib/avr/include/avr/power.h **** #define power_tc0e_disable()    (PR_PRPE |= (uint8_t)PR_TC0_bm)
 501:/usr/lib/avr/include/avr/power.h **** #define power_tc0f_enable()     (PR_PRPF &= (uint8_t)~(PR_TC0_bm))
 502:/usr/lib/avr/include/avr/power.h **** #define power_tc0f_disable()    (PR_PRPF |= (uint8_t)PR_TC0_bm)
 503:/usr/lib/avr/include/avr/power.h **** 
 504:/usr/lib/avr/include/avr/power.h **** #endif
 505:/usr/lib/avr/include/avr/power.h **** 
 506:/usr/lib/avr/include/avr/power.h **** #if defined(__AVR_ATxmega16D4__) \
 507:/usr/lib/avr/include/avr/power.h **** || defined(__AVR_ATxmega32D4__) \
 508:/usr/lib/avr/include/avr/power.h **** || defined(__AVR_ATxmega64D3__) \
 509:/usr/lib/avr/include/avr/power.h **** || defined(__AVR_ATxmega128D3__) \
 510:/usr/lib/avr/include/avr/power.h **** || defined(__AVR_ATxmega192D3__) 
 511:/usr/lib/avr/include/avr/power.h **** 
 512:/usr/lib/avr/include/avr/power.h **** #define power_all_enable() \
 513:/usr/lib/avr/include/avr/power.h **** do { \
 514:/usr/lib/avr/include/avr/power.h ****     PR_PRGEN &= (uint8_t)~(PR_RTC_bm|PR_EVSYS_bm); \
 515:/usr/lib/avr/include/avr/power.h ****     PR_PRPA &= (uint8_t)~(PR_ADC_bm|PR_AC_bm); \
 516:/usr/lib/avr/include/avr/power.h ****     PR_PRPB &= (uint8_t)~(PR_ADC_bm|PR_AC_bm); \
 517:/usr/lib/avr/include/avr/power.h ****     PR_PRPC &= (uint8_t)~(PR_TWI_bm|PR_USART0_bm|PR_SPI_bm|PR_HIRES_bm|PR_TC1_bm|PR_TC0_bm); \
 518:/usr/lib/avr/include/avr/power.h ****     PR_PRPD &= (uint8_t)~(PR_TWI_bm|PR_USART0_bm|PR_SPI_bm|PR_HIRES_bm|PR_TC1_bm|PR_TC0_bm); \
 519:/usr/lib/avr/include/avr/power.h ****     PR_PRPE &= (uint8_t)~(PR_TWI_bm|PR_USART0_bm|PR_SPI_bm|PR_HIRES_bm|PR_TC1_bm|PR_TC0_bm); \
 520:/usr/lib/avr/include/avr/power.h ****     PR_PRPF &= (uint8_t)~(PR_TWI_bm|PR_USART0_bm|PR_SPI_bm|PR_HIRES_bm|PR_TC1_bm|PR_TC0_bm); \
 521:/usr/lib/avr/include/avr/power.h **** } while(0)
 522:/usr/lib/avr/include/avr/power.h **** 
 523:/usr/lib/avr/include/avr/power.h **** 
 524:/usr/lib/avr/include/avr/power.h **** #define power_all_disable() \
 525:/usr/lib/avr/include/avr/power.h **** do { \
 526:/usr/lib/avr/include/avr/power.h ****     PR_PRGEN|= (uint8_t)(PR_EBI_bm|PR_RTC_bm|PR_EVSYS_bm|PR_DMA_bm); \
 527:/usr/lib/avr/include/avr/power.h ****     PR_PRPA |= (uint8_t)(PR_ADC_bm|PR_AC_bm); \
 528:/usr/lib/avr/include/avr/power.h ****     PR_PRPB |= (uint8_t)(PR_ADC_bm|PR_AC_bm); \
 529:/usr/lib/avr/include/avr/power.h ****     PR_PRPC |= (uint8_t)(PR_TWI_bm|R_USART0_bm|PR_SPI_bm|PR_HIRES_bm|PR_TC1_bm|PR_TC0_bm); \
 530:/usr/lib/avr/include/avr/power.h ****     PR_PRPD |= (uint8_t)(PR_TWI_bm|PR_USART0_bm|PR_SPI_bm|PR_HIRES_bm|PR_TC1_bm|PR_TC0_bm); \
 531:/usr/lib/avr/include/avr/power.h ****     PR_PRPE |= (uint8_t)(PR_TWI_bm|PR_USART0_bm|PR_SPI_bm|PR_HIRES_bm|PR_TC1_bm|PR_TC0_bm); \
 532:/usr/lib/avr/include/avr/power.h ****     PR_PRPF |= (uint8_t)(PR_TWI_bm|PR_USART0_bm|PR_SPI_bm|PR_HIRES_bm|PR_TC1_bm|PR_TC0_bm); \
 533:/usr/lib/avr/include/avr/power.h **** } while(0)
 534:/usr/lib/avr/include/avr/power.h **** 
 535:/usr/lib/avr/include/avr/power.h **** #elif defined(__AVR_ATmega640__) \
 536:/usr/lib/avr/include/avr/power.h **** || defined(__AVR_ATmega1280__) \
 537:/usr/lib/avr/include/avr/power.h **** || defined(__AVR_ATmega1281__) \
 538:/usr/lib/avr/include/avr/power.h **** || defined(__AVR_ATmega2560__) \
 539:/usr/lib/avr/include/avr/power.h **** || defined(__AVR_ATmega2561__) 
 540:/usr/lib/avr/include/avr/power.h **** 
 541:/usr/lib/avr/include/avr/power.h **** #define power_adc_enable()      (PRR0 &= (uint8_t)~(1 << PRADC))
 542:/usr/lib/avr/include/avr/power.h **** #define power_adc_disable()     (PRR0 |= (uint8_t)(1 << PRADC))
 543:/usr/lib/avr/include/avr/power.h **** 
 544:/usr/lib/avr/include/avr/power.h **** #define power_spi_enable()      (PRR0 &= (uint8_t)~(1 << PRSPI))
 545:/usr/lib/avr/include/avr/power.h **** #define power_spi_disable()     (PRR0 |= (uint8_t)(1 << PRSPI))
 546:/usr/lib/avr/include/avr/power.h **** 
 547:/usr/lib/avr/include/avr/power.h **** #define power_twi_enable()      (PRR0 &= (uint8_t)~(1 << PRTWI))
 548:/usr/lib/avr/include/avr/power.h **** #define power_twi_disable()     (PRR0 |= (uint8_t)(1 << PRTWI))
 549:/usr/lib/avr/include/avr/power.h **** 
 550:/usr/lib/avr/include/avr/power.h **** #define power_timer0_enable()   (PRR0 &= (uint8_t)~(1 << PRTIM0))
 551:/usr/lib/avr/include/avr/power.h **** #define power_timer0_disable()  (PRR0 |= (uint8_t)(1 << PRTIM0))
 552:/usr/lib/avr/include/avr/power.h **** 
 553:/usr/lib/avr/include/avr/power.h **** #define power_timer1_enable()   (PRR0 &= (uint8_t)~(1 << PRTIM1))
 554:/usr/lib/avr/include/avr/power.h **** #define power_timer1_disable()  (PRR0 |= (uint8_t)(1 << PRTIM1))
 555:/usr/lib/avr/include/avr/power.h **** 
 556:/usr/lib/avr/include/avr/power.h **** #define power_timer2_enable()   (PRR0 &= (uint8_t)~(1 << PRTIM2))
 557:/usr/lib/avr/include/avr/power.h **** #define power_timer2_disable()  (PRR0 |= (uint8_t)(1 << PRTIM2))
 558:/usr/lib/avr/include/avr/power.h **** 
 559:/usr/lib/avr/include/avr/power.h **** #define power_timer3_enable()   (PRR1 &= (uint8_t)~(1 << PRTIM3))
 560:/usr/lib/avr/include/avr/power.h **** #define power_timer3_disable()  (PRR1 |= (uint8_t)(1 << PRTIM3))
 561:/usr/lib/avr/include/avr/power.h **** 
 562:/usr/lib/avr/include/avr/power.h **** #define power_timer4_enable()   (PRR1 &= (uint8_t)~(1 << PRTIM4))
 563:/usr/lib/avr/include/avr/power.h **** #define power_timer4_disable()  (PRR1 |= (uint8_t)(1 << PRTIM4))
 564:/usr/lib/avr/include/avr/power.h **** 
 565:/usr/lib/avr/include/avr/power.h **** #define power_timer5_enable()   (PRR1 &= (uint8_t)~(1 << PRTIM5))
 566:/usr/lib/avr/include/avr/power.h **** #define power_timer5_disable()  (PRR1 |= (uint8_t)(1 << PRTIM5))
 567:/usr/lib/avr/include/avr/power.h **** 
 568:/usr/lib/avr/include/avr/power.h **** #define power_usart0_enable()   (PRR0 &= (uint8_t)~(1 << PRUSART0))
 569:/usr/lib/avr/include/avr/power.h **** #define power_usart0_disable()  (PRR0 |= (uint8_t)(1 << PRUSART0))
 570:/usr/lib/avr/include/avr/power.h **** 
 571:/usr/lib/avr/include/avr/power.h **** #define power_usart1_enable()   (PRR1 &= (uint8_t)~(1 << PRUSART1))
 572:/usr/lib/avr/include/avr/power.h **** #define power_usart1_disable()  (PRR1 |= (uint8_t)(1 << PRUSART1))
 573:/usr/lib/avr/include/avr/power.h **** 
 574:/usr/lib/avr/include/avr/power.h **** #define power_usart2_enable()   (PRR1 &= (uint8_t)~(1 << PRUSART2))
 575:/usr/lib/avr/include/avr/power.h **** #define power_usart2_disable()  (PRR1 |= (uint8_t)(1 << PRUSART2))
 576:/usr/lib/avr/include/avr/power.h **** 
 577:/usr/lib/avr/include/avr/power.h **** #define power_usart3_enable()   (PRR1 &= (uint8_t)~(1 << PRUSART3))
 578:/usr/lib/avr/include/avr/power.h **** #define power_usart3_disable()  (PRR1 |= (uint8_t)(1 << PRUSART3))
 579:/usr/lib/avr/include/avr/power.h **** 
 580:/usr/lib/avr/include/avr/power.h **** #define power_all_enable() \
 581:/usr/lib/avr/include/avr/power.h **** do{ \
 582:/usr/lib/avr/include/avr/power.h ****     PRR0 &= (uint8_t)~((1<<PRADC)|(1<<PRSPI)|(1<<PRTWI)|(1<<PRTIM0)|(1<<PRTIM1)|(1<<PRTIM2)|(1<<PRU
 583:/usr/lib/avr/include/avr/power.h ****     PRR1 &= (uint8_t)~((1<<PRTIM3)|(1<<PRTIM4)|(1<<PRTIM5)|(1<<PRTIM5)|(1<<PRUSART1)|(1<<PRUSART2)|
 584:/usr/lib/avr/include/avr/power.h **** }while(0)
 585:/usr/lib/avr/include/avr/power.h **** 
 586:/usr/lib/avr/include/avr/power.h **** #define power_all_disable() \
 587:/usr/lib/avr/include/avr/power.h **** do{ \
 588:/usr/lib/avr/include/avr/power.h ****     PRR0 |= (uint8_t)((1<<PRADC)|(1<<PRSPI)|(1<<PRTWI)|(1<<PRTIM0)|(1<<PRTIM1)|(1<<PRTIM2)|(1<<PRUS
 589:/usr/lib/avr/include/avr/power.h ****     PRR1 |= (uint8_t)((1<<PRTIM3)|(1<<PRTIM4)|(1<<PRTIM5)|(1<<PRTIM5)|(1<<PRUSART1)|(1<<PRUSART2)|(
 590:/usr/lib/avr/include/avr/power.h **** }while(0)
 591:/usr/lib/avr/include/avr/power.h **** 
 592:/usr/lib/avr/include/avr/power.h **** 
 593:/usr/lib/avr/include/avr/power.h **** #elif defined(__AVR_ATmega128RFA1__)
 594:/usr/lib/avr/include/avr/power.h **** 
 595:/usr/lib/avr/include/avr/power.h **** #define power_adc_enable()      (PRR0 &= (uint8_t)~(1 << PRADC))
 596:/usr/lib/avr/include/avr/power.h **** #define power_adc_disable()     (PRR0 |= (uint8_t)(1 << PRADC))
 597:/usr/lib/avr/include/avr/power.h **** 
 598:/usr/lib/avr/include/avr/power.h **** #define power_spi_enable()      (PRR0 &= (uint8_t)~(1 << PRSPI))
 599:/usr/lib/avr/include/avr/power.h **** #define power_spi_disable()     (PRR0 |= (uint8_t)(1 << PRSPI))
 600:/usr/lib/avr/include/avr/power.h **** 
 601:/usr/lib/avr/include/avr/power.h **** #define power_twi_enable()      (PRR0 &= (uint8_t)~(1 << PRTWI))
 602:/usr/lib/avr/include/avr/power.h **** #define power_twi_disable()     (PRR0 |= (uint8_t)(1 << PRTWI))
 603:/usr/lib/avr/include/avr/power.h **** 
 604:/usr/lib/avr/include/avr/power.h **** #define power_timer0_enable()   (PRR0 &= (uint8_t)~(1 << PRTIM0))
 605:/usr/lib/avr/include/avr/power.h **** #define power_timer0_disable()  (PRR0 |= (uint8_t)(1 << PRTIM0))
 606:/usr/lib/avr/include/avr/power.h **** 
 607:/usr/lib/avr/include/avr/power.h **** #define power_timer1_enable()   (PRR0 &= (uint8_t)~(1 << PRTIM1))
 608:/usr/lib/avr/include/avr/power.h **** #define power_timer1_disable()  (PRR0 |= (uint8_t)(1 << PRTIM1))
 609:/usr/lib/avr/include/avr/power.h **** 
 610:/usr/lib/avr/include/avr/power.h **** #define power_timer2_enable()   (PRR0 &= (uint8_t)~(1 << PRTIM2))
 611:/usr/lib/avr/include/avr/power.h **** #define power_timer2_disable()  (PRR0 |= (uint8_t)(1 << PRTIM2))
 612:/usr/lib/avr/include/avr/power.h **** 
 613:/usr/lib/avr/include/avr/power.h **** #define power_timer3_enable()   (PRR1 &= (uint8_t)~(1 << PRTIM3))
 614:/usr/lib/avr/include/avr/power.h **** #define power_timer3_disable()  (PRR1 |= (uint8_t)(1 << PRTIM3))
 615:/usr/lib/avr/include/avr/power.h **** 
 616:/usr/lib/avr/include/avr/power.h **** #define power_timer4_enable()   (PRR1 &= (uint8_t)~(1 << PRTIM4))
 617:/usr/lib/avr/include/avr/power.h **** #define power_timer4_disable()  (PRR1 |= (uint8_t)(1 << PRTIM4))
 618:/usr/lib/avr/include/avr/power.h **** 
 619:/usr/lib/avr/include/avr/power.h **** #define power_timer5_enable()   (PRR1 &= (uint8_t)~(1 << PRTIM5))
 620:/usr/lib/avr/include/avr/power.h **** #define power_timer5_disable()  (PRR1 |= (uint8_t)(1 << PRTIM5))
 621:/usr/lib/avr/include/avr/power.h **** 
 622:/usr/lib/avr/include/avr/power.h **** #define power_usart0_enable()   (PRR0 &= (uint8_t)~(1 << PRUSART0))
 623:/usr/lib/avr/include/avr/power.h **** #define power_usart0_disable()  (PRR0 |= (uint8_t)(1 << PRUSART0))
 624:/usr/lib/avr/include/avr/power.h **** 
 625:/usr/lib/avr/include/avr/power.h **** #define power_usart1_enable()   (PRR1 &= (uint8_t)~(1 << PRUSART1))
 626:/usr/lib/avr/include/avr/power.h **** #define power_usart1_disable()  (PRR1 |= (uint8_t)(1 << PRUSART1))
 627:/usr/lib/avr/include/avr/power.h **** 
 628:/usr/lib/avr/include/avr/power.h **** #define power_all_enable() \
 629:/usr/lib/avr/include/avr/power.h **** do{ \
 630:/usr/lib/avr/include/avr/power.h ****     PRR0 &= (uint8_t)~((1<<PRADC)|(1<<PRSPI)|(1<<PRTWI)|(1<<PRTIM0)|(1<<PRTIM1)|(1<<PRTIM2)|(1<<PRU
 631:/usr/lib/avr/include/avr/power.h ****     PRR1 &= (uint8_t)~((1<<PRTIM3)|(1<<PRTIM4)|(1<<PRTIM5)|(1<<PRTIM5)|(1<<PRUSART1)); \
 632:/usr/lib/avr/include/avr/power.h **** }while(0)
 633:/usr/lib/avr/include/avr/power.h **** 
 634:/usr/lib/avr/include/avr/power.h **** #define power_all_disable() \
 635:/usr/lib/avr/include/avr/power.h **** do{ \
 636:/usr/lib/avr/include/avr/power.h ****     PRR0 |= (uint8_t)((1<<PRADC)|(1<<PRSPI)|(1<<PRTWI)|(1<<PRTIM0)|(1<<PRTIM1)|(1<<PRTIM2)|(1<<PRUS
 637:/usr/lib/avr/include/avr/power.h ****     PRR1 |= (uint8_t)((1<<PRTIM3)|(1<<PRTIM4)|(1<<PRTIM5)|(1<<PRTIM5)|(1<<PRUSART1)); \
 638:/usr/lib/avr/include/avr/power.h **** }while(0)
 639:/usr/lib/avr/include/avr/power.h **** 
 640:/usr/lib/avr/include/avr/power.h **** 
 641:/usr/lib/avr/include/avr/power.h **** #elif defined(__AVR_AT90USB646__) \
 642:/usr/lib/avr/include/avr/power.h **** || defined(__AVR_AT90USB647__) \
 643:/usr/lib/avr/include/avr/power.h **** || defined(__AVR_AT90USB1286__) \
 644:/usr/lib/avr/include/avr/power.h **** || defined(__AVR_AT90USB1287__)
 645:/usr/lib/avr/include/avr/power.h **** 
 646:/usr/lib/avr/include/avr/power.h **** #define power_adc_enable()      (PRR0 &= (uint8_t)~(1 << PRADC))
 647:/usr/lib/avr/include/avr/power.h **** #define power_adc_disable()     (PRR0 |= (uint8_t)(1 << PRADC))
 648:/usr/lib/avr/include/avr/power.h **** 
 649:/usr/lib/avr/include/avr/power.h **** #define power_spi_enable()      (PRR0 &= (uint8_t)~(1 << PRSPI))
 650:/usr/lib/avr/include/avr/power.h **** #define power_spi_disable()     (PRR0 |= (uint8_t)(1 << PRSPI))
 651:/usr/lib/avr/include/avr/power.h **** 
 652:/usr/lib/avr/include/avr/power.h **** #define power_twi_enable()      (PRR0 &= (uint8_t)~(1 << PRTWI))
 653:/usr/lib/avr/include/avr/power.h **** #define power_twi_disable()     (PRR0 |= (uint8_t)(1 << PRTWI))
 654:/usr/lib/avr/include/avr/power.h **** 
 655:/usr/lib/avr/include/avr/power.h **** #define power_timer0_enable()   (PRR0 &= (uint8_t)~(1 << PRTIM0))
 656:/usr/lib/avr/include/avr/power.h **** #define power_timer0_disable()  (PRR0 |= (uint8_t)(1 << PRTIM0))
 657:/usr/lib/avr/include/avr/power.h **** 
 658:/usr/lib/avr/include/avr/power.h **** #define power_timer1_enable()   (PRR0 &= (uint8_t)~(1 << PRTIM1))
 659:/usr/lib/avr/include/avr/power.h **** #define power_timer1_disable()  (PRR0 |= (uint8_t)(1 << PRTIM1))
 660:/usr/lib/avr/include/avr/power.h **** 
 661:/usr/lib/avr/include/avr/power.h **** #define power_timer2_enable()   (PRR0 &= (uint8_t)~(1 << PRTIM2))
 662:/usr/lib/avr/include/avr/power.h **** #define power_timer2_disable()  (PRR0 |= (uint8_t)(1 << PRTIM2))
 663:/usr/lib/avr/include/avr/power.h **** 
 664:/usr/lib/avr/include/avr/power.h **** #define power_timer3_enable()   (PRR1 &= (uint8_t)~(1 << PRTIM3))
 665:/usr/lib/avr/include/avr/power.h **** #define power_timer3_disable()  (PRR1 |= (uint8_t)(1 << PRTIM3))
 666:/usr/lib/avr/include/avr/power.h **** 
 667:/usr/lib/avr/include/avr/power.h **** #define power_usart1_enable()   (PRR1 &= (uint8_t)~(1 << PRUSART1))
 668:/usr/lib/avr/include/avr/power.h **** #define power_usart1_disable()  (PRR1 |= (uint8_t)(1 << PRUSART1))
 669:/usr/lib/avr/include/avr/power.h **** 
 670:/usr/lib/avr/include/avr/power.h **** #define power_usb_enable()      (PRR1 &= (uint8_t)~(1 << PRUSB))
 671:/usr/lib/avr/include/avr/power.h **** #define power_usb_disable()     (PRR1 |= (uint8_t)(1 << PRUSB))
 672:/usr/lib/avr/include/avr/power.h **** 
 673:/usr/lib/avr/include/avr/power.h **** #define power_all_enable() \
 674:/usr/lib/avr/include/avr/power.h **** do{ \
 675:/usr/lib/avr/include/avr/power.h ****     PRR0 &= (uint8_t)~((1<<PRADC)|(1<<PRSPI)|(1<<PRTWI)|(1<<PRTIM0)|(1<<PRTIM1)|(1<<PRTIM2)); \
 676:/usr/lib/avr/include/avr/power.h ****     PRR1 &= (uint8_t)~((1<<PRTIM3)|(1<<PRUSART1)|(1<<PRUSB)); \
 677:/usr/lib/avr/include/avr/power.h **** }while(0)
 678:/usr/lib/avr/include/avr/power.h **** 
 679:/usr/lib/avr/include/avr/power.h **** #define power_all_disable() \
 680:/usr/lib/avr/include/avr/power.h **** do{ \
 681:/usr/lib/avr/include/avr/power.h ****     PRR0 |= (uint8_t)((1<<PRADC)|(1<<PRSPI)|(1<<PRTWI)|(1<<PRTIM0)|(1<<PRTIM1)|(1<<PRTIM2)); \
 682:/usr/lib/avr/include/avr/power.h ****     PRR1 |= (uint8_t)((1<<PRTIM3)|(1<<PRUSART1)|(1<<PRUSB)); \
 683:/usr/lib/avr/include/avr/power.h **** }while(0)
 684:/usr/lib/avr/include/avr/power.h **** 
 685:/usr/lib/avr/include/avr/power.h **** 
 686:/usr/lib/avr/include/avr/power.h **** #elif defined(__AVR_ATmega32U4__) \
 687:/usr/lib/avr/include/avr/power.h **** || defined(__AVR_ATmega16U4__)
 688:/usr/lib/avr/include/avr/power.h **** 
 689:/usr/lib/avr/include/avr/power.h **** 
 690:/usr/lib/avr/include/avr/power.h **** #define power_adc_enable()      (PRR0 &= (uint8_t)~(1 << PRADC))
 691:/usr/lib/avr/include/avr/power.h **** #define power_adc_disable()     (PRR0 |= (uint8_t)(1 << PRADC))
 692:/usr/lib/avr/include/avr/power.h **** 
 693:/usr/lib/avr/include/avr/power.h **** #define power_usart0_enable()   (PRR0 &= (uint8_t)~(1 << PRUSART0))
 694:/usr/lib/avr/include/avr/power.h **** #define power_usart0_disable()  (PRR0 |= (uint8_t)(1 << PRUSART0))
 695:/usr/lib/avr/include/avr/power.h **** 
 696:/usr/lib/avr/include/avr/power.h **** #define power_spi_enable()      (PRR0 &= (uint8_t)~(1 << PRSPI))
 697:/usr/lib/avr/include/avr/power.h **** #define power_spi_disable()     (PRR0 |= (uint8_t)(1 << PRSPI))
 698:/usr/lib/avr/include/avr/power.h **** 
 699:/usr/lib/avr/include/avr/power.h **** #define power_twi_enable()      (PRR0 &= (uint8_t)~(1 << PRTWI))
 700:/usr/lib/avr/include/avr/power.h **** #define power_twi_disable()     (PRR0 |= (uint8_t)(1 << PRTWI))
 701:/usr/lib/avr/include/avr/power.h **** 
 702:/usr/lib/avr/include/avr/power.h **** #define power_timer0_enable()   (PRR0 &= (uint8_t)~(1 << PRTIM0))
 703:/usr/lib/avr/include/avr/power.h **** #define power_timer0_disable()  (PRR0 |= (uint8_t)(1 << PRTIM0))
 704:/usr/lib/avr/include/avr/power.h **** 
 705:/usr/lib/avr/include/avr/power.h **** #define power_timer1_enable()   (PRR0 &= (uint8_t)~(1 << PRTIM1))
 706:/usr/lib/avr/include/avr/power.h **** #define power_timer1_disable()  (PRR0 |= (uint8_t)(1 << PRTIM1))
 707:/usr/lib/avr/include/avr/power.h **** 
 708:/usr/lib/avr/include/avr/power.h **** #define power_timer2_enable()   (PRR0 &= (uint8_t)~(1 << PRTIM2))
 709:/usr/lib/avr/include/avr/power.h **** #define power_timer2_disable()  (PRR0 |= (uint8_t)(1 << PRTIM2))
 710:/usr/lib/avr/include/avr/power.h **** 
 711:/usr/lib/avr/include/avr/power.h **** #define power_timer3_enable()   (PRR1 &= (uint8_t)~(1 << PRTIM3))
 712:/usr/lib/avr/include/avr/power.h **** #define power_timer3_disable()  (PRR1 |= (uint8_t)(1 << PRTIM3))
 713:/usr/lib/avr/include/avr/power.h **** 
 714:/usr/lib/avr/include/avr/power.h **** #define power_usart1_enable()   (PRR1 &= (uint8_t)~(1 << PRUSART1))
 715:/usr/lib/avr/include/avr/power.h **** #define power_usart1_disable()  (PRR1 |= (uint8_t)(1 << PRUSART1))
 716:/usr/lib/avr/include/avr/power.h **** 
 717:/usr/lib/avr/include/avr/power.h **** #define power_usb_enable()      (PRR1 &= (uint8_t)~(1 << PRUSB))
 718:/usr/lib/avr/include/avr/power.h **** #define power_usb_disable()     (PRR1 |= (uint8_t)(1 << PRUSB))
 719:/usr/lib/avr/include/avr/power.h **** 
 720:/usr/lib/avr/include/avr/power.h **** #define power_all_enable() \
 721:/usr/lib/avr/include/avr/power.h **** do{ \
 722:/usr/lib/avr/include/avr/power.h ****     PRR0 &= (uint8_t)~((1<<PRADC)|(1<<PRUSART0)|(1<<PRSPI)|(1<<PRTWI)|(1<<PRTIM0)|(1<<PRTIM1)|(1<<P
 723:/usr/lib/avr/include/avr/power.h ****     PRR1 &= (uint8_t)~((1<<PRTIM3)|(1<<PRUSART1)|(1<<PRUSB)); \
 724:/usr/lib/avr/include/avr/power.h **** }while(0)
 725:/usr/lib/avr/include/avr/power.h **** 
 726:/usr/lib/avr/include/avr/power.h **** #define power_all_disable() \
 727:/usr/lib/avr/include/avr/power.h **** do{ \
 728:/usr/lib/avr/include/avr/power.h ****     PRR0 |= (uint8_t)((1<<PRADC)|(1<<PRUSART0)|(1<<PRSPI)|(1<<PRTWI)|(1<<PRTIM0)|(1<<PRTIM1)|(1<<PR
 729:/usr/lib/avr/include/avr/power.h ****     PRR1 |= (uint8_t)((1<<PRTIM3)|(1<<PRUSART1)|(1<<PRUSB)); \
 730:/usr/lib/avr/include/avr/power.h **** }while(0)
 731:/usr/lib/avr/include/avr/power.h **** 
 732:/usr/lib/avr/include/avr/power.h **** 
 733:/usr/lib/avr/include/avr/power.h **** #elif defined(__AVR_ATmega32U6__)
 734:/usr/lib/avr/include/avr/power.h **** 
 735:/usr/lib/avr/include/avr/power.h **** 
 736:/usr/lib/avr/include/avr/power.h **** #define power_adc_enable()      (PRR0 &= (uint8_t)~(1 << PRADC))
 737:/usr/lib/avr/include/avr/power.h **** #define power_adc_disable()     (PRR0 |= (uint8_t)(1 << PRADC))
 738:/usr/lib/avr/include/avr/power.h **** 
 739:/usr/lib/avr/include/avr/power.h **** #define power_spi_enable()      (PRR0 &= (uint8_t)~(1 << PRSPI))
 740:/usr/lib/avr/include/avr/power.h **** #define power_spi_disable()     (PRR0 |= (uint8_t)(1 << PRSPI))
 741:/usr/lib/avr/include/avr/power.h **** 
 742:/usr/lib/avr/include/avr/power.h **** #define power_twi_enable()      (PRR0 &= (uint8_t)~(1 << PRTWI))
 743:/usr/lib/avr/include/avr/power.h **** #define power_twi_disable()     (PRR0 |= (uint8_t)(1 << PRTWI))
 744:/usr/lib/avr/include/avr/power.h **** 
 745:/usr/lib/avr/include/avr/power.h **** #define power_timer0_enable()   (PRR0 &= (uint8_t)~(1 << PRTIM0))
 746:/usr/lib/avr/include/avr/power.h **** #define power_timer0_disable()  (PRR0 |= (uint8_t)(1 << PRTIM0))
 747:/usr/lib/avr/include/avr/power.h **** 
 748:/usr/lib/avr/include/avr/power.h **** #define power_timer1_enable()   (PRR0 &= (uint8_t)~(1 << PRTIM1))
 749:/usr/lib/avr/include/avr/power.h **** #define power_timer1_disable()  (PRR0 |= (uint8_t)(1 << PRTIM1))
 750:/usr/lib/avr/include/avr/power.h **** 
 751:/usr/lib/avr/include/avr/power.h **** #define power_timer2_enable()   (PRR0 &= (uint8_t)~(1 << PRTIM2))
 752:/usr/lib/avr/include/avr/power.h **** #define power_timer2_disable()  (PRR0 |= (uint8_t)(1 << PRTIM2))
 753:/usr/lib/avr/include/avr/power.h **** 
 754:/usr/lib/avr/include/avr/power.h **** #define power_timer3_enable()   (PRR1 &= (uint8_t)~(1 << PRTIM3))
 755:/usr/lib/avr/include/avr/power.h **** #define power_timer3_disable()  (PRR1 |= (uint8_t)(1 << PRTIM3))
 756:/usr/lib/avr/include/avr/power.h **** 
 757:/usr/lib/avr/include/avr/power.h **** #define power_usart1_enable()   (PRR1 &= (uint8_t)~(1 << PRUSART1))
 758:/usr/lib/avr/include/avr/power.h **** #define power_usart1_disable()  (PRR1 |= (uint8_t)(1 << PRUSART1))
 759:/usr/lib/avr/include/avr/power.h **** 
 760:/usr/lib/avr/include/avr/power.h **** #define power_usb_enable()      (PRR1 &= (uint8_t)~(1 << PRUSB))
 761:/usr/lib/avr/include/avr/power.h **** #define power_usb_disable()     (PRR1 |= (uint8_t)(1 << PRUSB))
 762:/usr/lib/avr/include/avr/power.h **** 
 763:/usr/lib/avr/include/avr/power.h **** #define power_all_enable() \
 764:/usr/lib/avr/include/avr/power.h **** do{ \
 765:/usr/lib/avr/include/avr/power.h ****     PRR0 &= (uint8_t)~((1<<PRADC)|(1<<PRSPI)|(1<<PRTWI)|(1<<PRTIM0)|(1<<PRTIM1)|(1<<PRTIM2)); \
 766:/usr/lib/avr/include/avr/power.h ****     PRR1 &= (uint8_t)~((1<<PRTIM3)|(1<<PRUSART1)|(1<<PRUSB)); \
 767:/usr/lib/avr/include/avr/power.h **** }while(0)
 768:/usr/lib/avr/include/avr/power.h **** 
 769:/usr/lib/avr/include/avr/power.h **** #define power_all_disable() \
 770:/usr/lib/avr/include/avr/power.h **** do{ \
 771:/usr/lib/avr/include/avr/power.h ****     PRR0 |= (uint8_t)((1<<PRADC)|(1<<PRSPI)|(1<<PRTWI)|(1<<PRTIM0)|(1<<PRTIM1)|(1<<PRTIM2)); \
 772:/usr/lib/avr/include/avr/power.h ****     PRR1 |= (uint8_t)((1<<PRTIM3)|(1<<PRUSART1)|(1<<PRUSB)); \
 773:/usr/lib/avr/include/avr/power.h **** }while(0)
 774:/usr/lib/avr/include/avr/power.h **** 
 775:/usr/lib/avr/include/avr/power.h **** 
 776:/usr/lib/avr/include/avr/power.h **** #elif defined(__AVR_AT90PWM1__)
 777:/usr/lib/avr/include/avr/power.h **** 
 778:/usr/lib/avr/include/avr/power.h **** #define power_adc_enable()      (PRR &= (uint8_t)~(1 << PRADC))
 779:/usr/lib/avr/include/avr/power.h **** #define power_adc_disable()     (PRR |= (uint8_t)(1 << PRADC))
 780:/usr/lib/avr/include/avr/power.h **** 
 781:/usr/lib/avr/include/avr/power.h **** #define power_spi_enable()      (PRR &= (uint8_t)~(1 << PRSPI))
 782:/usr/lib/avr/include/avr/power.h **** #define power_spi_disable()     (PRR |= (uint8_t)(1 << PRSPI))
 783:/usr/lib/avr/include/avr/power.h **** 
 784:/usr/lib/avr/include/avr/power.h **** #define power_timer0_enable()   (PRR &= (uint8_t)~(1 << PRTIM0))
 785:/usr/lib/avr/include/avr/power.h **** #define power_timer0_disable()  (PRR |= (uint8_t)(1 << PRTIM0))
 786:/usr/lib/avr/include/avr/power.h **** 
 787:/usr/lib/avr/include/avr/power.h **** #define power_timer1_enable()   (PRR &= (uint8_t)~(1 << PRTIM1))
 788:/usr/lib/avr/include/avr/power.h **** #define power_timer1_disable()  (PRR |= (uint8_t)(1 << PRTIM1))
 789:/usr/lib/avr/include/avr/power.h **** 
 790:/usr/lib/avr/include/avr/power.h **** /* Power Stage Controller 0 */
 791:/usr/lib/avr/include/avr/power.h **** #define power_psc0_enable()     (PRR &= (uint8_t)~(1 << PRPSC0))
 792:/usr/lib/avr/include/avr/power.h **** #define power_psc0_disable()    (PRR |= (uint8_t)(1 << PRPSC0))
 793:/usr/lib/avr/include/avr/power.h **** 
 794:/usr/lib/avr/include/avr/power.h **** /* Power Stage Controller 1 */
 795:/usr/lib/avr/include/avr/power.h **** #define power_psc1_enable()     (PRR &= (uint8_t)~(1 << PRPSC1))
 796:/usr/lib/avr/include/avr/power.h **** #define power_psc1_disable()    (PRR |= (uint8_t)(1 << PRPSC1))
 797:/usr/lib/avr/include/avr/power.h **** 
 798:/usr/lib/avr/include/avr/power.h **** /* Power Stage Controller 2 */
 799:/usr/lib/avr/include/avr/power.h **** #define power_psc2_enable()     (PRR &= (uint8_t)~(1 << PRPSC2))
 800:/usr/lib/avr/include/avr/power.h **** #define power_psc2_disable()    (PRR |= (uint8_t)(1 << PRPSC2))
 801:/usr/lib/avr/include/avr/power.h **** 
 802:/usr/lib/avr/include/avr/power.h **** #define power_all_enable()      (PRR &= (uint8_t)~((1<<PRADC)|(1<<PRSPI)|(1<<PRTIM0)|(1<<PRTIM1)|(1
 803:/usr/lib/avr/include/avr/power.h **** #define power_all_disable()     (PRR |= (uint8_t)((1<<PRADC)|(1<<PRSPI)|(1<<PRTIM0)|(1<<PRTIM1)|(1<
 804:/usr/lib/avr/include/avr/power.h **** 
 805:/usr/lib/avr/include/avr/power.h **** 
 806:/usr/lib/avr/include/avr/power.h **** #elif defined(__AVR_AT90PWM2__) \
 807:/usr/lib/avr/include/avr/power.h **** || defined(__AVR_AT90PWM2B__) \
 808:/usr/lib/avr/include/avr/power.h **** || defined(__AVR_AT90PWM3__) \
 809:/usr/lib/avr/include/avr/power.h **** || defined(__AVR_AT90PWM3B__) \
 810:/usr/lib/avr/include/avr/power.h **** || defined(__AVR_AT90PWM216__) \
 811:/usr/lib/avr/include/avr/power.h **** || defined(__AVR_AT90PWM316__)
 812:/usr/lib/avr/include/avr/power.h **** 
 813:/usr/lib/avr/include/avr/power.h **** #define power_adc_enable()      (PRR &= (uint8_t)~(1 << PRADC))
 814:/usr/lib/avr/include/avr/power.h **** #define power_adc_disable()     (PRR |= (uint8_t)(1 << PRADC))
 815:/usr/lib/avr/include/avr/power.h **** 
 816:/usr/lib/avr/include/avr/power.h **** #define power_spi_enable()      (PRR &= (uint8_t)~(1 << PRSPI))
 817:/usr/lib/avr/include/avr/power.h **** #define power_spi_disable()     (PRR |= (uint8_t)(1 << PRSPI))
 818:/usr/lib/avr/include/avr/power.h **** 
 819:/usr/lib/avr/include/avr/power.h **** #define power_usart_enable()    (PRR &= (uint8_t)~(1 << PRUSART))
 820:/usr/lib/avr/include/avr/power.h **** #define power_usart_disable()   (PRR |= (uint8_t)(1 << PRUSART))
 821:/usr/lib/avr/include/avr/power.h **** 
 822:/usr/lib/avr/include/avr/power.h **** #define power_timer0_enable()   (PRR &= (uint8_t)~(1 << PRTIM0))
 823:/usr/lib/avr/include/avr/power.h **** #define power_timer0_disable()  (PRR |= (uint8_t)(1 << PRTIM0))
 824:/usr/lib/avr/include/avr/power.h **** 
 825:/usr/lib/avr/include/avr/power.h **** #define power_timer1_enable()   (PRR &= (uint8_t)~(1 << PRTIM1))
 826:/usr/lib/avr/include/avr/power.h **** #define power_timer1_disable()  (PRR |= (uint8_t)(1 << PRTIM1))
 827:/usr/lib/avr/include/avr/power.h **** 
 828:/usr/lib/avr/include/avr/power.h **** /* Power Stage Controller 0 */
 829:/usr/lib/avr/include/avr/power.h **** #define power_psc0_enable()     (PRR &= (uint8_t)~(1 << PRPSC0))
 830:/usr/lib/avr/include/avr/power.h **** #define power_psc0_disable()    (PRR |= (uint8_t)(1 << PRPSC0))
 831:/usr/lib/avr/include/avr/power.h **** 
 832:/usr/lib/avr/include/avr/power.h **** /* Power Stage Controller 1 */
 833:/usr/lib/avr/include/avr/power.h **** #define power_psc1_enable()     (PRR &= (uint8_t)~(1 << PRPSC1))
 834:/usr/lib/avr/include/avr/power.h **** #define power_psc1_disable()    (PRR |= (uint8_t)(1 << PRPSC1))
 835:/usr/lib/avr/include/avr/power.h **** 
 836:/usr/lib/avr/include/avr/power.h **** /* Power Stage Controller 2 */
 837:/usr/lib/avr/include/avr/power.h **** #define power_psc2_enable()     (PRR &= (uint8_t)~(1 << PRPSC2))
 838:/usr/lib/avr/include/avr/power.h **** #define power_psc2_disable()    (PRR |= (uint8_t)(1 << PRPSC2))
 839:/usr/lib/avr/include/avr/power.h **** 
 840:/usr/lib/avr/include/avr/power.h **** #define power_all_enable()      (PRR &= (uint8_t)~((1<<PRADC)|(1<<PRSPI)|(1<<PRUSART)|(1<<PRTIM0)|(
 841:/usr/lib/avr/include/avr/power.h **** #define power_all_disable()     (PRR |= (uint8_t)((1<<PRADC)|(1<<PRSPI)|(1<<PRUSART)|(1<<PRTIM0)|(1
 842:/usr/lib/avr/include/avr/power.h **** 
 843:/usr/lib/avr/include/avr/power.h **** 
 844:/usr/lib/avr/include/avr/power.h **** #elif defined(__AVR_AT90PWM81__)
 845:/usr/lib/avr/include/avr/power.h **** 
 846:/usr/lib/avr/include/avr/power.h **** #define power_adc_enable()      (PRR &= (uint8_t)~(1 << PRADC))
 847:/usr/lib/avr/include/avr/power.h **** #define power_adc_disable()     (PRR |= (uint8_t)(1 << PRADC))
 848:/usr/lib/avr/include/avr/power.h **** 
 849:/usr/lib/avr/include/avr/power.h **** #define power_spi_enable()      (PRR &= (uint8_t)~(1 << PRSPI))
 850:/usr/lib/avr/include/avr/power.h **** #define power_spi_disable()     (PRR |= (uint8_t)(1 << PRSPI))
 851:/usr/lib/avr/include/avr/power.h **** 
 852:/usr/lib/avr/include/avr/power.h **** #define power_timer1_enable()   (PRR &= (uint8_t)~(1 << PRTIM1))
 853:/usr/lib/avr/include/avr/power.h **** #define power_timer1_disable()  (PRR |= (uint8_t)(1 << PRTIM1))
 854:/usr/lib/avr/include/avr/power.h **** 
 855:/usr/lib/avr/include/avr/power.h **** /* Reduced Power Stage Controller */
 856:/usr/lib/avr/include/avr/power.h **** #define power_pscr_enable()     (PRR &= (uint8_t)~(1 << PRPSCR))
 857:/usr/lib/avr/include/avr/power.h **** #define power_pscr_disable()    (PRR |= (uint8_t)(1 << PRPSCR))
 858:/usr/lib/avr/include/avr/power.h **** 
 859:/usr/lib/avr/include/avr/power.h **** /* Power Stage Controller 2 */
 860:/usr/lib/avr/include/avr/power.h **** #define power_psc2_enable()     (PRR &= (uint8_t)~(1 << PRPSC2))
 861:/usr/lib/avr/include/avr/power.h **** #define power_psc2_disable()    (PRR |= (uint8_t)(1 << PRPSC2))
 862:/usr/lib/avr/include/avr/power.h **** 
 863:/usr/lib/avr/include/avr/power.h **** #define power_all_enable()      (PRR &= (uint8_t)~((1<<PRADC)|(1<<PRSPI)|(1<<PRTIM1)|(1<<PRPSCR)|(1
 864:/usr/lib/avr/include/avr/power.h **** #define power_all_disable()     (PRR |= (uint8_t)((1<<PRADC)|(1<<PRSPI)|(1<<PRTIM1)|(1<<PRPSCR)|(1<
 865:/usr/lib/avr/include/avr/power.h **** 
 866:/usr/lib/avr/include/avr/power.h **** 
 867:/usr/lib/avr/include/avr/power.h **** #elif defined(__AVR_ATmega165__) \
 868:/usr/lib/avr/include/avr/power.h **** || defined(__AVR_ATmega165A__) \
 869:/usr/lib/avr/include/avr/power.h **** || defined(__AVR_ATmega165P__) \
 870:/usr/lib/avr/include/avr/power.h **** || defined(__AVR_ATmega325__) \
 871:/usr/lib/avr/include/avr/power.h **** || defined(__AVR_ATmega325A__) \
 872:/usr/lib/avr/include/avr/power.h **** || defined(__AVR_ATmega3250__) \
 873:/usr/lib/avr/include/avr/power.h **** || defined(__AVR_ATmega3250A__) \
 874:/usr/lib/avr/include/avr/power.h **** || defined(__AVR_ATmega645__) \
 875:/usr/lib/avr/include/avr/power.h **** || defined(__AVR_ATmega645A__) \
 876:/usr/lib/avr/include/avr/power.h **** || defined(__AVR_ATmega645P__) \
 877:/usr/lib/avr/include/avr/power.h **** || defined(__AVR_ATmega6450__) \
 878:/usr/lib/avr/include/avr/power.h **** || defined(__AVR_ATmega6450A__) \
 879:/usr/lib/avr/include/avr/power.h **** || defined(__AVR_ATmega6450P__)
 880:/usr/lib/avr/include/avr/power.h **** 
 881:/usr/lib/avr/include/avr/power.h **** #define power_adc_enable()      (PRR &= (uint8_t)~(1 << PRADC))
 882:/usr/lib/avr/include/avr/power.h **** #define power_adc_disable()     (PRR |= (uint8_t)(1 << PRADC))
 883:/usr/lib/avr/include/avr/power.h **** 
 884:/usr/lib/avr/include/avr/power.h **** #define power_spi_enable()      (PRR &= (uint8_t)~(1 << PRSPI))
 885:/usr/lib/avr/include/avr/power.h **** #define power_spi_disable()     (PRR |= (uint8_t)(1 << PRSPI))
 886:/usr/lib/avr/include/avr/power.h **** 
 887:/usr/lib/avr/include/avr/power.h **** #define power_usart0_enable()   (PRR &= (uint8_t)~(1 << PRUSART0))
 888:/usr/lib/avr/include/avr/power.h **** #define power_usart0_disable()  (PRR |= (uint8_t)(1 << PRUSART0))
 889:/usr/lib/avr/include/avr/power.h **** 
 890:/usr/lib/avr/include/avr/power.h **** #define power_timer1_enable()   (PRR &= (uint8_t)~(1 << PRTIM1))
 891:/usr/lib/avr/include/avr/power.h **** #define power_timer1_disable()  (PRR |= (uint8_t)(1 << PRTIM1))
 892:/usr/lib/avr/include/avr/power.h **** 
 893:/usr/lib/avr/include/avr/power.h **** #define power_all_enable()      (PRR &= (uint8_t)~((1<<PRADC)|(1<<PRSPI)|(1<<PRUSART0)|(1<<PRTIM1))
 894:/usr/lib/avr/include/avr/power.h **** #define power_all_disable()     (PRR |= (uint8_t)((1<<PRADC)|(1<<PRSPI)|(1<<PRUSART0)|(1<<PRTIM1)))
 895:/usr/lib/avr/include/avr/power.h **** 
 896:/usr/lib/avr/include/avr/power.h **** 
 897:/usr/lib/avr/include/avr/power.h **** #elif defined(__AVR_ATmega169__) \
 898:/usr/lib/avr/include/avr/power.h **** || defined(__AVR_ATmega169A__) \
 899:/usr/lib/avr/include/avr/power.h **** || defined(__AVR_ATmega169P__) \
 900:/usr/lib/avr/include/avr/power.h **** || defined(__AVR_ATmega169PA__) \
 901:/usr/lib/avr/include/avr/power.h **** || defined(__AVR_ATmega329__) \
 902:/usr/lib/avr/include/avr/power.h **** || defined(__AVR_ATmega329A__) \
 903:/usr/lib/avr/include/avr/power.h **** || defined(__AVR_ATmega329P__) \
 904:/usr/lib/avr/include/avr/power.h **** || defined(__AVR_ATmega329PA__) \
 905:/usr/lib/avr/include/avr/power.h **** || defined(__AVR_ATmega3290__) \
 906:/usr/lib/avr/include/avr/power.h **** || defined(__AVR_ATmega3290A__) \
 907:/usr/lib/avr/include/avr/power.h **** || defined(__AVR_ATmega3290P__) \
 908:/usr/lib/avr/include/avr/power.h **** || defined(__AVR_ATmega649__) \
 909:/usr/lib/avr/include/avr/power.h **** || defined(__AVR_ATmega649A__) \
 910:/usr/lib/avr/include/avr/power.h **** || defined(__AVR_ATmega649P__) \
 911:/usr/lib/avr/include/avr/power.h **** || defined(__AVR_ATmega6490__) \
 912:/usr/lib/avr/include/avr/power.h **** || defined(__AVR_ATmega6490A__) \
 913:/usr/lib/avr/include/avr/power.h **** || defined(__AVR_ATmega6490P__)
 914:/usr/lib/avr/include/avr/power.h **** 
 915:/usr/lib/avr/include/avr/power.h **** #define power_adc_enable()      (PRR &= (uint8_t)~(1 << PRADC))
 916:/usr/lib/avr/include/avr/power.h **** #define power_adc_disable()     (PRR |= (uint8_t)(1 << PRADC))
 917:/usr/lib/avr/include/avr/power.h **** 
 918:/usr/lib/avr/include/avr/power.h **** #define power_spi_enable()      (PRR &= (uint8_t)~(1 << PRSPI))
 919:/usr/lib/avr/include/avr/power.h **** #define power_spi_disable()     (PRR |= (uint8_t)(1 << PRSPI))
 920:/usr/lib/avr/include/avr/power.h **** 
 921:/usr/lib/avr/include/avr/power.h **** #define power_usart0_enable()   (PRR &= (uint8_t)~(1 << PRUSART0))
 922:/usr/lib/avr/include/avr/power.h **** #define power_usart0_disable()  (PRR |= (uint8_t)(1 << PRUSART0))
 923:/usr/lib/avr/include/avr/power.h **** 
 924:/usr/lib/avr/include/avr/power.h **** #define power_timer1_enable()   (PRR &= (uint8_t)~(1 << PRTIM1))
 925:/usr/lib/avr/include/avr/power.h **** #define power_timer1_disable()  (PRR |= (uint8_t)(1 << PRTIM1))
 926:/usr/lib/avr/include/avr/power.h **** 
 927:/usr/lib/avr/include/avr/power.h **** #define power_lcd_enable()      (PRR &= (uint8_t)~(1 << PRLCD))
 928:/usr/lib/avr/include/avr/power.h **** #define power_lcd_disable()     (PRR |= (uint8_t)(1 << PRLCD))
 929:/usr/lib/avr/include/avr/power.h **** 
 930:/usr/lib/avr/include/avr/power.h **** #define power_all_enable()      (PRR &= (uint8_t)~((1<<PRADC)|(1<<PRSPI)|(1<<PRUSART0)|(1<<PRTIM1)|
 931:/usr/lib/avr/include/avr/power.h **** #define power_all_disable()     (PRR |= (uint8_t)((1<<PRADC)|(1<<PRSPI)|(1<<PRUSART0)|(1<<PRTIM1)|(
 932:/usr/lib/avr/include/avr/power.h **** 
 933:/usr/lib/avr/include/avr/power.h **** 
 934:/usr/lib/avr/include/avr/power.h **** #elif defined(__AVR_ATmega164A__) \
 935:/usr/lib/avr/include/avr/power.h **** || defined(__AVR_ATmega164P__) \
 936:/usr/lib/avr/include/avr/power.h **** || defined(__AVR_ATmega324A__) \
 937:/usr/lib/avr/include/avr/power.h **** || defined(__AVR_ATmega324P__) \
 938:/usr/lib/avr/include/avr/power.h **** || defined(__AVR_ATmega324PA__) \
 939:/usr/lib/avr/include/avr/power.h **** || defined(__AVR_ATmega644P__) \
 940:/usr/lib/avr/include/avr/power.h **** || defined(__AVR_ATmega644A__) \
 941:/usr/lib/avr/include/avr/power.h **** || defined(__AVR_ATmega644PA__)
 942:/usr/lib/avr/include/avr/power.h **** 
 943:/usr/lib/avr/include/avr/power.h **** #define power_adc_enable()      (PRR0 &= (uint8_t)~(1 << PRADC))
 944:/usr/lib/avr/include/avr/power.h **** #define power_adc_disable()     (PRR0 |= (uint8_t)(1 << PRADC))
 945:/usr/lib/avr/include/avr/power.h **** 
 946:/usr/lib/avr/include/avr/power.h **** #define power_spi_enable()      (PRR0 &= (uint8_t)~(1 << PRSPI))
 947:/usr/lib/avr/include/avr/power.h **** #define power_spi_disable()     (PRR0 |= (uint8_t)(1 << PRSPI))
 948:/usr/lib/avr/include/avr/power.h **** 
 949:/usr/lib/avr/include/avr/power.h **** #define power_usart0_enable()   (PRR0 &= (uint8_t)~(1 << PRUSART0))
 950:/usr/lib/avr/include/avr/power.h **** #define power_usart0_disable()  (PRR0 |= (uint8_t)(1 << PRUSART0))
 951:/usr/lib/avr/include/avr/power.h **** 
 952:/usr/lib/avr/include/avr/power.h **** #define power_usart1_enable()   (PRR0 &= (uint8_t)~(1 << PRUSART1))
 953:/usr/lib/avr/include/avr/power.h **** #define power_usart1_disable()  (PRR0 |= (uint8_t)(1 << PRUSART1))
 954:/usr/lib/avr/include/avr/power.h **** 
 955:/usr/lib/avr/include/avr/power.h **** #define power_timer0_enable()   (PRR0 &= (uint8_t)~(1 << PRTIM0))
 956:/usr/lib/avr/include/avr/power.h **** #define power_timer0_disable()  (PRR0 |= (uint8_t)(1 << PRTIM0))
 957:/usr/lib/avr/include/avr/power.h **** 
 958:/usr/lib/avr/include/avr/power.h **** #define power_timer1_enable()   (PRR0 &= (uint8_t)~(1 << PRTIM1))
 959:/usr/lib/avr/include/avr/power.h **** #define power_timer1_disable()  (PRR0 |= (uint8_t)(1 << PRTIM1))
 960:/usr/lib/avr/include/avr/power.h **** 
 961:/usr/lib/avr/include/avr/power.h **** #define power_timer2_enable()   (PRR0 &= (uint8_t)~(1 << PRTIM2))
 962:/usr/lib/avr/include/avr/power.h **** #define power_timer2_disable()  (PRR0 |= (uint8_t)(1 << PRTIM2))
 963:/usr/lib/avr/include/avr/power.h **** 
 964:/usr/lib/avr/include/avr/power.h **** #define power_twi_enable()      (PRR0 &= (uint8_t)~(1 << PRTWI))
 965:/usr/lib/avr/include/avr/power.h **** #define power_twi_disable()     (PRR0 |= (uint8_t)(1 << PRTWI))
 966:/usr/lib/avr/include/avr/power.h **** 
 967:/usr/lib/avr/include/avr/power.h **** #define power_all_enable()      (PRR0 &= (uint8_t)~((1<<PRADC)|(1<<PRSPI)|(1<<PRUSART0)|(1<<PRUSART
 968:/usr/lib/avr/include/avr/power.h **** #define power_all_disable()     (PRR0 |= (uint8_t)((1<<PRADC)|(1<<PRSPI)|(1<<PRUSART0)|(1<<PRUSART1
 969:/usr/lib/avr/include/avr/power.h **** 
 970:/usr/lib/avr/include/avr/power.h **** 
 971:/usr/lib/avr/include/avr/power.h **** #elif defined(__AVR_ATmega644__)
 972:/usr/lib/avr/include/avr/power.h **** 
 973:/usr/lib/avr/include/avr/power.h **** #define power_adc_enable()      (PRR0 &= (uint8_t)~(1 << PRADC))
 974:/usr/lib/avr/include/avr/power.h **** #define power_adc_disable()     (PRR0 |= (uint8_t)(1 << PRADC))
 975:/usr/lib/avr/include/avr/power.h **** 
 976:/usr/lib/avr/include/avr/power.h **** #define power_spi_enable()      (PRR0 &= (uint8_t)~(1 << PRSPI))
 977:/usr/lib/avr/include/avr/power.h **** #define power_spi_disable()     (PRR0 |= (uint8_t)(1 << PRSPI))
 978:/usr/lib/avr/include/avr/power.h **** 
 979:/usr/lib/avr/include/avr/power.h **** #define power_usart0_enable()   (PRR0 &= (uint8_t)~(1 << PRUSART0))
 980:/usr/lib/avr/include/avr/power.h **** #define power_usart0_disable()  (PRR0 |= (uint8_t)(1 << PRUSART0))
 981:/usr/lib/avr/include/avr/power.h **** 
 982:/usr/lib/avr/include/avr/power.h **** #define power_timer0_enable()   (PRR0 &= (uint8_t)~(1 << PRTIM0))
 983:/usr/lib/avr/include/avr/power.h **** #define power_timer0_disable()  (PRR0 |= (uint8_t)(1 << PRTIM0))
 984:/usr/lib/avr/include/avr/power.h **** 
 985:/usr/lib/avr/include/avr/power.h **** #define power_timer1_enable()   (PRR0 &= (uint8_t)~(1 << PRTIM1))
 986:/usr/lib/avr/include/avr/power.h **** #define power_timer1_disable()  (PRR0 |= (uint8_t)(1 << PRTIM1))
 987:/usr/lib/avr/include/avr/power.h **** 
 988:/usr/lib/avr/include/avr/power.h **** #define power_timer2_enable()   (PRR0 &= (uint8_t)~(1 << PRTIM2))
 989:/usr/lib/avr/include/avr/power.h **** #define power_timer2_disable()  (PRR0 |= (uint8_t)(1 << PRTIM2))
 990:/usr/lib/avr/include/avr/power.h **** 
 991:/usr/lib/avr/include/avr/power.h **** #define power_twi_enable()      (PRR0 &= (uint8_t)~(1 << PRTWI))
 992:/usr/lib/avr/include/avr/power.h **** #define power_twi_disable()     (PRR0 |= (uint8_t)(1 << PRTWI))
 993:/usr/lib/avr/include/avr/power.h **** 
 994:/usr/lib/avr/include/avr/power.h **** #define power_all_enable()      (PRR0 &= (uint8_t)~((1<<PRADC)|(1<<PRSPI)|(1<<PRUSART0)|(1<<PRTIM0)
 995:/usr/lib/avr/include/avr/power.h **** #define power_all_disable()     (PRR0 |= (uint8_t)((1<<PRADC)|(1<<PRSPI)|(1<<PRUSART0)|(1<<PRTIM0)|
 996:/usr/lib/avr/include/avr/power.h **** 
 997:/usr/lib/avr/include/avr/power.h **** 
 998:/usr/lib/avr/include/avr/power.h **** #elif defined(__AVR_ATmega406__)
 999:/usr/lib/avr/include/avr/power.h **** 
1000:/usr/lib/avr/include/avr/power.h **** #define power_twi_enable()      (PRR0 &= (uint8_t)~(1 << PRTWI))
1001:/usr/lib/avr/include/avr/power.h **** #define power_twi_disable()     (PRR0 |= (uint8_t)(1 << PRTWI))
1002:/usr/lib/avr/include/avr/power.h **** 
1003:/usr/lib/avr/include/avr/power.h **** #define power_timer0_enable()   (PRR0 &= (uint8_t)~(1 << PRTIM0))
1004:/usr/lib/avr/include/avr/power.h **** #define power_timer0_disable()  (PRR0 |= (uint8_t)(1 << PRTIM0))
1005:/usr/lib/avr/include/avr/power.h **** 
1006:/usr/lib/avr/include/avr/power.h **** #define power_timer1_enable()   (PRR0 &= (uint8_t)~(1 << PRTIM1))
1007:/usr/lib/avr/include/avr/power.h **** #define power_timer1_disable()  (PRR0 |= (uint8_t)(1 << PRTIM1))
1008:/usr/lib/avr/include/avr/power.h **** 
1009:/usr/lib/avr/include/avr/power.h **** /* Voltage ADC */
1010:/usr/lib/avr/include/avr/power.h **** #define power_vadc_enable()     (PRR0 &= (uint8_t)~(1 << PRVADC))
1011:/usr/lib/avr/include/avr/power.h **** #define power_vadc_disable()    (PRR0 |= (uint8_t)(1 << PRVADC))
1012:/usr/lib/avr/include/avr/power.h **** 
1013:/usr/lib/avr/include/avr/power.h **** #define power_all_enable()      (PRR0 &= (uint8_t)~((1<<PRTWI)|(1<<PRTIM0)|(1<<PRTIM1)|(1<<PRVADC))
1014:/usr/lib/avr/include/avr/power.h **** #define power_all_disable()     (PRR0 |= (uint8_t)((1<<PRTWI)|(1<<PRTIM0)|(1<<PRTIM1)|(1<<PRVADC)))
1015:/usr/lib/avr/include/avr/power.h **** 
1016:/usr/lib/avr/include/avr/power.h **** 
1017:/usr/lib/avr/include/avr/power.h **** #elif defined(__AVR_ATmega48__) \
1018:/usr/lib/avr/include/avr/power.h **** || defined(__AVR_ATmega48A__) \
1019:/usr/lib/avr/include/avr/power.h **** || defined(__AVR_ATmega48P__) \
1020:/usr/lib/avr/include/avr/power.h **** || defined(__AVR_ATmega88__) \
1021:/usr/lib/avr/include/avr/power.h **** || defined(__AVR_ATmega88A__) \
1022:/usr/lib/avr/include/avr/power.h **** || defined(__AVR_ATmega88P__) \
1023:/usr/lib/avr/include/avr/power.h **** || defined(__AVR_ATmega88PA__) \
1024:/usr/lib/avr/include/avr/power.h **** || defined(__AVR_ATmega168__) \
1025:/usr/lib/avr/include/avr/power.h **** || defined(__AVR_ATmega168A__) \
1026:/usr/lib/avr/include/avr/power.h **** || defined(__AVR_ATmega168P__) \
1027:/usr/lib/avr/include/avr/power.h **** || defined(__AVR_ATmega328__) \
1028:/usr/lib/avr/include/avr/power.h **** || defined(__AVR_ATmega328P__) \
1029:/usr/lib/avr/include/avr/power.h **** || defined(__AVR_ATtiny48__) \
1030:/usr/lib/avr/include/avr/power.h **** || defined(__AVR_ATtiny88__)
1031:/usr/lib/avr/include/avr/power.h **** 
1032:/usr/lib/avr/include/avr/power.h **** #define power_adc_enable()      (PRR &= (uint8_t)~(1 << PRADC))
1033:/usr/lib/avr/include/avr/power.h **** #define power_adc_disable()     (PRR |= (uint8_t)(1 << PRADC))
1034:/usr/lib/avr/include/avr/power.h **** 
1035:/usr/lib/avr/include/avr/power.h **** #define power_spi_enable()      (PRR &= (uint8_t)~(1 << PRSPI))
1036:/usr/lib/avr/include/avr/power.h **** #define power_spi_disable()     (PRR |= (uint8_t)(1 << PRSPI))
1037:/usr/lib/avr/include/avr/power.h **** 
1038:/usr/lib/avr/include/avr/power.h **** #define power_usart0_enable()   (PRR &= (uint8_t)~(1 << PRUSART0))
1039:/usr/lib/avr/include/avr/power.h **** #define power_usart0_disable()  (PRR |= (uint8_t)(1 << PRUSART0))
1040:/usr/lib/avr/include/avr/power.h **** 
1041:/usr/lib/avr/include/avr/power.h **** #define power_timer0_enable()   (PRR &= (uint8_t)~(1 << PRTIM0))
1042:/usr/lib/avr/include/avr/power.h **** #define power_timer0_disable()  (PRR |= (uint8_t)(1 << PRTIM0))
1043:/usr/lib/avr/include/avr/power.h **** 
1044:/usr/lib/avr/include/avr/power.h **** #define power_timer1_enable()   (PRR &= (uint8_t)~(1 << PRTIM1))
1045:/usr/lib/avr/include/avr/power.h **** #define power_timer1_disable()  (PRR |= (uint8_t)(1 << PRTIM1))
1046:/usr/lib/avr/include/avr/power.h **** 
1047:/usr/lib/avr/include/avr/power.h **** #define power_timer2_enable()   (PRR &= (uint8_t)~(1 << PRTIM2))
1048:/usr/lib/avr/include/avr/power.h **** #define power_timer2_disable()  (PRR |= (uint8_t)(1 << PRTIM2))
1049:/usr/lib/avr/include/avr/power.h **** 
1050:/usr/lib/avr/include/avr/power.h **** #define power_twi_enable()      (PRR &= (uint8_t)~(1 << PRTWI))
1051:/usr/lib/avr/include/avr/power.h **** #define power_twi_disable()     (PRR |= (uint8_t)(1 << PRTWI))
1052:/usr/lib/avr/include/avr/power.h **** 
1053:/usr/lib/avr/include/avr/power.h **** #define power_all_enable()      (PRR &= (uint8_t)~((1<<PRADC)|(1<<PRSPI)|(1<<PRUSART0)|(1<<PRTIM0)|
1054:/usr/lib/avr/include/avr/power.h **** #define power_all_disable()     (PRR |= (uint8_t)((1<<PRADC)|(1<<PRSPI)|(1<<PRUSART0)|(1<<PRTIM0)|(
1055:/usr/lib/avr/include/avr/power.h **** 
1056:/usr/lib/avr/include/avr/power.h **** 
1057:/usr/lib/avr/include/avr/power.h **** #elif defined(__AVR_ATtiny24__) \
1058:/usr/lib/avr/include/avr/power.h **** || defined(__AVR_ATtiny24A__) \
1059:/usr/lib/avr/include/avr/power.h **** || defined(__AVR_ATtiny44__) \
1060:/usr/lib/avr/include/avr/power.h **** || defined(__AVR_ATtiny44A__) \
1061:/usr/lib/avr/include/avr/power.h **** || defined(__AVR_ATtiny84__) \
1062:/usr/lib/avr/include/avr/power.h **** || defined(__AVR_ATtiny84A__) \
1063:/usr/lib/avr/include/avr/power.h **** || defined(__AVR_ATtiny25__) \
1064:/usr/lib/avr/include/avr/power.h **** || defined(__AVR_ATtiny45__) \
1065:/usr/lib/avr/include/avr/power.h **** || defined(__AVR_ATtiny85__) \
1066:/usr/lib/avr/include/avr/power.h **** || defined(__AVR_ATtiny261__) \
1067:/usr/lib/avr/include/avr/power.h **** || defined(__AVR_ATtiny261A__) \
1068:/usr/lib/avr/include/avr/power.h **** || defined(__AVR_ATtiny461__) \
1069:/usr/lib/avr/include/avr/power.h **** || defined(__AVR_ATtiny461A__) \
1070:/usr/lib/avr/include/avr/power.h **** || defined(__AVR_ATtiny861__) \
1071:/usr/lib/avr/include/avr/power.h **** || defined(__AVR_ATtiny861A__) \
1072:/usr/lib/avr/include/avr/power.h **** || defined(__AVR_ATtiny43U__)
1073:/usr/lib/avr/include/avr/power.h **** 
1074:/usr/lib/avr/include/avr/power.h **** #define power_adc_enable()      (PRR &= (uint8_t)~(1 << PRADC))
1075:/usr/lib/avr/include/avr/power.h **** #define power_adc_disable()     (PRR |= (uint8_t)(1 << PRADC))
1076:/usr/lib/avr/include/avr/power.h **** 
1077:/usr/lib/avr/include/avr/power.h **** #define power_timer0_enable()   (PRR &= (uint8_t)~(1 << PRTIM0))
1078:/usr/lib/avr/include/avr/power.h **** #define power_timer0_disable()  (PRR |= (uint8_t)(1 << PRTIM0))
1079:/usr/lib/avr/include/avr/power.h **** 
1080:/usr/lib/avr/include/avr/power.h **** #define power_timer1_enable()   (PRR &= (uint8_t)~(1 << PRTIM1))
1081:/usr/lib/avr/include/avr/power.h **** #define power_timer1_disable()  (PRR |= (uint8_t)(1 << PRTIM1))
1082:/usr/lib/avr/include/avr/power.h **** 
1083:/usr/lib/avr/include/avr/power.h **** /* Universal Serial Interface */
1084:/usr/lib/avr/include/avr/power.h **** #define power_usi_enable()      (PRR &= (uint8_t)~(1 << PRUSI))
1085:/usr/lib/avr/include/avr/power.h **** #define power_usi_disable()     (PRR |= (uint8_t)(1 << PRUSI))
1086:/usr/lib/avr/include/avr/power.h **** 
1087:/usr/lib/avr/include/avr/power.h **** #define power_all_enable()      (PRR &= (uint8_t)~((1<<PRADC)|(1<<PRTIM0)|(1<<PRTIM1)|(1<<PRUSI)))
1088:/usr/lib/avr/include/avr/power.h **** #define power_all_disable()     (PRR |= (uint8_t)((1<<PRADC)|(1<<PRTIM0)|(1<<PRTIM1)|(1<<PRUSI)))
1089:/usr/lib/avr/include/avr/power.h **** 
1090:/usr/lib/avr/include/avr/power.h **** 
1091:/usr/lib/avr/include/avr/power.h **** #elif defined(__AVR_ATmega1284P__)
1092:/usr/lib/avr/include/avr/power.h **** 
1093:/usr/lib/avr/include/avr/power.h **** 
1094:/usr/lib/avr/include/avr/power.h **** #define power_adc_enable()      (PRR0 &= (uint8_t)~(1 << PRADC))
1095:/usr/lib/avr/include/avr/power.h **** #define power_adc_disable()     (PRR0 |= (uint8_t)(1 << PRADC))
1096:/usr/lib/avr/include/avr/power.h **** 
1097:/usr/lib/avr/include/avr/power.h **** #define power_spi_enable()      (PRR0 &= (uint8_t)~(1 << PRSPI))
1098:/usr/lib/avr/include/avr/power.h **** #define power_spi_disable()     (PRR0 |= (uint8_t)(1 << PRSPI))
1099:/usr/lib/avr/include/avr/power.h **** 
1100:/usr/lib/avr/include/avr/power.h **** #define power_twi_enable()      (PRR0 &= (uint8_t)~(1 << PRTWI))
1101:/usr/lib/avr/include/avr/power.h **** #define power_twi_disable()     (PRR0 |= (uint8_t)(1 << PRTWI))
1102:/usr/lib/avr/include/avr/power.h **** 
1103:/usr/lib/avr/include/avr/power.h **** #define power_timer0_enable()   (PRR0 &= (uint8_t)~(1 << PRTIM0))
1104:/usr/lib/avr/include/avr/power.h **** #define power_timer0_disable()  (PRR0 |= (uint8_t)(1 << PRTIM0))
1105:/usr/lib/avr/include/avr/power.h **** 
1106:/usr/lib/avr/include/avr/power.h **** #define power_timer1_enable()   (PRR0 &= (uint8_t)~(1 << PRTIM1))
1107:/usr/lib/avr/include/avr/power.h **** #define power_timer1_disable()  (PRR0 |= (uint8_t)(1 << PRTIM1))
1108:/usr/lib/avr/include/avr/power.h **** 
1109:/usr/lib/avr/include/avr/power.h **** #define power_timer2_enable()   (PRR0 &= (uint8_t)~(1 << PRTIM2))
1110:/usr/lib/avr/include/avr/power.h **** #define power_timer2_disable()  (PRR0 |= (uint8_t)(1 << PRTIM2))
1111:/usr/lib/avr/include/avr/power.h **** 
1112:/usr/lib/avr/include/avr/power.h **** #define power_timer3_enable()   (PRR1 &= (uint8_t)~(1 << PRTIM3))
1113:/usr/lib/avr/include/avr/power.h **** #define power_timer3_disable()  (PRR1 |= (uint8_t)(1 << PRTIM3))
1114:/usr/lib/avr/include/avr/power.h **** 
1115:/usr/lib/avr/include/avr/power.h **** #define power_usart0_enable()   (PRR0 &= (uint8_t)~(1 << PRUSART0))
1116:/usr/lib/avr/include/avr/power.h **** #define power_usart0_disable()  (PRR0 |= (uint8_t)(1 << PRUSART0))
1117:/usr/lib/avr/include/avr/power.h **** 
1118:/usr/lib/avr/include/avr/power.h **** #define power_usart1_enable()   (PRR0 &= (uint8_t)~(1 << PRUSART1))
1119:/usr/lib/avr/include/avr/power.h **** #define power_usart1_disable()  (PRR0 |= (uint8_t)(1 << PRUSART1))
1120:/usr/lib/avr/include/avr/power.h **** 
1121:/usr/lib/avr/include/avr/power.h **** #define power_all_enable() \
1122:/usr/lib/avr/include/avr/power.h **** do{ \
1123:/usr/lib/avr/include/avr/power.h ****     PRR0 &= (uint8_t)~((1<<PRADC)|(1<<PRSPI)|(1<<PRTWI)|(1<<PRTIM0)|(1<<PRTIM1)|(1<<PRTIM2)|(1<<PRU
1124:/usr/lib/avr/include/avr/power.h ****     PRR1 &= (uint8_t)~(1<<PRTIM3); \
1125:/usr/lib/avr/include/avr/power.h **** }while(0)
1126:/usr/lib/avr/include/avr/power.h **** 
1127:/usr/lib/avr/include/avr/power.h **** #define power_all_disable() \
1128:/usr/lib/avr/include/avr/power.h **** do{ \
1129:/usr/lib/avr/include/avr/power.h ****     PRR0 |= (uint8_t)((1<<PRADC)|(1<<PRSPI)|(1<<PRTWI)|(1<<PRTIM0)|(1<<PRTIM1)|(1<<PRTIM2)|(1<<PRUS
1130:/usr/lib/avr/include/avr/power.h ****     PRR1 |= (uint8_t)(1<<PRTIM3); \
1131:/usr/lib/avr/include/avr/power.h **** }while(0)
1132:/usr/lib/avr/include/avr/power.h **** 
1133:/usr/lib/avr/include/avr/power.h **** 
1134:/usr/lib/avr/include/avr/power.h **** #elif defined(__AVR_ATmega32HVB__) \
1135:/usr/lib/avr/include/avr/power.h **** || defined(__AVR_ATmega32HVBREVB__) \
1136:/usr/lib/avr/include/avr/power.h **** || defined(__AVR_ATmega16HVB__) \
1137:/usr/lib/avr/include/avr/power.h **** || defined(__AVR_ATmega16HVBREVB__)
1138:/usr/lib/avr/include/avr/power.h **** 
1139:/usr/lib/avr/include/avr/power.h **** 
1140:/usr/lib/avr/include/avr/power.h **** #define power_twi_enable()      (PRR0 &= (uint8_t)~(1 << PRTWI))
1141:/usr/lib/avr/include/avr/power.h **** #define power_twi_disable()     (PRR0 |= (uint8_t)(1 << PRTWI))
1142:/usr/lib/avr/include/avr/power.h **** 
1143:/usr/lib/avr/include/avr/power.h **** #define power_timer0_enable()   (PRR0 &= (uint8_t)~(1 << PRTIM0))
1144:/usr/lib/avr/include/avr/power.h **** #define power_timer0_disable()  (PRR0 |= (uint8_t)(1 << PRTIM0))
1145:/usr/lib/avr/include/avr/power.h **** 
1146:/usr/lib/avr/include/avr/power.h **** #define power_timer1_enable()   (PRR0 &= (uint8_t)~(1 << PRTIM1))
1147:/usr/lib/avr/include/avr/power.h **** #define power_timer1_disable()  (PRR0 |= (uint8_t)(1 << PRTIM1))
1148:/usr/lib/avr/include/avr/power.h **** 
1149:/usr/lib/avr/include/avr/power.h **** /* Voltage ADC */
1150:/usr/lib/avr/include/avr/power.h **** #define power_vadc_enable()     (PRR0 &= (uint8_t)~(1 << PRVADC))
1151:/usr/lib/avr/include/avr/power.h **** #define power_vadc_disable()    (PRR0 |= (uint8_t)(1 << PRVADC))
1152:/usr/lib/avr/include/avr/power.h **** 
1153:/usr/lib/avr/include/avr/power.h **** #define power_spi_enable()      (PRR0 &= (uint8_t)~(1 << PRSPI))
1154:/usr/lib/avr/include/avr/power.h **** #define power_spi_disable()     (PRR0 |= (uint8_t)(1 << PRSPI))
1155:/usr/lib/avr/include/avr/power.h **** 
1156:/usr/lib/avr/include/avr/power.h **** #define power_vrm_enable()      (PRR0 &= (uint8_t)~(1 << PRVRM))
1157:/usr/lib/avr/include/avr/power.h **** #define power_vrm_disable()     (PRR0 |= (uint8_t)(1 << PRVRM))
1158:/usr/lib/avr/include/avr/power.h **** 
1159:/usr/lib/avr/include/avr/power.h **** #define power_all_enable()      (PRR0 &= (uint8_t)~((1<<PRTWI)|(1<<PRTIM0)|(1<<PRTIM1)|(1<<PRVADC)|
1160:/usr/lib/avr/include/avr/power.h **** #define power_all_disable()     (PRR0 |= (uint8_t)((1<<PRTWI)|(1<<PRTIM0)|(1<<PRTIM1)|(1<<PRVADC)|(
1161:/usr/lib/avr/include/avr/power.h **** 
1162:/usr/lib/avr/include/avr/power.h **** 
1163:/usr/lib/avr/include/avr/power.h **** #elif defined(__AVR_ATmega16M1__) \
1164:/usr/lib/avr/include/avr/power.h **** || defined(__AVR_ATmega32C1__) \
1165:/usr/lib/avr/include/avr/power.h **** || defined(__AVR_ATmega32M1__) \
1166:/usr/lib/avr/include/avr/power.h **** || defined(__AVR_ATmega64C1__) \
1167:/usr/lib/avr/include/avr/power.h **** || defined(__AVR_ATmega64M1__)
1168:/usr/lib/avr/include/avr/power.h **** 
1169:/usr/lib/avr/include/avr/power.h **** #define power_adc_enable()      (PRR &= (uint8_t)~(1 << PRADC))
1170:/usr/lib/avr/include/avr/power.h **** #define power_adc_disable()     (PRR |= (uint8_t)(1 << PRADC))
1171:/usr/lib/avr/include/avr/power.h **** 
1172:/usr/lib/avr/include/avr/power.h **** #define power_lin_enable()      (PRR &= (uint8_t)~(1 << PRLIN))
1173:/usr/lib/avr/include/avr/power.h **** #define power_lin_disable()     (PRR |= (uint8_t)(1 << PRLIN))
1174:/usr/lib/avr/include/avr/power.h **** 
1175:/usr/lib/avr/include/avr/power.h **** #define power_spi_enable()      (PRR &= (uint8_t)~(1 << PRSPI))
1176:/usr/lib/avr/include/avr/power.h **** #define power_spi_disable()     (PRR |= (uint8_t)(1 << PRSPI))
1177:/usr/lib/avr/include/avr/power.h **** 
1178:/usr/lib/avr/include/avr/power.h **** #define power_timer0_enable()   (PRR &= (uint8_t)~(1 << PRTIM0))
1179:/usr/lib/avr/include/avr/power.h **** #define power_timer0_disable()  (PRR |= (uint8_t)(1 << PRTIM0))
1180:/usr/lib/avr/include/avr/power.h **** 
1181:/usr/lib/avr/include/avr/power.h **** #define power_timer1_enable()   (PRR &= (uint8_t)~(1 << PRTIM1))
1182:/usr/lib/avr/include/avr/power.h **** #define power_timer1_disable()  (PRR |= (uint8_t)(1 << PRTIM1))
1183:/usr/lib/avr/include/avr/power.h **** 
1184:/usr/lib/avr/include/avr/power.h **** #define power_psc_enable()      (PRR &= (uint8_t)~(1 << PRPSC))
1185:/usr/lib/avr/include/avr/power.h **** #define power_psc_disable()     (PRR |= (uint8_t)(1 << PRPSC))
1186:/usr/lib/avr/include/avr/power.h **** 
1187:/usr/lib/avr/include/avr/power.h **** #define power_can_enable()      (PRR &= (uint8_t)~(1 << PRCAN))
1188:/usr/lib/avr/include/avr/power.h **** #define power_can_disable()     (PRR |= (uint8_t)(1 << PRCAN))
1189:/usr/lib/avr/include/avr/power.h **** 
1190:/usr/lib/avr/include/avr/power.h **** #define power_all_enable()      (PRR &= (uint8_t)~((1<<PRADC)|(1<<PRLIN)|(1<<PRSPI)|(1<<PRTIM0)|(1<
1191:/usr/lib/avr/include/avr/power.h **** #define power_all_disable()     (PRR |= (uint8_t)((1<<PRADC)|(1<<PRLIN)|(1<<PRSPI)|(1<<PRTIM0)|(1<<
1192:/usr/lib/avr/include/avr/power.h **** 
1193:/usr/lib/avr/include/avr/power.h **** 
1194:/usr/lib/avr/include/avr/power.h **** #elif defined(__AVR_ATtiny167__) \
1195:/usr/lib/avr/include/avr/power.h **** || defined(__AVR_ATtiny87__)
1196:/usr/lib/avr/include/avr/power.h **** 
1197:/usr/lib/avr/include/avr/power.h **** 
1198:/usr/lib/avr/include/avr/power.h **** #define power_adc_enable()      (PRR &= (uint8_t)~(1 << PRADC))
1199:/usr/lib/avr/include/avr/power.h **** #define power_adc_disable()     (PRR |= (uint8_t)(1 << PRADC))
1200:/usr/lib/avr/include/avr/power.h **** 
1201:/usr/lib/avr/include/avr/power.h **** #define power_usi_enable()      (PRR &= (uint8_t)~(1 << PRUSI))
1202:/usr/lib/avr/include/avr/power.h **** #define power_usi_disable()     (PRR |= (uint8_t)(1 << PRUSI))
1203:/usr/lib/avr/include/avr/power.h **** 
1204:/usr/lib/avr/include/avr/power.h **** #define power_timer0_enable()   (PRR &= (uint8_t)~(1 << PRTIM0))
1205:/usr/lib/avr/include/avr/power.h **** #define power_timer0_disable()  (PRR |= (uint8_t)(1 << PRTIM0))
1206:/usr/lib/avr/include/avr/power.h **** 
1207:/usr/lib/avr/include/avr/power.h **** #define power_timer1_enable()   (PRR &= (uint8_t)~(1 << PRTIM1))
1208:/usr/lib/avr/include/avr/power.h **** #define power_timer1_disable()  (PRR |= (uint8_t)(1 << PRTIM1))
1209:/usr/lib/avr/include/avr/power.h **** 
1210:/usr/lib/avr/include/avr/power.h **** #define power_spi_enable()      (PRR &= (uint8_t)~(1 << PRSPI))
1211:/usr/lib/avr/include/avr/power.h **** #define power_spi_disable()     (PRR |= (uint8_t)(1 << PRSPI))
1212:/usr/lib/avr/include/avr/power.h **** 
1213:/usr/lib/avr/include/avr/power.h **** #define power_lin_enable()      (PRR &= (uint8_t)~(1 << PRLIN))
1214:/usr/lib/avr/include/avr/power.h **** #define power_lin_disable()     (PRR |= (uint8_t)(1 << PRLIN))
1215:/usr/lib/avr/include/avr/power.h **** 
1216:/usr/lib/avr/include/avr/power.h **** #define power_all_enable()      (PRR &= (uint8_t)~((1<<PRADC)|(1<<PRUSI)|(1<<PRTIM0)|(1<<PRTIM1)|(1
1217:/usr/lib/avr/include/avr/power.h **** #define power_all_disable()     (PRR |= (uint8_t)((1<<PRADC)|(1<<PRUSI)|(1<<PRTIM0)|(1<<PRTIM1)|(1<
1218:/usr/lib/avr/include/avr/power.h **** 
1219:/usr/lib/avr/include/avr/power.h **** 
1220:/usr/lib/avr/include/avr/power.h **** #elif defined(__AVR_AT90USB82__) \
1221:/usr/lib/avr/include/avr/power.h **** || defined(__AVR_AT90USB162__) \
1222:/usr/lib/avr/include/avr/power.h **** || defined(__AVR_ATmega8U2__) \
1223:/usr/lib/avr/include/avr/power.h **** || defined(__AVR_ATmega16U2__) \
1224:/usr/lib/avr/include/avr/power.h **** || defined(__AVR_ATmega32U2__)
1225:/usr/lib/avr/include/avr/power.h **** 
1226:/usr/lib/avr/include/avr/power.h **** #define power_spi_enable()      (PRR0 &= (uint8_t)~(1 << PRSPI))
1227:/usr/lib/avr/include/avr/power.h **** #define power_spi_disable()     (PRR0 |= (uint8_t)(1 << PRSPI))
1228:/usr/lib/avr/include/avr/power.h **** 
1229:/usr/lib/avr/include/avr/power.h **** #define power_timer0_enable()   (PRR0 &= (uint8_t)~(1 << PRTIM0))
1230:/usr/lib/avr/include/avr/power.h **** #define power_timer0_disable()  (PRR0 |= (uint8_t)(1 << PRTIM0))
1231:/usr/lib/avr/include/avr/power.h **** 
1232:/usr/lib/avr/include/avr/power.h **** #define power_timer1_enable()   (PRR0 &= (uint8_t)~(1 << PRTIM1))
1233:/usr/lib/avr/include/avr/power.h **** #define power_timer1_disable()  (PRR0 |= (uint8_t)(1 << PRTIM1))
1234:/usr/lib/avr/include/avr/power.h **** 
1235:/usr/lib/avr/include/avr/power.h **** #define power_usb_enable()      (PRR1 &= (uint8_t)~(1 << PRUSB))
1236:/usr/lib/avr/include/avr/power.h **** #define power_usb_disable()     (PRR1 |= (uint8_t)(1 << PRUSB))
1237:/usr/lib/avr/include/avr/power.h **** 
1238:/usr/lib/avr/include/avr/power.h **** #define power_usart1_enable()   (PRR1 &= (uint8_t)~(1 << PRUSART1))
1239:/usr/lib/avr/include/avr/power.h **** #define power_usart1_disable()  (PRR1 |= (uint8_t)(1 << PRUSART1))
1240:/usr/lib/avr/include/avr/power.h **** 
1241:/usr/lib/avr/include/avr/power.h **** #define power_all_enable() \
1242:/usr/lib/avr/include/avr/power.h **** do{ \
1243:/usr/lib/avr/include/avr/power.h ****     PRR0 &= (uint8_t)~((1<<PRSPI)|(1<<PRTIM0)|(1<<PRTIM1)); \
1244:/usr/lib/avr/include/avr/power.h ****     PRR1 &= (uint8_t)~((1<<PRUSB)|(1<<PRUSART1)); \
1245:/usr/lib/avr/include/avr/power.h **** }while(0)
1246:/usr/lib/avr/include/avr/power.h **** 
1247:/usr/lib/avr/include/avr/power.h **** #define power_all_disable() \
1248:/usr/lib/avr/include/avr/power.h **** do{ \
1249:/usr/lib/avr/include/avr/power.h ****     PRR0 |= (uint8_t)((1<<PRSPI)|(1<<PRTIM0)|(1<<PRTIM1)); \
1250:/usr/lib/avr/include/avr/power.h ****     PRR1 |= (uint8_t)((1<<PRUSB)|(1<<PRUSART1)); \
1251:/usr/lib/avr/include/avr/power.h **** }while(0)
1252:/usr/lib/avr/include/avr/power.h **** 
1253:/usr/lib/avr/include/avr/power.h **** 
1254:/usr/lib/avr/include/avr/power.h **** #elif defined(__AVR_AT90SCR100__)
1255:/usr/lib/avr/include/avr/power.h **** 
1256:/usr/lib/avr/include/avr/power.h **** #define power_usart0_enable()   (PRR0 &= (uint8_t)~(1 << PRUSART0))
1257:/usr/lib/avr/include/avr/power.h **** #define power_usart0_disable()  (PRR0 |= (uint8_t)(1 << PRUSART0))
1258:/usr/lib/avr/include/avr/power.h **** 
1259:/usr/lib/avr/include/avr/power.h **** #define power_spi_enable()      (PRR0 &= (uint8_t)~(1 << PRSPI))
1260:/usr/lib/avr/include/avr/power.h **** #define power_spi_disable()     (PRR0 |= (uint8_t)(1 << PRSPI))
1261:/usr/lib/avr/include/avr/power.h **** 
1262:/usr/lib/avr/include/avr/power.h **** #define power_timer1_enable()   (PRR0 &= (uint8_t)~(1 << PRTIM1))
1263:/usr/lib/avr/include/avr/power.h **** #define power_timer1_disable()  (PRR0 |= (uint8_t)(1 << PRTIM1))
1264:/usr/lib/avr/include/avr/power.h **** 
1265:/usr/lib/avr/include/avr/power.h **** #define power_timer0_enable()   (PRR0 &= (uint8_t)~(1 << PRTIM0))
1266:/usr/lib/avr/include/avr/power.h **** #define power_timer0_disable()  (PRR0 |= (uint8_t)(1 << PRTIM0))
1267:/usr/lib/avr/include/avr/power.h **** 
1268:/usr/lib/avr/include/avr/power.h **** #define power_timer2_enable()   (PRR0 &= (uint8_t)~(1 << PRTIM2))
1269:/usr/lib/avr/include/avr/power.h **** #define power_timer2_disable()  (PRR0 |= (uint8_t)(1 << PRTIM2))
1270:/usr/lib/avr/include/avr/power.h **** 
1271:/usr/lib/avr/include/avr/power.h **** #define power_twi_enable()      (PRR0 &= (uint8_t)~(1 << PRTWI))
1272:/usr/lib/avr/include/avr/power.h **** #define power_twi_disable()     (PRR0 |= (uint8_t)(1 << PRTWI))
1273:/usr/lib/avr/include/avr/power.h **** 
1274:/usr/lib/avr/include/avr/power.h **** #define power_usbh_enable()     (PRR1 &= (uint8_t)~(1 << PRUSBH))
1275:/usr/lib/avr/include/avr/power.h **** #define power_usbh_disable()    (PRR1 |= (uint8_t)(1 << PRUSBH))
1276:/usr/lib/avr/include/avr/power.h **** 
1277:/usr/lib/avr/include/avr/power.h **** #define power_usb_enable()      (PRR1 &= (uint8_t)~(1 << PRUSB))
1278:/usr/lib/avr/include/avr/power.h **** #define power_usb_disable()     (PRR1 |= (uint8_t)(1 << PRUSB))
1279:/usr/lib/avr/include/avr/power.h **** 
1280:/usr/lib/avr/include/avr/power.h **** #define power_hsspi_enable()    (PRR1 &= (uint8_t)~(1 << PRHSSPI))
1281:/usr/lib/avr/include/avr/power.h **** #define power_hsspi_disable()   (PRR1 |= (uint8_t)(1 << PRHSSPI))
1282:/usr/lib/avr/include/avr/power.h **** 
1283:/usr/lib/avr/include/avr/power.h **** #define power_sci_enable()      (PRR1 &= (uint8_t)~(1 << PRSCI))
1284:/usr/lib/avr/include/avr/power.h **** #define power_sci_disable()     (PRR1 |= (uint8_t)(1 << PRSCI))
1285:/usr/lib/avr/include/avr/power.h **** 
1286:/usr/lib/avr/include/avr/power.h **** #define power_aes_enable()      (PRR1 &= (uint8_t)~(1 << PRAES))
1287:/usr/lib/avr/include/avr/power.h **** #define power_aes_disable()     (PRR1 |= (uint8_t)(1 << PRAES))
1288:/usr/lib/avr/include/avr/power.h **** 
1289:/usr/lib/avr/include/avr/power.h **** #define power_kb_enable()       (PRR1 &= (uint8_t)~(1 << PRKB))
1290:/usr/lib/avr/include/avr/power.h **** #define power_kb_disable()      (PRR1 |= (uint8_t)(1 << PRKB))
1291:/usr/lib/avr/include/avr/power.h **** 
1292:/usr/lib/avr/include/avr/power.h **** #define power_all_enable() \
1293:/usr/lib/avr/include/avr/power.h **** do{ \
1294:/usr/lib/avr/include/avr/power.h ****     PRR0 &= (uint8_t)~((1<<PRUSART0)|(1<<PRSPI)|(1<<PRTIM1)|(1<<PRTIM0)|(1<<PRTIM2)|(1<<PRTWI)); \
1295:/usr/lib/avr/include/avr/power.h ****     PRR1 &= (uint8_t)~((1<<PRUSBH)|(1<<PRUSB)|(1<<PRHSSPI)|(1<<PRSCI)|(1<<PRAES)|(1<<PRKB)); \
1296:/usr/lib/avr/include/avr/power.h **** }while(0)
1297:/usr/lib/avr/include/avr/power.h **** 
1298:/usr/lib/avr/include/avr/power.h **** #define power_all_disable() \
1299:/usr/lib/avr/include/avr/power.h **** do{ \
1300:/usr/lib/avr/include/avr/power.h ****     PRR0 |= (uint8_t)((1<<PRUSART0)|(1<<PRSPI)|(1<<PRTIM1)|(1<<PRTIM0)|(1<<PRTIM2)|(1<<PRTWI)); \
1301:/usr/lib/avr/include/avr/power.h ****     PRR1 |= (uint8_t)((1<<PRUSBH)|(1<<PRUSB)|(1<<PRHSSPI)|(1<<PRSCI)|(1<<PRAES)|(1<<PRKB)); \
1302:/usr/lib/avr/include/avr/power.h **** }while(0)
1303:/usr/lib/avr/include/avr/power.h **** 
1304:/usr/lib/avr/include/avr/power.h **** 
1305:/usr/lib/avr/include/avr/power.h **** #elif defined(__AVR_ATtiny4__) \
1306:/usr/lib/avr/include/avr/power.h **** || defined(__AVR_ATtiny5__) \
1307:/usr/lib/avr/include/avr/power.h **** || defined(__AVR_ATtiny9__) \
1308:/usr/lib/avr/include/avr/power.h **** || defined(__AVR_ATtiny10__) \
1309:/usr/lib/avr/include/avr/power.h **** || defined(__AVR_ATtiny13A__) \
1310:/usr/lib/avr/include/avr/power.h **** 
1311:/usr/lib/avr/include/avr/power.h **** #define power_adc_enable()   (PRR &= (uint8_t)~(1 << PRADC))
1312:/usr/lib/avr/include/avr/power.h **** #define power_adc_disable()  (PRR |= (uint8_t)(1 << PRADC))
1313:/usr/lib/avr/include/avr/power.h **** 
1314:/usr/lib/avr/include/avr/power.h **** #define power_timer0_enable()   (PRR &= (uint8_t)~(1 << PRTIM0))
1315:/usr/lib/avr/include/avr/power.h **** #define power_timer0_disable()  (PRR |= (uint8_t)(1 << PRTIM0))
1316:/usr/lib/avr/include/avr/power.h **** 
1317:/usr/lib/avr/include/avr/power.h **** #define power_all_enable()      (PRR &= (uint8_t)~((1<<PRADC)|(1<<PRTIM0)))
1318:/usr/lib/avr/include/avr/power.h **** #define power_all_disable()     (PRR |= (uint8_t)((1<<PRADC)|(1<<PRTIM0)))
1319:/usr/lib/avr/include/avr/power.h **** 
1320:/usr/lib/avr/include/avr/power.h **** 
1321:/usr/lib/avr/include/avr/power.h **** #elif defined(__AVR_ATtiny20__) \
1322:/usr/lib/avr/include/avr/power.h **** || defined(__AVR_ATtiny40__)
1323:/usr/lib/avr/include/avr/power.h **** 
1324:/usr/lib/avr/include/avr/power.h **** #define power_adc_enable()   (PRR &= (uint8_t)~(1 << PRADC))
1325:/usr/lib/avr/include/avr/power.h **** #define power_adc_disable()  (PRR |= (uint8_t)(1 << PRADC))
1326:/usr/lib/avr/include/avr/power.h **** 
1327:/usr/lib/avr/include/avr/power.h **** #define power_timer0_enable()   (PRR &= (uint8_t)~(1 << PRTIM0))
1328:/usr/lib/avr/include/avr/power.h **** #define power_timer0_disable()  (PRR |= (uint8_t)(1 << PRTIM0))
1329:/usr/lib/avr/include/avr/power.h **** 
1330:/usr/lib/avr/include/avr/power.h **** #define power_timer1_enable()   (PRR &= (uint8_t)~(1 << PRTIM1))
1331:/usr/lib/avr/include/avr/power.h **** #define power_timer1_disable()  (PRR |= (uint8_t)(1 << PRTIM1))
1332:/usr/lib/avr/include/avr/power.h **** 
1333:/usr/lib/avr/include/avr/power.h **** #define power_spi_enable()   (PRR &= (uint8_t)~(1 << PRSPI))
1334:/usr/lib/avr/include/avr/power.h **** #define power_spi_disable()  (PRR |= (uint8_t)(1 << PRSPI))
1335:/usr/lib/avr/include/avr/power.h **** 
1336:/usr/lib/avr/include/avr/power.h **** #define power_twi_enable()   (PRR &= (uint8_t)~(1 << PRTWI))
1337:/usr/lib/avr/include/avr/power.h **** #define power_twi_disable()  (PRR |= (uint8_t)(1 << PRTWI))
1338:/usr/lib/avr/include/avr/power.h **** 
1339:/usr/lib/avr/include/avr/power.h **** #define power_all_enable()      (PRR &= (uint8_t)~((1<<PRADC)|(1<<PRTIM0)|(1<<PRTIM1)|(1<<PRSPI)|(1
1340:/usr/lib/avr/include/avr/power.h **** #define power_all_disable()     (PRR |= (uint8_t)((1<<PRADC)|(1<<PRTIM0)|(1<<PRTIM1)|(1<<PRSPI)|(1<
1341:/usr/lib/avr/include/avr/power.h **** 
1342:/usr/lib/avr/include/avr/power.h **** #endif
1343:/usr/lib/avr/include/avr/power.h **** 
1344:/usr/lib/avr/include/avr/power.h **** 
1345:/usr/lib/avr/include/avr/power.h **** #if defined(__AVR_AT90CAN32__) \
1346:/usr/lib/avr/include/avr/power.h **** || defined(__AVR_AT90CAN64__) \
1347:/usr/lib/avr/include/avr/power.h **** || defined(__AVR_AT90CAN128__) \
1348:/usr/lib/avr/include/avr/power.h **** || defined(__AVR_AT90PWM1__) \
1349:/usr/lib/avr/include/avr/power.h **** || defined(__AVR_AT90PWM2__) \
1350:/usr/lib/avr/include/avr/power.h **** || defined(__AVR_AT90PWM2B__) \
1351:/usr/lib/avr/include/avr/power.h **** || defined(__AVR_AT90PWM3__) \
1352:/usr/lib/avr/include/avr/power.h **** || defined(__AVR_AT90PWM3B__) \
1353:/usr/lib/avr/include/avr/power.h **** || defined(__AVR_AT90PWM216__) \
1354:/usr/lib/avr/include/avr/power.h **** || defined(__AVR_AT90PWM316__) \
1355:/usr/lib/avr/include/avr/power.h **** || defined(__AVR_AT90SCR100__) \
1356:/usr/lib/avr/include/avr/power.h **** || defined(__AVR_AT90USB646__) \
1357:/usr/lib/avr/include/avr/power.h **** || defined(__AVR_AT90USB647__) \
1358:/usr/lib/avr/include/avr/power.h **** || defined(__AVR_AT90USB82__) \
1359:/usr/lib/avr/include/avr/power.h **** || defined(__AVR_AT90USB1286__) \
1360:/usr/lib/avr/include/avr/power.h **** || defined(__AVR_AT90USB1287__) \
1361:/usr/lib/avr/include/avr/power.h **** || defined(__AVR_AT90USB162__) \
1362:/usr/lib/avr/include/avr/power.h **** || defined(__AVR_ATmega1280__) \
1363:/usr/lib/avr/include/avr/power.h **** || defined(__AVR_ATmega1281__) \
1364:/usr/lib/avr/include/avr/power.h **** || defined(__AVR_ATmega128RFA1__) \
1365:/usr/lib/avr/include/avr/power.h **** || defined(__AVR_ATmega1284P__) \
1366:/usr/lib/avr/include/avr/power.h **** || defined(__AVR_ATmega162__) \
1367:/usr/lib/avr/include/avr/power.h **** || defined(__AVR_ATmega164A__) \
1368:/usr/lib/avr/include/avr/power.h **** || defined(__AVR_ATmega164P__) \
1369:/usr/lib/avr/include/avr/power.h **** || defined(__AVR_ATmega165__) \
1370:/usr/lib/avr/include/avr/power.h **** || defined(__AVR_ATmega165A__) \
1371:/usr/lib/avr/include/avr/power.h **** || defined(__AVR_ATmega165P__) \
1372:/usr/lib/avr/include/avr/power.h **** || defined(__AVR_ATmega168__) \
1373:/usr/lib/avr/include/avr/power.h **** || defined(__AVR_ATmega168P__) \
1374:/usr/lib/avr/include/avr/power.h **** || defined(__AVR_ATmega169__) \
1375:/usr/lib/avr/include/avr/power.h **** || defined(__AVR_ATmega169A__) \
1376:/usr/lib/avr/include/avr/power.h **** || defined(__AVR_ATmega169P__) \
1377:/usr/lib/avr/include/avr/power.h **** || defined(__AVR_ATmega169PA__) \
1378:/usr/lib/avr/include/avr/power.h **** || defined(__AVR_ATmega16U4__) \
1379:/usr/lib/avr/include/avr/power.h **** || defined(__AVR_ATmega2560__) \
1380:/usr/lib/avr/include/avr/power.h **** || defined(__AVR_ATmega2561__) \
1381:/usr/lib/avr/include/avr/power.h **** || defined(__AVR_ATmega324A__) \
1382:/usr/lib/avr/include/avr/power.h **** || defined(__AVR_ATmega324P__) \
1383:/usr/lib/avr/include/avr/power.h **** || defined(__AVR_ATmega325__) \
1384:/usr/lib/avr/include/avr/power.h **** || defined(__AVR_ATmega325A__) \
1385:/usr/lib/avr/include/avr/power.h **** || defined(__AVR_ATmega3250__) \
1386:/usr/lib/avr/include/avr/power.h **** || defined(__AVR_ATmega3250A__) \
1387:/usr/lib/avr/include/avr/power.h **** || defined(__AVR_ATmega328__) \
1388:/usr/lib/avr/include/avr/power.h **** || defined(__AVR_ATmega328P__) \
1389:/usr/lib/avr/include/avr/power.h **** || defined(__AVR_ATmega329__) \
1390:/usr/lib/avr/include/avr/power.h **** || defined(__AVR_ATmega329A__) \
1391:/usr/lib/avr/include/avr/power.h **** || defined(__AVR_ATmega329P__) \
1392:/usr/lib/avr/include/avr/power.h **** || defined(__AVR_ATmega329PA__) \
1393:/usr/lib/avr/include/avr/power.h **** || defined(__AVR_ATmega3290__) \
1394:/usr/lib/avr/include/avr/power.h **** || defined(__AVR_ATmega3290A__) \
1395:/usr/lib/avr/include/avr/power.h **** || defined(__AVR_ATmega32C1__) \
1396:/usr/lib/avr/include/avr/power.h **** || defined(__AVR_ATmega32HVB__) \
1397:/usr/lib/avr/include/avr/power.h **** || defined(__AVR_ATmega32HVBREVB__) \
1398:/usr/lib/avr/include/avr/power.h **** || defined(__AVR_ATmega16HVB__) \
1399:/usr/lib/avr/include/avr/power.h **** || defined(__AVR_ATmega16HVBREVB__) \
1400:/usr/lib/avr/include/avr/power.h **** || defined(__AVR_ATmega32M1__) \
1401:/usr/lib/avr/include/avr/power.h **** || defined(__AVR_ATmega32U2__) \
1402:/usr/lib/avr/include/avr/power.h **** || defined(__AVR_ATmega32U4__) \
1403:/usr/lib/avr/include/avr/power.h **** || defined(__AVR_ATmega32U6__) \
1404:/usr/lib/avr/include/avr/power.h **** || defined(__AVR_ATmega48__) \
1405:/usr/lib/avr/include/avr/power.h **** || defined(__AVR_ATmega48P__) \
1406:/usr/lib/avr/include/avr/power.h **** || defined(__AVR_ATmega640__) \
1407:/usr/lib/avr/include/avr/power.h **** || defined(__AVR_ATmega649P__) \
1408:/usr/lib/avr/include/avr/power.h **** || defined(__AVR_ATmega644__) \
1409:/usr/lib/avr/include/avr/power.h **** || defined(__AVR_ATmega644A__) \
1410:/usr/lib/avr/include/avr/power.h **** || defined(__AVR_ATmega644P__) \
1411:/usr/lib/avr/include/avr/power.h **** || defined(__AVR_ATmega644PA__) \
1412:/usr/lib/avr/include/avr/power.h **** || defined(__AVR_ATmega645__) \
1413:/usr/lib/avr/include/avr/power.h **** || defined(__AVR_ATmega645A__) \
1414:/usr/lib/avr/include/avr/power.h **** || defined(__AVR_ATmega645P__) \
1415:/usr/lib/avr/include/avr/power.h **** || defined(__AVR_ATmega6450__) \
1416:/usr/lib/avr/include/avr/power.h **** || defined(__AVR_ATmega6450A__) \
1417:/usr/lib/avr/include/avr/power.h **** || defined(__AVR_ATmega6450P__) \
1418:/usr/lib/avr/include/avr/power.h **** || defined(__AVR_ATmega649__) \
1419:/usr/lib/avr/include/avr/power.h **** || defined(__AVR_ATmega649A__) \
1420:/usr/lib/avr/include/avr/power.h **** || defined(__AVR_ATmega6490__) \
1421:/usr/lib/avr/include/avr/power.h **** || defined(__AVR_ATmega6490A__) \
1422:/usr/lib/avr/include/avr/power.h **** || defined(__AVR_ATmega6490P__) \
1423:/usr/lib/avr/include/avr/power.h **** || defined(__AVR_ATmega88__) \
1424:/usr/lib/avr/include/avr/power.h **** || defined(__AVR_ATmega88P__) \
1425:/usr/lib/avr/include/avr/power.h **** || defined(__AVR_ATmega8U2__) \
1426:/usr/lib/avr/include/avr/power.h **** || defined(__AVR_ATmega16U2__) \
1427:/usr/lib/avr/include/avr/power.h **** || defined(__AVR_ATmega32U2__) \
1428:/usr/lib/avr/include/avr/power.h **** || defined(__AVR_ATtiny48__) \
1429:/usr/lib/avr/include/avr/power.h **** || defined(__AVR_ATtiny167__) \
1430:/usr/lib/avr/include/avr/power.h **** || defined(__DOXYGEN__)
1431:/usr/lib/avr/include/avr/power.h **** 
1432:/usr/lib/avr/include/avr/power.h **** 
1433:/usr/lib/avr/include/avr/power.h **** /** \addtogroup avr_power
1434:/usr/lib/avr/include/avr/power.h **** 
1435:/usr/lib/avr/include/avr/power.h **** Some of the newer AVRs contain a System Clock Prescale Register (CLKPR) that
1436:/usr/lib/avr/include/avr/power.h **** allows you to decrease the system clock frequency and the power consumption
1437:/usr/lib/avr/include/avr/power.h **** when the need for processing power is low. Below are two macros and an
1438:/usr/lib/avr/include/avr/power.h **** enumerated type that can be used to interface to the Clock Prescale Register.
1439:/usr/lib/avr/include/avr/power.h **** 
1440:/usr/lib/avr/include/avr/power.h **** \note Not all AVR devices have a Clock Prescale Register. On those devices
1441:/usr/lib/avr/include/avr/power.h **** without a Clock Prescale Register, these macros are not available.
1442:/usr/lib/avr/include/avr/power.h **** */
1443:/usr/lib/avr/include/avr/power.h **** 
1444:/usr/lib/avr/include/avr/power.h **** 
1445:/usr/lib/avr/include/avr/power.h **** /** \addtogroup avr_power
1446:/usr/lib/avr/include/avr/power.h **** \code 
1447:/usr/lib/avr/include/avr/power.h **** typedef enum
1448:/usr/lib/avr/include/avr/power.h **** {
1449:/usr/lib/avr/include/avr/power.h ****     clock_div_1 = 0,
1450:/usr/lib/avr/include/avr/power.h ****     clock_div_2 = 1,
1451:/usr/lib/avr/include/avr/power.h ****     clock_div_4 = 2,
1452:/usr/lib/avr/include/avr/power.h ****     clock_div_8 = 3,
1453:/usr/lib/avr/include/avr/power.h ****     clock_div_16 = 4,
1454:/usr/lib/avr/include/avr/power.h ****     clock_div_32 = 5,
1455:/usr/lib/avr/include/avr/power.h ****     clock_div_64 = 6,
1456:/usr/lib/avr/include/avr/power.h ****     clock_div_128 = 7,
1457:/usr/lib/avr/include/avr/power.h ****     clock_div_256 = 8,
1458:/usr/lib/avr/include/avr/power.h ****     clock_div_1_rc = 15, // ATmega128RFA1 only
1459:/usr/lib/avr/include/avr/power.h **** } clock_div_t;
1460:/usr/lib/avr/include/avr/power.h **** \endcode
1461:/usr/lib/avr/include/avr/power.h **** Clock prescaler setting enumerations.
1462:/usr/lib/avr/include/avr/power.h **** 
1463:/usr/lib/avr/include/avr/power.h **** */
1464:/usr/lib/avr/include/avr/power.h **** typedef enum
1465:/usr/lib/avr/include/avr/power.h **** {
1466:/usr/lib/avr/include/avr/power.h ****     clock_div_1 = 0,
1467:/usr/lib/avr/include/avr/power.h ****     clock_div_2 = 1,
1468:/usr/lib/avr/include/avr/power.h ****     clock_div_4 = 2,
1469:/usr/lib/avr/include/avr/power.h ****     clock_div_8 = 3,
1470:/usr/lib/avr/include/avr/power.h ****     clock_div_16 = 4,
1471:/usr/lib/avr/include/avr/power.h ****     clock_div_32 = 5,
1472:/usr/lib/avr/include/avr/power.h ****     clock_div_64 = 6,
1473:/usr/lib/avr/include/avr/power.h ****     clock_div_128 = 7,
1474:/usr/lib/avr/include/avr/power.h ****     clock_div_256 = 8
1475:/usr/lib/avr/include/avr/power.h **** #if defined(__AVR_ATmega128RFA1__)
1476:/usr/lib/avr/include/avr/power.h ****     , clock_div_1_rc = 15
1477:/usr/lib/avr/include/avr/power.h **** #endif
1478:/usr/lib/avr/include/avr/power.h **** } clock_div_t;
1479:/usr/lib/avr/include/avr/power.h **** 
1480:/usr/lib/avr/include/avr/power.h **** 
1481:/usr/lib/avr/include/avr/power.h **** static __inline__ void clock_prescale_set(clock_div_t) __attribute__((__always_inline__));
1482:/usr/lib/avr/include/avr/power.h **** 
1483:/usr/lib/avr/include/avr/power.h **** /** \addtogroup avr_power
1484:/usr/lib/avr/include/avr/power.h **** \code clock_prescale_set(x) \endcode
1485:/usr/lib/avr/include/avr/power.h **** 
1486:/usr/lib/avr/include/avr/power.h **** Set the clock prescaler register select bits, selecting a system clock
1487:/usr/lib/avr/include/avr/power.h **** division setting. This function is inlined, even if compiler
1488:/usr/lib/avr/include/avr/power.h **** optimizations are disabled.
1489:/usr/lib/avr/include/avr/power.h **** 
1490:/usr/lib/avr/include/avr/power.h **** The type of x is clock_div_t.
1491:/usr/lib/avr/include/avr/power.h **** */
1492:/usr/lib/avr/include/avr/power.h **** void clock_prescale_set(clock_div_t __x)
1493:/usr/lib/avr/include/avr/power.h **** {
1494:/usr/lib/avr/include/avr/power.h ****     uint8_t __tmp = _BV(CLKPCE);
1495:/usr/lib/avr/include/avr/power.h ****     __asm__ __volatile__ (
 1441               		.loc 5 1495 0
 1442 0016 90E0      		ldi r25,0
 1443 0018 80E8      		ldi r24,lo8(-128)
 1444               	/* #APP */
 1445               	 ;  1495 "/usr/lib/avr/include/avr/power.h" 1
 1446 001a 0FB6      		in __tmp_reg__,__SREG__
 1447 001c F894      		cli
 1448 001e 8093 6100 		sts 97, r24
 1449 0022 9093 6100 		sts 97, r25
 1450 0026 0FBE      		out __SREG__, __tmp_reg__
 1451               	 ;  0 "" 2
 1452               	/* #NOAPP */
 1453               	.LBE355:
 1454               	.LBE354:
 1455               	.LBE353:
 1456               	.LBE352:
 634:../../tmk_core/protocol/lufa/lufa.c ****     print_set_sendchar(sendchar);
 1457               		.loc 1 634 0
 1458 0028 80E0      		ldi r24,lo8(gs(sendchar))
 1459 002a 90E0      		ldi r25,hi8(gs(sendchar))
 1460 002c 0E94 0000 		call print_set_sendchar
 1461               	.LVL114:
 635:../../tmk_core/protocol/lufa/lufa.c ****     print("\r\ninit\n");
 1462               		.loc 1 635 0
 1463 0030 80E0      		ldi r24,lo8(__c.4863)
 1464 0032 90E0      		ldi r25,hi8(__c.4863)
 1465 0034 0E94 0000 		call xputs
 1466               	.LVL115:
 637:../../tmk_core/protocol/lufa/lufa.c ****     hook_early_init();
 1467               		.loc 1 637 0
 1468 0038 0E94 0000 		call hook_early_init
 1469               	.LVL116:
 638:../../tmk_core/protocol/lufa/lufa.c ****     keyboard_setup();
 1470               		.loc 1 638 0
 1471 003c 0E94 0000 		call keyboard_setup
 1472               	.LVL117:
 1473               	.LBB356:
 1474               	.LBB357:
 617:../../tmk_core/protocol/lufa/lufa.c ****     USB_Disable();
 1475               		.loc 1 617 0
 1476 0040 0E94 0000 		call USB_Disable
 1477               	.LVL118:
 619:../../tmk_core/protocol/lufa/lufa.c ****     USB_Init();
 1478               		.loc 1 619 0
 1479 0044 0E94 0000 		call USB_Init
 1480               	.LVL119:
 1481               	.LBB358:
 1482               	.LBB359:
 1483               	.LBB360:
 1484               		.loc 4 113 0
 1485 0048 8091 E200 		lds r24,226
 1486 004c 8460      		ori r24,lo8(4)
 1487 004e 8093 E200 		sts 226,r24
 1488               	.LBE360:
 1489               	.LBE359:
 1490               	.LBE358:
 1491               	.LBE357:
 1492               	.LBE356:
 640:../../tmk_core/protocol/lufa/lufa.c ****     sei();
 1493               		.loc 1 640 0
 1494               	/* #APP */
 1495               	 ;  640 "../../tmk_core/protocol/lufa/lufa.c" 1
 1496 0052 7894      		sei
 1497               	 ;  0 "" 2
 1498               	/* #NOAPP */
 1499               	.L169:
 643:../../tmk_core/protocol/lufa/lufa.c ****     while (USB_DeviceState != DEVICE_STATE_Configured) {
 1500               		.loc 1 643 0 discriminator 1
 1501 0054 8091 0000 		lds r24,USB_DeviceState
 1502 0058 8430      		cpi r24,lo8(4)
 1503 005a 01F4      		brne .L169
 650:../../tmk_core/protocol/lufa/lufa.c ****     print("USB configured.\n");
 1504               		.loc 1 650 0
 1505 005c 80E0      		ldi r24,lo8(__c.4868)
 1506 005e 90E0      		ldi r25,hi8(__c.4868)
 1507 0060 0E94 0000 		call xputs
 1508               	.LVL120:
 653:../../tmk_core/protocol/lufa/lufa.c ****     keyboard_init();
 1509               		.loc 1 653 0
 1510 0064 0E94 0000 		call keyboard_init
 1511               	.LVL121:
 654:../../tmk_core/protocol/lufa/lufa.c ****     host_set_driver(&lufa_driver);
 1512               		.loc 1 654 0
 1513 0068 80E0      		ldi r24,lo8(lufa_driver)
 1514 006a 90E0      		ldi r25,hi8(lufa_driver)
 1515 006c 0E94 0000 		call host_set_driver
 1516               	.LVL122:
 659:../../tmk_core/protocol/lufa/lufa.c ****     print("Keyboard start.\n");
 1517               		.loc 1 659 0
 1518 0070 80E0      		ldi r24,lo8(__c.4870)
 1519 0072 90E0      		ldi r25,hi8(__c.4870)
 1520 0074 0E94 0000 		call xputs
 1521               	.LVL123:
 660:../../tmk_core/protocol/lufa/lufa.c ****     hook_late_init();
 1522               		.loc 1 660 0
 1523 0078 0E94 0000 		call hook_late_init
 1524               	.LVL124:
 1525               	.L170:
 662:../../tmk_core/protocol/lufa/lufa.c ****         while (USB_DeviceState == DEVICE_STATE_Suspended) {
 1526               		.loc 1 662 0 discriminator 1
 1527 007c 8091 0000 		lds r24,USB_DeviceState
 1528 0080 8530      		cpi r24,lo8(5)
 1529 0082 01F4      		brne .L173
 666:../../tmk_core/protocol/lufa/lufa.c ****             hook_usb_suspend_loop();
 1530               		.loc 1 666 0
 1531 0084 0E94 0000 		call hook_usb_suspend_loop
 1532               	.LVL125:
 1533 0088 00C0      		rjmp .L170
 1534               	.L173:
 669:../../tmk_core/protocol/lufa/lufa.c ****         keyboard_task();
 1535               		.loc 1 669 0
 1536 008a 0E94 0000 		call keyboard_task
 1537               	.LVL126:
 674:../../tmk_core/protocol/lufa/lufa.c ****     }
 1538               		.loc 1 674 0
 1539 008e 00C0      		rjmp .L170
 1540               		.cfi_endproc
 1541               	.LFE121:
 1543               		.section	.text.hook_usb_wakeup,"ax",@progbits
 1544               		.weak	hook_usb_wakeup
 1546               	hook_usb_wakeup:
 1547               	.LFB126:
 709:../../tmk_core/protocol/lufa/lufa.c ****     }
 710:../../tmk_core/protocol/lufa/lufa.c **** }
 711:../../tmk_core/protocol/lufa/lufa.c **** 
 712:../../tmk_core/protocol/lufa/lufa.c **** __attribute__((weak))
 713:../../tmk_core/protocol/lufa/lufa.c **** void hook_usb_wakeup(void)
 714:../../tmk_core/protocol/lufa/lufa.c **** {
 1548               		.loc 1 714 0
 1549               		.cfi_startproc
 1550               	/* prologue: function */
 1551               	/* frame size = 0 */
 1552               	/* stack size = 0 */
 1553               	.L__stack_usage = 0
 715:../../tmk_core/protocol/lufa/lufa.c ****     suspend_wakeup_init();
 1554               		.loc 1 715 0
 1555 0000 0E94 0000 		call suspend_wakeup_init
 1556               	.LVL127:
 716:../../tmk_core/protocol/lufa/lufa.c **** #ifdef SLEEP_LED_ENABLE
 717:../../tmk_core/protocol/lufa/lufa.c ****     sleep_led_disable();
 718:../../tmk_core/protocol/lufa/lufa.c **** #endif
 719:../../tmk_core/protocol/lufa/lufa.c **** 
 720:../../tmk_core/protocol/lufa/lufa.c ****     // Restore LED status
 721:../../tmk_core/protocol/lufa/lufa.c ****     // BIOS/grub won't recognize/enumerate if led_set() takes long(around 40ms?)
 722:../../tmk_core/protocol/lufa/lufa.c ****     // Converters fall into the case and miss wakeup event(timeout to reply?) in the end.
 723:../../tmk_core/protocol/lufa/lufa.c ****     //led_set(host_keyboard_leds());
 724:../../tmk_core/protocol/lufa/lufa.c ****     // Instead, restore stats and update at keyboard_task() in main loop
 725:../../tmk_core/protocol/lufa/lufa.c ****     keyboard_led_stats = _led_stats;
 1557               		.loc 1 725 0
 1558 0004 8091 0000 		lds r24,_led_stats
 1559 0008 8093 0000 		sts keyboard_led_stats,r24
 1560 000c 0895      		ret
 1561               		.cfi_endproc
 1562               	.LFE126:
 1564               		.section	.text.EVENT_USB_Device_WakeUp,"ax",@progbits
 1565               	.global	EVENT_USB_Device_WakeUp
 1567               	EVENT_USB_Device_WakeUp:
 1568               	.LFB109:
 201:../../tmk_core/protocol/lufa/lufa.c **** {
 1569               		.loc 1 201 0
 1570               		.cfi_startproc
 1571               	/* prologue: function */
 1572               	/* frame size = 0 */
 1573               	/* stack size = 0 */
 1574               	.L__stack_usage = 0
 205:../../tmk_core/protocol/lufa/lufa.c ****     hook_usb_wakeup();
 1575               		.loc 1 205 0
 1576 0000 0C94 0000 		jmp hook_usb_wakeup
 1577               	.LVL128:
 1578               		.cfi_endproc
 1579               	.LFE109:
 1581               		.section	.progmem.data.__c.4870,"a",@progbits
 1584               	__c.4870:
 1585 0000 4B65 7962 		.string	"Keyboard start.\n"
 1585      6F61 7264 
 1585      2073 7461 
 1585      7274 2E0A 
 1585      00
 1586               		.section	.progmem.data.__c.4868,"a",@progbits
 1589               	__c.4868:
 1590 0000 5553 4220 		.string	"USB configured.\n"
 1590      636F 6E66 
 1590      6967 7572 
 1590      6564 2E0A 
 1590      00
 1591               		.section	.progmem.data.__c.4863,"a",@progbits
 1594               	__c.4863:
 1595 0000 0D0A 696E 		.string	"\r\ninit\n"
 1595      6974 0A00 
 1596               		.section	.bss.timeouted.4840,"aw",@nobits
 1599               	timeouted.4840:
 1600 0000 00        		.zero	1
 1601               		.section	.bss.count.4770,"aw",@nobits
 1604               	count.4770:
 1605 0000 00        		.zero	1
 1606               		.section	.progmem.data.__c.4757,"a",@progbits
 1609               	__c.4757:
 1610 0000 5B44 5D00 		.string	"[D]"
 1611               		.section	.progmem.data.__c.4752,"a",@progbits
 1614               	__c.4752:
 1615 0000 5B43 5D00 		.string	"[C]"
 1616               		.section	.bss._led_stats,"aw",@nobits
 1619               	_led_stats:
 1620 0000 00        		.zero	1
 1621               		.section	.bss.console_flush,"aw",@nobits
 1624               	console_flush:
 1625 0000 00        		.zero	1
 1626               	.global	lufa_driver
 1627               		.section	.data.lufa_driver,"aw",@progbits
 1630               	lufa_driver:
 1631 0000 0000      		.word	gs(keyboard_leds)
 1632 0002 0000      		.word	gs(send_keyboard)
 1633 0004 0000      		.word	gs(send_mouse)
 1634 0006 0000      		.word	gs(send_system)
 1635 0008 0000      		.word	gs(send_consumer)
 1636               		.section	.bss.keyboard_report_sent,"aw",@nobits
 1639               	keyboard_report_sent:
 1640 0000 0000 0000 		.zero	32
 1640      0000 0000 
 1640      0000 0000 
 1640      0000 0000 
 1640      0000 0000 
 1641               		.section	.bss.keyboard_led_stats,"aw",@nobits
 1644               	keyboard_led_stats:
 1645 0000 00        		.zero	1
 1646               	.global	keyboard_protocol
 1647               		.section	.data.keyboard_protocol,"aw",@progbits
 1650               	keyboard_protocol:
 1651 0000 01        		.byte	1
 1652               	.global	keyboard_idle
 1653               		.section	.bss.keyboard_idle,"aw",@nobits
 1656               	keyboard_idle:
 1657 0000 00        		.zero	1
 1658               		.text
 1659               	.Letext0:
 1660               		.file 6 "/usr/lib/avr/include/stdint.h"
 1661               		.file 7 "../../tmk_core/protocol/lufa/LUFA-git/LUFA/Drivers/USB/Core/AVR8/../Device.h"
 1662               		.file 8 "../../tmk_core/protocol/lufa/LUFA-git/LUFA/Drivers/USB/Core/AVR8/../StdRequestType.h"
 1663               		.file 9 "../../tmk_core/protocol/lufa/LUFA-git/LUFA/Drivers/USB/Class/Device/../Common/HIDClassCom
 1664               		.file 10 "../../tmk_core/common/report.h"
 1665               		.file 11 "../../tmk_core/common/host_driver.h"
 1666               		.file 12 "../../tmk_core/protocol/lufa/lufa.h"
 1667               		.file 13 "../../tmk_core/protocol/lufa/LUFA-git/LUFA/Drivers/USB/Core/AVR8/../AVR8/Device_AVR8.h"
 1668               		.file 14 "../../tmk_core/protocol/lufa/LUFA-git/LUFA/Drivers/USB/Core/AVR8/../DeviceStandardReq.h"
 1669               		.file 15 "../../tmk_core/protocol/lufa/LUFA-git/LUFA/Drivers/USB/Core/USBTask.h"
 1670               		.file 16 "../../tmk_core/common/host.h"
 1671               		.file 17 "../../tmk_core/protocol/lufa/LUFA-git/LUFA/Drivers/USB/Core/AVR8/USBController_AVR8.h"
 1672               		.file 18 "../../tmk_core/protocol/lufa/LUFA-git/LUFA/Drivers/USB/Core/AVR8/../AVR8/EndpointStream_
 1673               		.file 19 "../../tmk_core/common/action.h"
 1674               		.file 20 "../../tmk_core/common/avr/xprintf.h"
 1675               		.file 21 "../../tmk_core/common/led.h"
 1676               		.file 22 "../../tmk_core/common/matrix.h"
 1677               		.file 23 "../../tmk_core/common/suspend.h"
 1678               		.file 24 "../../tmk_core/common/print.h"
 1679               		.file 25 "../../tmk_core/common/keyboard.h"
DEFINED SYMBOLS
                            *ABS*:0000000000000000 lufa.c
     /tmp/ccwwO4ho.s:2      *ABS*:000000000000003e __SP_H__
     /tmp/ccwwO4ho.s:3      *ABS*:000000000000003d __SP_L__
     /tmp/ccwwO4ho.s:4      *ABS*:000000000000003f __SREG__
     /tmp/ccwwO4ho.s:5      *ABS*:0000000000000000 __tmp_reg__
     /tmp/ccwwO4ho.s:6      *ABS*:0000000000000001 __zero_reg__
     /tmp/ccwwO4ho.s:12     .text.keyboard_leds:0000000000000000 keyboard_leds
     /tmp/ccwwO4ho.s:1644   .bss.keyboard_led_stats:0000000000000000 keyboard_led_stats
     /tmp/ccwwO4ho.s:30     .text.sendchar:0000000000000000 sendchar
     /tmp/ccwwO4ho.s:1624   .bss.console_flush:0000000000000000 console_flush
     /tmp/ccwwO4ho.s:1599   .bss.timeouted.4840:0000000000000000 timeouted.4840
     /tmp/ccwwO4ho.s:265    .text.send_consumer:0000000000000000 send_consumer
     /tmp/ccwwO4ho.s:379    .text.send_system:0000000000000000 send_system
     /tmp/ccwwO4ho.s:495    .text.send_mouse:0000000000000000 send_mouse
     /tmp/ccwwO4ho.s:579    .text.send_keyboard:0000000000000000 send_keyboard
     /tmp/ccwwO4ho.s:1650   .data.keyboard_protocol:0000000000000000 keyboard_protocol
     /tmp/ccwwO4ho.s:1639   .bss.keyboard_report_sent:0000000000000000 keyboard_report_sent
     /tmp/ccwwO4ho.s:756    .text.EVENT_USB_Device_Connect:0000000000000000 EVENT_USB_Device_Connect
     /tmp/ccwwO4ho.s:1614   .progmem.data.__c.4752:0000000000000000 __c.4752
     /tmp/ccwwO4ho.s:799    .text.EVENT_USB_Device_Disconnect:0000000000000000 EVENT_USB_Device_Disconnect
     /tmp/ccwwO4ho.s:1609   .progmem.data.__c.4757:0000000000000000 __c.4757
     /tmp/ccwwO4ho.s:821    .text.EVENT_USB_Device_Reset:0000000000000000 EVENT_USB_Device_Reset
     /tmp/ccwwO4ho.s:836    .text.EVENT_USB_Device_StartOfFrame:0000000000000000 EVENT_USB_Device_StartOfFrame
     /tmp/ccwwO4ho.s:1604   .bss.count.4770:0000000000000000 count.4770
     /tmp/ccwwO4ho.s:973    .text.EVENT_USB_Device_ConfigurationChanged:0000000000000000 EVENT_USB_Device_ConfigurationChanged
     /tmp/ccwwO4ho.s:1034   .text.EVENT_USB_Device_ControlRequest:0000000000000000 EVENT_USB_Device_ControlRequest
     /tmp/ccwwO4ho.s:1656   .bss.keyboard_idle:0000000000000000 keyboard_idle
     /tmp/ccwwO4ho.s:1305   .text.hook_early_init:0000000000000000 hook_early_init
     /tmp/ccwwO4ho.s:1320   .text.hook_late_init:0000000000000000 hook_late_init
     /tmp/ccwwO4ho.s:1335   .text.hook_usb_suspend_entry:0000000000000000 hook_usb_suspend_entry
     /tmp/ccwwO4ho.s:1619   .bss._led_stats:0000000000000000 _led_stats
     /tmp/ccwwO4ho.s:1364   .text.EVENT_USB_Device_Suspend:0000000000000000 EVENT_USB_Device_Suspend
     /tmp/ccwwO4ho.s:1381   .text.hook_usb_suspend_loop:0000000000000000 hook_usb_suspend_loop
     /tmp/ccwwO4ho.s:1411   .text.startup.main:0000000000000000 main
     /tmp/ccwwO4ho.s:1594   .progmem.data.__c.4863:0000000000000000 __c.4863
     /tmp/ccwwO4ho.s:1589   .progmem.data.__c.4868:0000000000000000 __c.4868
     /tmp/ccwwO4ho.s:1630   .data.lufa_driver:0000000000000000 lufa_driver
     /tmp/ccwwO4ho.s:1584   .progmem.data.__c.4870:0000000000000000 __c.4870
     /tmp/ccwwO4ho.s:1546   .text.hook_usb_wakeup:0000000000000000 hook_usb_wakeup
     /tmp/ccwwO4ho.s:1567   .text.EVENT_USB_Device_WakeUp:0000000000000000 EVENT_USB_Device_WakeUp

UNDEFINED SYMBOLS
USB_DeviceState
Endpoint_Write_Stream_LE
keyboard_nkro
xputs
USB_IsInitialized
USB_Disable
USB_Init
__udivmodqi4
Endpoint_ConfigureEndpoint_Prv
USB_ControlRequest
Endpoint_Write_Control_Stream_LE
Endpoint_ClearStatusStage
clear_keyboard
led_set
matrix_clear
suspend_power_down
USB_Device_RemoteWakeupEnabled
suspend_wakeup_condition
USB_Device_SendRemoteWakeup
print_set_sendchar
keyboard_setup
keyboard_init
host_set_driver
keyboard_task
suspend_wakeup_init
__do_copy_data
__do_clear_bss
