   1               		.file	"EndpointStream_AVR8.c"
   2               	__SP_H__ = 0x3e
   3               	__SP_L__ = 0x3d
   4               	__SREG__ = 0x3f
   5               	__tmp_reg__ = 0
   6               	__zero_reg__ = 1
   7               		.text
   8               	.Ltext0:
   9               		.cfi_sections	.debug_frame
  10               		.section	.text.Endpoint_Discard_Stream,"ax",@progbits
  11               	.global	Endpoint_Discard_Stream
  13               	Endpoint_Discard_Stream:
  14               	.LFB85:
  15               		.file 1 "../../tmk_core/protocol/lufa/LUFA-git/LUFA/Drivers/USB/Core/AVR8/EndpointStream_AVR8.c"
   1:../../tmk_core/protocol/lufa/LUFA-git/LUFA/Drivers/USB/Core/AVR8/EndpointStream_AVR8.c **** /*
   2:../../tmk_core/protocol/lufa/LUFA-git/LUFA/Drivers/USB/Core/AVR8/EndpointStream_AVR8.c ****              LUFA Library
   3:../../tmk_core/protocol/lufa/LUFA-git/LUFA/Drivers/USB/Core/AVR8/EndpointStream_AVR8.c ****      Copyright (C) Dean Camera, 2014.
   4:../../tmk_core/protocol/lufa/LUFA-git/LUFA/Drivers/USB/Core/AVR8/EndpointStream_AVR8.c **** 
   5:../../tmk_core/protocol/lufa/LUFA-git/LUFA/Drivers/USB/Core/AVR8/EndpointStream_AVR8.c ****   dean [at] fourwalledcubicle [dot] com
   6:../../tmk_core/protocol/lufa/LUFA-git/LUFA/Drivers/USB/Core/AVR8/EndpointStream_AVR8.c ****            www.lufa-lib.org
   7:../../tmk_core/protocol/lufa/LUFA-git/LUFA/Drivers/USB/Core/AVR8/EndpointStream_AVR8.c **** */
   8:../../tmk_core/protocol/lufa/LUFA-git/LUFA/Drivers/USB/Core/AVR8/EndpointStream_AVR8.c **** 
   9:../../tmk_core/protocol/lufa/LUFA-git/LUFA/Drivers/USB/Core/AVR8/EndpointStream_AVR8.c **** /*
  10:../../tmk_core/protocol/lufa/LUFA-git/LUFA/Drivers/USB/Core/AVR8/EndpointStream_AVR8.c ****   Copyright 2014  Dean Camera (dean [at] fourwalledcubicle [dot] com)
  11:../../tmk_core/protocol/lufa/LUFA-git/LUFA/Drivers/USB/Core/AVR8/EndpointStream_AVR8.c **** 
  12:../../tmk_core/protocol/lufa/LUFA-git/LUFA/Drivers/USB/Core/AVR8/EndpointStream_AVR8.c ****   Permission to use, copy, modify, distribute, and sell this
  13:../../tmk_core/protocol/lufa/LUFA-git/LUFA/Drivers/USB/Core/AVR8/EndpointStream_AVR8.c ****   software and its documentation for any purpose is hereby granted
  14:../../tmk_core/protocol/lufa/LUFA-git/LUFA/Drivers/USB/Core/AVR8/EndpointStream_AVR8.c ****   without fee, provided that the above copyright notice appear in
  15:../../tmk_core/protocol/lufa/LUFA-git/LUFA/Drivers/USB/Core/AVR8/EndpointStream_AVR8.c ****   all copies and that both that the copyright notice and this
  16:../../tmk_core/protocol/lufa/LUFA-git/LUFA/Drivers/USB/Core/AVR8/EndpointStream_AVR8.c ****   permission notice and warranty disclaimer appear in supporting
  17:../../tmk_core/protocol/lufa/LUFA-git/LUFA/Drivers/USB/Core/AVR8/EndpointStream_AVR8.c ****   documentation, and that the name of the author not be used in
  18:../../tmk_core/protocol/lufa/LUFA-git/LUFA/Drivers/USB/Core/AVR8/EndpointStream_AVR8.c ****   advertising or publicity pertaining to distribution of the
  19:../../tmk_core/protocol/lufa/LUFA-git/LUFA/Drivers/USB/Core/AVR8/EndpointStream_AVR8.c ****   software without specific, written prior permission.
  20:../../tmk_core/protocol/lufa/LUFA-git/LUFA/Drivers/USB/Core/AVR8/EndpointStream_AVR8.c **** 
  21:../../tmk_core/protocol/lufa/LUFA-git/LUFA/Drivers/USB/Core/AVR8/EndpointStream_AVR8.c ****   The author disclaims all warranties with regard to this
  22:../../tmk_core/protocol/lufa/LUFA-git/LUFA/Drivers/USB/Core/AVR8/EndpointStream_AVR8.c ****   software, including all implied warranties of merchantability
  23:../../tmk_core/protocol/lufa/LUFA-git/LUFA/Drivers/USB/Core/AVR8/EndpointStream_AVR8.c ****   and fitness.  In no event shall the author be liable for any
  24:../../tmk_core/protocol/lufa/LUFA-git/LUFA/Drivers/USB/Core/AVR8/EndpointStream_AVR8.c ****   special, indirect or consequential damages or any damages
  25:../../tmk_core/protocol/lufa/LUFA-git/LUFA/Drivers/USB/Core/AVR8/EndpointStream_AVR8.c ****   whatsoever resulting from loss of use, data or profits, whether
  26:../../tmk_core/protocol/lufa/LUFA-git/LUFA/Drivers/USB/Core/AVR8/EndpointStream_AVR8.c ****   in an action of contract, negligence or other tortious action,
  27:../../tmk_core/protocol/lufa/LUFA-git/LUFA/Drivers/USB/Core/AVR8/EndpointStream_AVR8.c ****   arising out of or in connection with the use or performance of
  28:../../tmk_core/protocol/lufa/LUFA-git/LUFA/Drivers/USB/Core/AVR8/EndpointStream_AVR8.c ****   this software.
  29:../../tmk_core/protocol/lufa/LUFA-git/LUFA/Drivers/USB/Core/AVR8/EndpointStream_AVR8.c **** */
  30:../../tmk_core/protocol/lufa/LUFA-git/LUFA/Drivers/USB/Core/AVR8/EndpointStream_AVR8.c **** 
  31:../../tmk_core/protocol/lufa/LUFA-git/LUFA/Drivers/USB/Core/AVR8/EndpointStream_AVR8.c **** #include "../../../../Common/Common.h"
  32:../../tmk_core/protocol/lufa/LUFA-git/LUFA/Drivers/USB/Core/AVR8/EndpointStream_AVR8.c **** #if (ARCH == ARCH_AVR8)
  33:../../tmk_core/protocol/lufa/LUFA-git/LUFA/Drivers/USB/Core/AVR8/EndpointStream_AVR8.c **** 
  34:../../tmk_core/protocol/lufa/LUFA-git/LUFA/Drivers/USB/Core/AVR8/EndpointStream_AVR8.c **** #define  __INCLUDE_FROM_USB_DRIVER
  35:../../tmk_core/protocol/lufa/LUFA-git/LUFA/Drivers/USB/Core/AVR8/EndpointStream_AVR8.c **** #include "../USBMode.h"
  36:../../tmk_core/protocol/lufa/LUFA-git/LUFA/Drivers/USB/Core/AVR8/EndpointStream_AVR8.c **** 
  37:../../tmk_core/protocol/lufa/LUFA-git/LUFA/Drivers/USB/Core/AVR8/EndpointStream_AVR8.c **** #if defined(USB_CAN_BE_DEVICE)
  38:../../tmk_core/protocol/lufa/LUFA-git/LUFA/Drivers/USB/Core/AVR8/EndpointStream_AVR8.c **** 
  39:../../tmk_core/protocol/lufa/LUFA-git/LUFA/Drivers/USB/Core/AVR8/EndpointStream_AVR8.c **** #include "EndpointStream_AVR8.h"
  40:../../tmk_core/protocol/lufa/LUFA-git/LUFA/Drivers/USB/Core/AVR8/EndpointStream_AVR8.c **** 
  41:../../tmk_core/protocol/lufa/LUFA-git/LUFA/Drivers/USB/Core/AVR8/EndpointStream_AVR8.c **** #if !defined(CONTROL_ONLY_DEVICE)
  42:../../tmk_core/protocol/lufa/LUFA-git/LUFA/Drivers/USB/Core/AVR8/EndpointStream_AVR8.c **** uint8_t Endpoint_Discard_Stream(uint16_t Length,
  43:../../tmk_core/protocol/lufa/LUFA-git/LUFA/Drivers/USB/Core/AVR8/EndpointStream_AVR8.c ****                                 uint16_t* const BytesProcessed)
  44:../../tmk_core/protocol/lufa/LUFA-git/LUFA/Drivers/USB/Core/AVR8/EndpointStream_AVR8.c **** {
  16               		.loc 1 44 0
  17               		.cfi_startproc
  18               	.LVL0:
  19 0000 EF92      		push r14
  20               	.LCFI0:
  21               		.cfi_def_cfa_offset 3
  22               		.cfi_offset 14, -2
  23 0002 FF92      		push r15
  24               	.LCFI1:
  25               		.cfi_def_cfa_offset 4
  26               		.cfi_offset 15, -3
  27 0004 0F93      		push r16
  28               	.LCFI2:
  29               		.cfi_def_cfa_offset 5
  30               		.cfi_offset 16, -4
  31 0006 1F93      		push r17
  32               	.LCFI3:
  33               		.cfi_def_cfa_offset 6
  34               		.cfi_offset 17, -5
  35 0008 CF93      		push r28
  36               	.LCFI4:
  37               		.cfi_def_cfa_offset 7
  38               		.cfi_offset 28, -6
  39 000a DF93      		push r29
  40               	.LCFI5:
  41               		.cfi_def_cfa_offset 8
  42               		.cfi_offset 29, -7
  43               	/* prologue: function */
  44               	/* frame size = 0 */
  45               	/* stack size = 6 */
  46               	.L__stack_usage = 6
  47 000c 8C01      		movw r16,r24
  48 000e EB01      		movw r28,r22
  49               	.LVL1:
  45:../../tmk_core/protocol/lufa/LUFA-git/LUFA/Drivers/USB/Core/AVR8/EndpointStream_AVR8.c **** 	uint8_t  ErrorCode;
  46:../../tmk_core/protocol/lufa/LUFA-git/LUFA/Drivers/USB/Core/AVR8/EndpointStream_AVR8.c **** 	uint16_t BytesInTransfer = 0;
  47:../../tmk_core/protocol/lufa/LUFA-git/LUFA/Drivers/USB/Core/AVR8/EndpointStream_AVR8.c **** 
  48:../../tmk_core/protocol/lufa/LUFA-git/LUFA/Drivers/USB/Core/AVR8/EndpointStream_AVR8.c **** 	if ((ErrorCode = Endpoint_WaitUntilReady()))
  50               		.loc 1 48 0
  51 0010 0E94 0000 		call Endpoint_WaitUntilReady
  52               	.LVL2:
  53 0014 8111      		cpse r24,__zero_reg__
  54 0016 00C0      		rjmp .L2
  49:../../tmk_core/protocol/lufa/LUFA-git/LUFA/Drivers/USB/Core/AVR8/EndpointStream_AVR8.c **** 	  return ErrorCode;
  50:../../tmk_core/protocol/lufa/LUFA-git/LUFA/Drivers/USB/Core/AVR8/EndpointStream_AVR8.c **** 
  51:../../tmk_core/protocol/lufa/LUFA-git/LUFA/Drivers/USB/Core/AVR8/EndpointStream_AVR8.c **** 	if (BytesProcessed != NULL)
  55               		.loc 1 51 0
  56 0018 2097      		sbiw r28,0
  57 001a 01F0      		breq .L3
  52:../../tmk_core/protocol/lufa/LUFA-git/LUFA/Drivers/USB/Core/AVR8/EndpointStream_AVR8.c **** 	  Length -= *BytesProcessed;
  58               		.loc 1 52 0
  59 001c 8881      		ld r24,Y
  60 001e 9981      		ldd r25,Y+1
  61               	.LVL3:
  62 0020 081B      		sub r16,r24
  63 0022 190B      		sbc r17,r25
  64               	.LVL4:
  65               	.L3:
  44:../../tmk_core/protocol/lufa/LUFA-git/LUFA/Drivers/USB/Core/AVR8/EndpointStream_AVR8.c **** {
  66               		.loc 1 44 0 discriminator 1
  67 0024 E12C      		mov r14,__zero_reg__
  68 0026 F12C      		mov r15,__zero_reg__
  69               	.LVL5:
  70               	.L4:
  53:../../tmk_core/protocol/lufa/LUFA-git/LUFA/Drivers/USB/Core/AVR8/EndpointStream_AVR8.c **** 
  54:../../tmk_core/protocol/lufa/LUFA-git/LUFA/Drivers/USB/Core/AVR8/EndpointStream_AVR8.c **** 	while (Length)
  71               		.loc 1 54 0 discriminator 1
  72 0028 0115      		cp r16,__zero_reg__
  73 002a 1105      		cpc r17,__zero_reg__
  74 002c 01F0      		breq .L15
  75               	.LBB268:
  76               	.LBB269:
  77               		.file 2 "../../tmk_core/protocol/lufa/LUFA-git/LUFA/Drivers/USB/Core/AVR8/../AVR8/../AVR8/Endpoint
   1:../../tmk_core/protocol/lufa/LUFA-git/LUFA/Drivers/USB/Core/AVR8/../AVR8/../AVR8/Endpoint_AVR8.h **** /*
   2:../../tmk_core/protocol/lufa/LUFA-git/LUFA/Drivers/USB/Core/AVR8/../AVR8/../AVR8/Endpoint_AVR8.h ****              LUFA Library
   3:../../tmk_core/protocol/lufa/LUFA-git/LUFA/Drivers/USB/Core/AVR8/../AVR8/../AVR8/Endpoint_AVR8.h ****      Copyright (C) Dean Camera, 2014.
   4:../../tmk_core/protocol/lufa/LUFA-git/LUFA/Drivers/USB/Core/AVR8/../AVR8/../AVR8/Endpoint_AVR8.h **** 
   5:../../tmk_core/protocol/lufa/LUFA-git/LUFA/Drivers/USB/Core/AVR8/../AVR8/../AVR8/Endpoint_AVR8.h ****   dean [at] fourwalledcubicle [dot] com
   6:../../tmk_core/protocol/lufa/LUFA-git/LUFA/Drivers/USB/Core/AVR8/../AVR8/../AVR8/Endpoint_AVR8.h ****            www.lufa-lib.org
   7:../../tmk_core/protocol/lufa/LUFA-git/LUFA/Drivers/USB/Core/AVR8/../AVR8/../AVR8/Endpoint_AVR8.h **** */
   8:../../tmk_core/protocol/lufa/LUFA-git/LUFA/Drivers/USB/Core/AVR8/../AVR8/../AVR8/Endpoint_AVR8.h **** 
   9:../../tmk_core/protocol/lufa/LUFA-git/LUFA/Drivers/USB/Core/AVR8/../AVR8/../AVR8/Endpoint_AVR8.h **** /*
  10:../../tmk_core/protocol/lufa/LUFA-git/LUFA/Drivers/USB/Core/AVR8/../AVR8/../AVR8/Endpoint_AVR8.h ****   Copyright 2014  Dean Camera (dean [at] fourwalledcubicle [dot] com)
  11:../../tmk_core/protocol/lufa/LUFA-git/LUFA/Drivers/USB/Core/AVR8/../AVR8/../AVR8/Endpoint_AVR8.h **** 
  12:../../tmk_core/protocol/lufa/LUFA-git/LUFA/Drivers/USB/Core/AVR8/../AVR8/../AVR8/Endpoint_AVR8.h ****   Permission to use, copy, modify, distribute, and sell this
  13:../../tmk_core/protocol/lufa/LUFA-git/LUFA/Drivers/USB/Core/AVR8/../AVR8/../AVR8/Endpoint_AVR8.h ****   software and its documentation for any purpose is hereby granted
  14:../../tmk_core/protocol/lufa/LUFA-git/LUFA/Drivers/USB/Core/AVR8/../AVR8/../AVR8/Endpoint_AVR8.h ****   without fee, provided that the above copyright notice appear in
  15:../../tmk_core/protocol/lufa/LUFA-git/LUFA/Drivers/USB/Core/AVR8/../AVR8/../AVR8/Endpoint_AVR8.h ****   all copies and that both that the copyright notice and this
  16:../../tmk_core/protocol/lufa/LUFA-git/LUFA/Drivers/USB/Core/AVR8/../AVR8/../AVR8/Endpoint_AVR8.h ****   permission notice and warranty disclaimer appear in supporting
  17:../../tmk_core/protocol/lufa/LUFA-git/LUFA/Drivers/USB/Core/AVR8/../AVR8/../AVR8/Endpoint_AVR8.h ****   documentation, and that the name of the author not be used in
  18:../../tmk_core/protocol/lufa/LUFA-git/LUFA/Drivers/USB/Core/AVR8/../AVR8/../AVR8/Endpoint_AVR8.h ****   advertising or publicity pertaining to distribution of the
  19:../../tmk_core/protocol/lufa/LUFA-git/LUFA/Drivers/USB/Core/AVR8/../AVR8/../AVR8/Endpoint_AVR8.h ****   software without specific, written prior permission.
  20:../../tmk_core/protocol/lufa/LUFA-git/LUFA/Drivers/USB/Core/AVR8/../AVR8/../AVR8/Endpoint_AVR8.h **** 
  21:../../tmk_core/protocol/lufa/LUFA-git/LUFA/Drivers/USB/Core/AVR8/../AVR8/../AVR8/Endpoint_AVR8.h ****   The author disclaims all warranties with regard to this
  22:../../tmk_core/protocol/lufa/LUFA-git/LUFA/Drivers/USB/Core/AVR8/../AVR8/../AVR8/Endpoint_AVR8.h ****   software, including all implied warranties of merchantability
  23:../../tmk_core/protocol/lufa/LUFA-git/LUFA/Drivers/USB/Core/AVR8/../AVR8/../AVR8/Endpoint_AVR8.h ****   and fitness.  In no event shall the author be liable for any
  24:../../tmk_core/protocol/lufa/LUFA-git/LUFA/Drivers/USB/Core/AVR8/../AVR8/../AVR8/Endpoint_AVR8.h ****   special, indirect or consequential damages or any damages
  25:../../tmk_core/protocol/lufa/LUFA-git/LUFA/Drivers/USB/Core/AVR8/../AVR8/../AVR8/Endpoint_AVR8.h ****   whatsoever resulting from loss of use, data or profits, whether
  26:../../tmk_core/protocol/lufa/LUFA-git/LUFA/Drivers/USB/Core/AVR8/../AVR8/../AVR8/Endpoint_AVR8.h ****   in an action of contract, negligence or other tortious action,
  27:../../tmk_core/protocol/lufa/LUFA-git/LUFA/Drivers/USB/Core/AVR8/../AVR8/../AVR8/Endpoint_AVR8.h ****   arising out of or in connection with the use or performance of
  28:../../tmk_core/protocol/lufa/LUFA-git/LUFA/Drivers/USB/Core/AVR8/../AVR8/../AVR8/Endpoint_AVR8.h ****   this software.
  29:../../tmk_core/protocol/lufa/LUFA-git/LUFA/Drivers/USB/Core/AVR8/../AVR8/../AVR8/Endpoint_AVR8.h **** */
  30:../../tmk_core/protocol/lufa/LUFA-git/LUFA/Drivers/USB/Core/AVR8/../AVR8/../AVR8/Endpoint_AVR8.h **** 
  31:../../tmk_core/protocol/lufa/LUFA-git/LUFA/Drivers/USB/Core/AVR8/../AVR8/../AVR8/Endpoint_AVR8.h **** /** \file
  32:../../tmk_core/protocol/lufa/LUFA-git/LUFA/Drivers/USB/Core/AVR8/../AVR8/../AVR8/Endpoint_AVR8.h ****  *  \brief USB Endpoint definitions for the AVR8 microcontrollers.
  33:../../tmk_core/protocol/lufa/LUFA-git/LUFA/Drivers/USB/Core/AVR8/../AVR8/../AVR8/Endpoint_AVR8.h ****  *  \copydetails Group_EndpointManagement_AVR8
  34:../../tmk_core/protocol/lufa/LUFA-git/LUFA/Drivers/USB/Core/AVR8/../AVR8/../AVR8/Endpoint_AVR8.h ****  *
  35:../../tmk_core/protocol/lufa/LUFA-git/LUFA/Drivers/USB/Core/AVR8/../AVR8/../AVR8/Endpoint_AVR8.h ****  *  \note This file should not be included directly. It is automatically included as needed by the 
  36:../../tmk_core/protocol/lufa/LUFA-git/LUFA/Drivers/USB/Core/AVR8/../AVR8/../AVR8/Endpoint_AVR8.h ****  *        dispatch header located in LUFA/Drivers/USB/USB.h.
  37:../../tmk_core/protocol/lufa/LUFA-git/LUFA/Drivers/USB/Core/AVR8/../AVR8/../AVR8/Endpoint_AVR8.h ****  */
  38:../../tmk_core/protocol/lufa/LUFA-git/LUFA/Drivers/USB/Core/AVR8/../AVR8/../AVR8/Endpoint_AVR8.h **** 
  39:../../tmk_core/protocol/lufa/LUFA-git/LUFA/Drivers/USB/Core/AVR8/../AVR8/../AVR8/Endpoint_AVR8.h **** /** \ingroup Group_EndpointRW
  40:../../tmk_core/protocol/lufa/LUFA-git/LUFA/Drivers/USB/Core/AVR8/../AVR8/../AVR8/Endpoint_AVR8.h ****  *  \defgroup Group_EndpointRW_AVR8 Endpoint Data Reading and Writing (AVR8)
  41:../../tmk_core/protocol/lufa/LUFA-git/LUFA/Drivers/USB/Core/AVR8/../AVR8/../AVR8/Endpoint_AVR8.h ****  *  \brief Endpoint data read/write definitions for the Atmel AVR8 architecture.
  42:../../tmk_core/protocol/lufa/LUFA-git/LUFA/Drivers/USB/Core/AVR8/../AVR8/../AVR8/Endpoint_AVR8.h ****  *
  43:../../tmk_core/protocol/lufa/LUFA-git/LUFA/Drivers/USB/Core/AVR8/../AVR8/../AVR8/Endpoint_AVR8.h ****  *  Functions, macros, variables, enums and types related to data reading and writing from and to e
  44:../../tmk_core/protocol/lufa/LUFA-git/LUFA/Drivers/USB/Core/AVR8/../AVR8/../AVR8/Endpoint_AVR8.h ****  */
  45:../../tmk_core/protocol/lufa/LUFA-git/LUFA/Drivers/USB/Core/AVR8/../AVR8/../AVR8/Endpoint_AVR8.h **** 
  46:../../tmk_core/protocol/lufa/LUFA-git/LUFA/Drivers/USB/Core/AVR8/../AVR8/../AVR8/Endpoint_AVR8.h **** /** \ingroup Group_EndpointPrimitiveRW
  47:../../tmk_core/protocol/lufa/LUFA-git/LUFA/Drivers/USB/Core/AVR8/../AVR8/../AVR8/Endpoint_AVR8.h ****  *  \defgroup Group_EndpointPrimitiveRW_AVR8 Read/Write of Primitive Data Types (AVR8)
  48:../../tmk_core/protocol/lufa/LUFA-git/LUFA/Drivers/USB/Core/AVR8/../AVR8/../AVR8/Endpoint_AVR8.h ****  *  \brief Endpoint primitive read/write definitions for the Atmel AVR8 architecture.
  49:../../tmk_core/protocol/lufa/LUFA-git/LUFA/Drivers/USB/Core/AVR8/../AVR8/../AVR8/Endpoint_AVR8.h ****  *
  50:../../tmk_core/protocol/lufa/LUFA-git/LUFA/Drivers/USB/Core/AVR8/../AVR8/../AVR8/Endpoint_AVR8.h ****  *  Functions, macros, variables, enums and types related to data reading and writing of primitive 
  51:../../tmk_core/protocol/lufa/LUFA-git/LUFA/Drivers/USB/Core/AVR8/../AVR8/../AVR8/Endpoint_AVR8.h ****  *  from and to endpoints.
  52:../../tmk_core/protocol/lufa/LUFA-git/LUFA/Drivers/USB/Core/AVR8/../AVR8/../AVR8/Endpoint_AVR8.h ****  */
  53:../../tmk_core/protocol/lufa/LUFA-git/LUFA/Drivers/USB/Core/AVR8/../AVR8/../AVR8/Endpoint_AVR8.h **** 
  54:../../tmk_core/protocol/lufa/LUFA-git/LUFA/Drivers/USB/Core/AVR8/../AVR8/../AVR8/Endpoint_AVR8.h **** /** \ingroup Group_EndpointPacketManagement
  55:../../tmk_core/protocol/lufa/LUFA-git/LUFA/Drivers/USB/Core/AVR8/../AVR8/../AVR8/Endpoint_AVR8.h ****  *  \defgroup Group_EndpointPacketManagement_AVR8 Endpoint Packet Management (AVR8)
  56:../../tmk_core/protocol/lufa/LUFA-git/LUFA/Drivers/USB/Core/AVR8/../AVR8/../AVR8/Endpoint_AVR8.h ****  *  \brief Endpoint packet management definitions for the Atmel AVR8 architecture.
  57:../../tmk_core/protocol/lufa/LUFA-git/LUFA/Drivers/USB/Core/AVR8/../AVR8/../AVR8/Endpoint_AVR8.h ****  *
  58:../../tmk_core/protocol/lufa/LUFA-git/LUFA/Drivers/USB/Core/AVR8/../AVR8/../AVR8/Endpoint_AVR8.h ****  *  Functions, macros, variables, enums and types related to packet management of endpoints.
  59:../../tmk_core/protocol/lufa/LUFA-git/LUFA/Drivers/USB/Core/AVR8/../AVR8/../AVR8/Endpoint_AVR8.h ****  */
  60:../../tmk_core/protocol/lufa/LUFA-git/LUFA/Drivers/USB/Core/AVR8/../AVR8/../AVR8/Endpoint_AVR8.h **** 
  61:../../tmk_core/protocol/lufa/LUFA-git/LUFA/Drivers/USB/Core/AVR8/../AVR8/../AVR8/Endpoint_AVR8.h **** /** \ingroup Group_EndpointManagement
  62:../../tmk_core/protocol/lufa/LUFA-git/LUFA/Drivers/USB/Core/AVR8/../AVR8/../AVR8/Endpoint_AVR8.h ****  *  \defgroup Group_EndpointManagement_AVR8 Endpoint Management (AVR8)
  63:../../tmk_core/protocol/lufa/LUFA-git/LUFA/Drivers/USB/Core/AVR8/../AVR8/../AVR8/Endpoint_AVR8.h ****  *  \brief Endpoint management definitions for the Atmel AVR8 architecture.
  64:../../tmk_core/protocol/lufa/LUFA-git/LUFA/Drivers/USB/Core/AVR8/../AVR8/../AVR8/Endpoint_AVR8.h ****  *
  65:../../tmk_core/protocol/lufa/LUFA-git/LUFA/Drivers/USB/Core/AVR8/../AVR8/../AVR8/Endpoint_AVR8.h ****  *  Functions, macros and enums related to endpoint management when in USB Device mode. This
  66:../../tmk_core/protocol/lufa/LUFA-git/LUFA/Drivers/USB/Core/AVR8/../AVR8/../AVR8/Endpoint_AVR8.h ****  *  module contains the endpoint management macros, as well as endpoint interrupt and data
  67:../../tmk_core/protocol/lufa/LUFA-git/LUFA/Drivers/USB/Core/AVR8/../AVR8/../AVR8/Endpoint_AVR8.h ****  *  send/receive functions for various data types.
  68:../../tmk_core/protocol/lufa/LUFA-git/LUFA/Drivers/USB/Core/AVR8/../AVR8/../AVR8/Endpoint_AVR8.h ****  *
  69:../../tmk_core/protocol/lufa/LUFA-git/LUFA/Drivers/USB/Core/AVR8/../AVR8/../AVR8/Endpoint_AVR8.h ****  *  @{
  70:../../tmk_core/protocol/lufa/LUFA-git/LUFA/Drivers/USB/Core/AVR8/../AVR8/../AVR8/Endpoint_AVR8.h ****  */
  71:../../tmk_core/protocol/lufa/LUFA-git/LUFA/Drivers/USB/Core/AVR8/../AVR8/../AVR8/Endpoint_AVR8.h **** 
  72:../../tmk_core/protocol/lufa/LUFA-git/LUFA/Drivers/USB/Core/AVR8/../AVR8/../AVR8/Endpoint_AVR8.h **** #ifndef __ENDPOINT_AVR8_H__
  73:../../tmk_core/protocol/lufa/LUFA-git/LUFA/Drivers/USB/Core/AVR8/../AVR8/../AVR8/Endpoint_AVR8.h **** #define __ENDPOINT_AVR8_H__
  74:../../tmk_core/protocol/lufa/LUFA-git/LUFA/Drivers/USB/Core/AVR8/../AVR8/../AVR8/Endpoint_AVR8.h **** 
  75:../../tmk_core/protocol/lufa/LUFA-git/LUFA/Drivers/USB/Core/AVR8/../AVR8/../AVR8/Endpoint_AVR8.h **** 	/* Includes: */
  76:../../tmk_core/protocol/lufa/LUFA-git/LUFA/Drivers/USB/Core/AVR8/../AVR8/../AVR8/Endpoint_AVR8.h **** 		#include "../../../../Common/Common.h"
  77:../../tmk_core/protocol/lufa/LUFA-git/LUFA/Drivers/USB/Core/AVR8/../AVR8/../AVR8/Endpoint_AVR8.h **** 		#include "../USBTask.h"
  78:../../tmk_core/protocol/lufa/LUFA-git/LUFA/Drivers/USB/Core/AVR8/../AVR8/../AVR8/Endpoint_AVR8.h **** 		#include "../USBInterrupt.h"
  79:../../tmk_core/protocol/lufa/LUFA-git/LUFA/Drivers/USB/Core/AVR8/../AVR8/../AVR8/Endpoint_AVR8.h **** 
  80:../../tmk_core/protocol/lufa/LUFA-git/LUFA/Drivers/USB/Core/AVR8/../AVR8/../AVR8/Endpoint_AVR8.h **** 	/* Enable C linkage for C++ Compilers: */
  81:../../tmk_core/protocol/lufa/LUFA-git/LUFA/Drivers/USB/Core/AVR8/../AVR8/../AVR8/Endpoint_AVR8.h **** 		#if defined(__cplusplus)
  82:../../tmk_core/protocol/lufa/LUFA-git/LUFA/Drivers/USB/Core/AVR8/../AVR8/../AVR8/Endpoint_AVR8.h **** 			extern "C" {
  83:../../tmk_core/protocol/lufa/LUFA-git/LUFA/Drivers/USB/Core/AVR8/../AVR8/../AVR8/Endpoint_AVR8.h **** 		#endif
  84:../../tmk_core/protocol/lufa/LUFA-git/LUFA/Drivers/USB/Core/AVR8/../AVR8/../AVR8/Endpoint_AVR8.h **** 
  85:../../tmk_core/protocol/lufa/LUFA-git/LUFA/Drivers/USB/Core/AVR8/../AVR8/../AVR8/Endpoint_AVR8.h **** 	/* Preprocessor Checks: */
  86:../../tmk_core/protocol/lufa/LUFA-git/LUFA/Drivers/USB/Core/AVR8/../AVR8/../AVR8/Endpoint_AVR8.h **** 		#if !defined(__INCLUDE_FROM_USB_DRIVER)
  87:../../tmk_core/protocol/lufa/LUFA-git/LUFA/Drivers/USB/Core/AVR8/../AVR8/../AVR8/Endpoint_AVR8.h **** 			#error Do not include this file directly. Include LUFA/Drivers/USB/USB.h instead.
  88:../../tmk_core/protocol/lufa/LUFA-git/LUFA/Drivers/USB/Core/AVR8/../AVR8/../AVR8/Endpoint_AVR8.h **** 		#endif
  89:../../tmk_core/protocol/lufa/LUFA-git/LUFA/Drivers/USB/Core/AVR8/../AVR8/../AVR8/Endpoint_AVR8.h **** 
  90:../../tmk_core/protocol/lufa/LUFA-git/LUFA/Drivers/USB/Core/AVR8/../AVR8/../AVR8/Endpoint_AVR8.h **** 	/* Private Interface - For use in library only: */
  91:../../tmk_core/protocol/lufa/LUFA-git/LUFA/Drivers/USB/Core/AVR8/../AVR8/../AVR8/Endpoint_AVR8.h **** 	#if !defined(__DOXYGEN__)
  92:../../tmk_core/protocol/lufa/LUFA-git/LUFA/Drivers/USB/Core/AVR8/../AVR8/../AVR8/Endpoint_AVR8.h **** 		/* Inline Functions: */
  93:../../tmk_core/protocol/lufa/LUFA-git/LUFA/Drivers/USB/Core/AVR8/../AVR8/../AVR8/Endpoint_AVR8.h **** 			static inline uint8_t Endpoint_BytesToEPSizeMask(const uint16_t Bytes) ATTR_WARN_UNUSED_RESULT A
  94:../../tmk_core/protocol/lufa/LUFA-git/LUFA/Drivers/USB/Core/AVR8/../AVR8/../AVR8/Endpoint_AVR8.h **** 			                                                                       ATTR_ALWAYS_INLINE;
  95:../../tmk_core/protocol/lufa/LUFA-git/LUFA/Drivers/USB/Core/AVR8/../AVR8/../AVR8/Endpoint_AVR8.h **** 			static inline uint8_t Endpoint_BytesToEPSizeMask(const uint16_t Bytes)
  96:../../tmk_core/protocol/lufa/LUFA-git/LUFA/Drivers/USB/Core/AVR8/../AVR8/../AVR8/Endpoint_AVR8.h **** 			{
  97:../../tmk_core/protocol/lufa/LUFA-git/LUFA/Drivers/USB/Core/AVR8/../AVR8/../AVR8/Endpoint_AVR8.h **** 				uint8_t  MaskVal    = 0;
  98:../../tmk_core/protocol/lufa/LUFA-git/LUFA/Drivers/USB/Core/AVR8/../AVR8/../AVR8/Endpoint_AVR8.h **** 				uint16_t CheckBytes = 8;
  99:../../tmk_core/protocol/lufa/LUFA-git/LUFA/Drivers/USB/Core/AVR8/../AVR8/../AVR8/Endpoint_AVR8.h **** 
 100:../../tmk_core/protocol/lufa/LUFA-git/LUFA/Drivers/USB/Core/AVR8/../AVR8/../AVR8/Endpoint_AVR8.h **** 				while (CheckBytes < Bytes)
 101:../../tmk_core/protocol/lufa/LUFA-git/LUFA/Drivers/USB/Core/AVR8/../AVR8/../AVR8/Endpoint_AVR8.h **** 				{
 102:../../tmk_core/protocol/lufa/LUFA-git/LUFA/Drivers/USB/Core/AVR8/../AVR8/../AVR8/Endpoint_AVR8.h **** 					MaskVal++;
 103:../../tmk_core/protocol/lufa/LUFA-git/LUFA/Drivers/USB/Core/AVR8/../AVR8/../AVR8/Endpoint_AVR8.h **** 					CheckBytes <<= 1;
 104:../../tmk_core/protocol/lufa/LUFA-git/LUFA/Drivers/USB/Core/AVR8/../AVR8/../AVR8/Endpoint_AVR8.h **** 				}
 105:../../tmk_core/protocol/lufa/LUFA-git/LUFA/Drivers/USB/Core/AVR8/../AVR8/../AVR8/Endpoint_AVR8.h **** 
 106:../../tmk_core/protocol/lufa/LUFA-git/LUFA/Drivers/USB/Core/AVR8/../AVR8/../AVR8/Endpoint_AVR8.h **** 				return (MaskVal << EPSIZE0);
 107:../../tmk_core/protocol/lufa/LUFA-git/LUFA/Drivers/USB/Core/AVR8/../AVR8/../AVR8/Endpoint_AVR8.h **** 			}
 108:../../tmk_core/protocol/lufa/LUFA-git/LUFA/Drivers/USB/Core/AVR8/../AVR8/../AVR8/Endpoint_AVR8.h **** 
 109:../../tmk_core/protocol/lufa/LUFA-git/LUFA/Drivers/USB/Core/AVR8/../AVR8/../AVR8/Endpoint_AVR8.h **** 		/* Function Prototypes: */
 110:../../tmk_core/protocol/lufa/LUFA-git/LUFA/Drivers/USB/Core/AVR8/../AVR8/../AVR8/Endpoint_AVR8.h **** 			void Endpoint_ClearEndpoints(void);
 111:../../tmk_core/protocol/lufa/LUFA-git/LUFA/Drivers/USB/Core/AVR8/../AVR8/../AVR8/Endpoint_AVR8.h **** 			bool Endpoint_ConfigureEndpoint_Prv(const uint8_t Number,
 112:../../tmk_core/protocol/lufa/LUFA-git/LUFA/Drivers/USB/Core/AVR8/../AVR8/../AVR8/Endpoint_AVR8.h **** 			                                    const uint8_t UECFG0XData,
 113:../../tmk_core/protocol/lufa/LUFA-git/LUFA/Drivers/USB/Core/AVR8/../AVR8/../AVR8/Endpoint_AVR8.h **** 			                                    const uint8_t UECFG1XData);
 114:../../tmk_core/protocol/lufa/LUFA-git/LUFA/Drivers/USB/Core/AVR8/../AVR8/../AVR8/Endpoint_AVR8.h **** 
 115:../../tmk_core/protocol/lufa/LUFA-git/LUFA/Drivers/USB/Core/AVR8/../AVR8/../AVR8/Endpoint_AVR8.h **** 	#endif
 116:../../tmk_core/protocol/lufa/LUFA-git/LUFA/Drivers/USB/Core/AVR8/../AVR8/../AVR8/Endpoint_AVR8.h **** 
 117:../../tmk_core/protocol/lufa/LUFA-git/LUFA/Drivers/USB/Core/AVR8/../AVR8/../AVR8/Endpoint_AVR8.h **** 	/* Public Interface - May be used in end-application: */
 118:../../tmk_core/protocol/lufa/LUFA-git/LUFA/Drivers/USB/Core/AVR8/../AVR8/../AVR8/Endpoint_AVR8.h **** 		/* Macros: */
 119:../../tmk_core/protocol/lufa/LUFA-git/LUFA/Drivers/USB/Core/AVR8/../AVR8/../AVR8/Endpoint_AVR8.h **** 			#if (!defined(FIXED_CONTROL_ENDPOINT_SIZE) || defined(__DOXYGEN__))
 120:../../tmk_core/protocol/lufa/LUFA-git/LUFA/Drivers/USB/Core/AVR8/../AVR8/../AVR8/Endpoint_AVR8.h **** 				/** Default size of the default control endpoint's bank, until altered by the control endpoint 
 121:../../tmk_core/protocol/lufa/LUFA-git/LUFA/Drivers/USB/Core/AVR8/../AVR8/../AVR8/Endpoint_AVR8.h **** 				 *  value in the device descriptor. Not available if the \c FIXED_CONTROL_ENDPOINT_SIZE token i
 122:../../tmk_core/protocol/lufa/LUFA-git/LUFA/Drivers/USB/Core/AVR8/../AVR8/../AVR8/Endpoint_AVR8.h **** 				 */
 123:../../tmk_core/protocol/lufa/LUFA-git/LUFA/Drivers/USB/Core/AVR8/../AVR8/../AVR8/Endpoint_AVR8.h **** 				#define ENDPOINT_CONTROLEP_DEFAULT_SIZE     8
 124:../../tmk_core/protocol/lufa/LUFA-git/LUFA/Drivers/USB/Core/AVR8/../AVR8/../AVR8/Endpoint_AVR8.h **** 			#endif
 125:../../tmk_core/protocol/lufa/LUFA-git/LUFA/Drivers/USB/Core/AVR8/../AVR8/../AVR8/Endpoint_AVR8.h **** 
 126:../../tmk_core/protocol/lufa/LUFA-git/LUFA/Drivers/USB/Core/AVR8/../AVR8/../AVR8/Endpoint_AVR8.h **** 			#if !defined(CONTROL_ONLY_DEVICE) || defined(__DOXYGEN__)
 127:../../tmk_core/protocol/lufa/LUFA-git/LUFA/Drivers/USB/Core/AVR8/../AVR8/../AVR8/Endpoint_AVR8.h **** 				#if defined(USB_SERIES_4_AVR) || defined(USB_SERIES_6_AVR) || defined(USB_SERIES_7_AVR) || defi
 128:../../tmk_core/protocol/lufa/LUFA-git/LUFA/Drivers/USB/Core/AVR8/../AVR8/../AVR8/Endpoint_AVR8.h **** 					/** Total number of endpoints (including the default control endpoint at address 0) which may
 129:../../tmk_core/protocol/lufa/LUFA-git/LUFA/Drivers/USB/Core/AVR8/../AVR8/../AVR8/Endpoint_AVR8.h **** 					 *  be used in the device. Different USB AVR models support different amounts of endpoints,
 130:../../tmk_core/protocol/lufa/LUFA-git/LUFA/Drivers/USB/Core/AVR8/../AVR8/../AVR8/Endpoint_AVR8.h **** 					 *  this value reflects the maximum number of endpoints for the currently selected AVR model.
 131:../../tmk_core/protocol/lufa/LUFA-git/LUFA/Drivers/USB/Core/AVR8/../AVR8/../AVR8/Endpoint_AVR8.h **** 					 */
 132:../../tmk_core/protocol/lufa/LUFA-git/LUFA/Drivers/USB/Core/AVR8/../AVR8/../AVR8/Endpoint_AVR8.h **** 					#define ENDPOINT_TOTAL_ENDPOINTS        7
 133:../../tmk_core/protocol/lufa/LUFA-git/LUFA/Drivers/USB/Core/AVR8/../AVR8/../AVR8/Endpoint_AVR8.h **** 				#else
 134:../../tmk_core/protocol/lufa/LUFA-git/LUFA/Drivers/USB/Core/AVR8/../AVR8/../AVR8/Endpoint_AVR8.h **** 					#define ENDPOINT_TOTAL_ENDPOINTS        5
 135:../../tmk_core/protocol/lufa/LUFA-git/LUFA/Drivers/USB/Core/AVR8/../AVR8/../AVR8/Endpoint_AVR8.h **** 				#endif
 136:../../tmk_core/protocol/lufa/LUFA-git/LUFA/Drivers/USB/Core/AVR8/../AVR8/../AVR8/Endpoint_AVR8.h **** 			#else
 137:../../tmk_core/protocol/lufa/LUFA-git/LUFA/Drivers/USB/Core/AVR8/../AVR8/../AVR8/Endpoint_AVR8.h **** 				#define ENDPOINT_TOTAL_ENDPOINTS            1
 138:../../tmk_core/protocol/lufa/LUFA-git/LUFA/Drivers/USB/Core/AVR8/../AVR8/../AVR8/Endpoint_AVR8.h **** 			#endif
 139:../../tmk_core/protocol/lufa/LUFA-git/LUFA/Drivers/USB/Core/AVR8/../AVR8/../AVR8/Endpoint_AVR8.h **** 
 140:../../tmk_core/protocol/lufa/LUFA-git/LUFA/Drivers/USB/Core/AVR8/../AVR8/../AVR8/Endpoint_AVR8.h **** 		/* Enums: */
 141:../../tmk_core/protocol/lufa/LUFA-git/LUFA/Drivers/USB/Core/AVR8/../AVR8/../AVR8/Endpoint_AVR8.h **** 			/** Enum for the possible error return codes of the \ref Endpoint_WaitUntilReady() function.
 142:../../tmk_core/protocol/lufa/LUFA-git/LUFA/Drivers/USB/Core/AVR8/../AVR8/../AVR8/Endpoint_AVR8.h **** 			 *
 143:../../tmk_core/protocol/lufa/LUFA-git/LUFA/Drivers/USB/Core/AVR8/../AVR8/../AVR8/Endpoint_AVR8.h **** 			 *  \ingroup Group_EndpointRW_AVR8
 144:../../tmk_core/protocol/lufa/LUFA-git/LUFA/Drivers/USB/Core/AVR8/../AVR8/../AVR8/Endpoint_AVR8.h **** 			 */
 145:../../tmk_core/protocol/lufa/LUFA-git/LUFA/Drivers/USB/Core/AVR8/../AVR8/../AVR8/Endpoint_AVR8.h **** 			enum Endpoint_WaitUntilReady_ErrorCodes_t
 146:../../tmk_core/protocol/lufa/LUFA-git/LUFA/Drivers/USB/Core/AVR8/../AVR8/../AVR8/Endpoint_AVR8.h **** 			{
 147:../../tmk_core/protocol/lufa/LUFA-git/LUFA/Drivers/USB/Core/AVR8/../AVR8/../AVR8/Endpoint_AVR8.h **** 				ENDPOINT_READYWAIT_NoError                 = 0, /**< Endpoint is ready for next packet, no erro
 148:../../tmk_core/protocol/lufa/LUFA-git/LUFA/Drivers/USB/Core/AVR8/../AVR8/../AVR8/Endpoint_AVR8.h **** 				ENDPOINT_READYWAIT_EndpointStalled         = 1, /**< The endpoint was stalled during the stream
 149:../../tmk_core/protocol/lufa/LUFA-git/LUFA/Drivers/USB/Core/AVR8/../AVR8/../AVR8/Endpoint_AVR8.h **** 				                                                 *   transfer by the host or device.
 150:../../tmk_core/protocol/lufa/LUFA-git/LUFA/Drivers/USB/Core/AVR8/../AVR8/../AVR8/Endpoint_AVR8.h **** 				                                                 */
 151:../../tmk_core/protocol/lufa/LUFA-git/LUFA/Drivers/USB/Core/AVR8/../AVR8/../AVR8/Endpoint_AVR8.h **** 				ENDPOINT_READYWAIT_DeviceDisconnected      = 2,	/**< Device was disconnected from the host whil
 152:../../tmk_core/protocol/lufa/LUFA-git/LUFA/Drivers/USB/Core/AVR8/../AVR8/../AVR8/Endpoint_AVR8.h **** 				                                                 *   waiting for the endpoint to become ready.
 153:../../tmk_core/protocol/lufa/LUFA-git/LUFA/Drivers/USB/Core/AVR8/../AVR8/../AVR8/Endpoint_AVR8.h **** 				                                                 */
 154:../../tmk_core/protocol/lufa/LUFA-git/LUFA/Drivers/USB/Core/AVR8/../AVR8/../AVR8/Endpoint_AVR8.h **** 				ENDPOINT_READYWAIT_BusSuspended            = 3, /**< The USB bus has been suspended by the host
 155:../../tmk_core/protocol/lufa/LUFA-git/LUFA/Drivers/USB/Core/AVR8/../AVR8/../AVR8/Endpoint_AVR8.h **** 				                                                 *   no USB endpoint traffic can occur until th
 156:../../tmk_core/protocol/lufa/LUFA-git/LUFA/Drivers/USB/Core/AVR8/../AVR8/../AVR8/Endpoint_AVR8.h **** 				                                                 *   has resumed.
 157:../../tmk_core/protocol/lufa/LUFA-git/LUFA/Drivers/USB/Core/AVR8/../AVR8/../AVR8/Endpoint_AVR8.h **** 				                                                 */
 158:../../tmk_core/protocol/lufa/LUFA-git/LUFA/Drivers/USB/Core/AVR8/../AVR8/../AVR8/Endpoint_AVR8.h **** 				ENDPOINT_READYWAIT_Timeout                 = 4, /**< The host failed to accept or send the next
 159:../../tmk_core/protocol/lufa/LUFA-git/LUFA/Drivers/USB/Core/AVR8/../AVR8/../AVR8/Endpoint_AVR8.h **** 				                                                 *   within the software timeout period set by 
 160:../../tmk_core/protocol/lufa/LUFA-git/LUFA/Drivers/USB/Core/AVR8/../AVR8/../AVR8/Endpoint_AVR8.h **** 				                                                 *   \ref USB_STREAM_TIMEOUT_MS macro.
 161:../../tmk_core/protocol/lufa/LUFA-git/LUFA/Drivers/USB/Core/AVR8/../AVR8/../AVR8/Endpoint_AVR8.h **** 				                                                 */
 162:../../tmk_core/protocol/lufa/LUFA-git/LUFA/Drivers/USB/Core/AVR8/../AVR8/../AVR8/Endpoint_AVR8.h **** 			};
 163:../../tmk_core/protocol/lufa/LUFA-git/LUFA/Drivers/USB/Core/AVR8/../AVR8/../AVR8/Endpoint_AVR8.h **** 
 164:../../tmk_core/protocol/lufa/LUFA-git/LUFA/Drivers/USB/Core/AVR8/../AVR8/../AVR8/Endpoint_AVR8.h **** 		/* Inline Functions: */
 165:../../tmk_core/protocol/lufa/LUFA-git/LUFA/Drivers/USB/Core/AVR8/../AVR8/../AVR8/Endpoint_AVR8.h **** 			/** Configures the specified endpoint address with the given endpoint type, bank size and number
 166:../../tmk_core/protocol/lufa/LUFA-git/LUFA/Drivers/USB/Core/AVR8/../AVR8/../AVR8/Endpoint_AVR8.h **** 			 *  banks. Once configured, the endpoint may be read from or written to, depending on its direct
 167:../../tmk_core/protocol/lufa/LUFA-git/LUFA/Drivers/USB/Core/AVR8/../AVR8/../AVR8/Endpoint_AVR8.h **** 			 *
 168:../../tmk_core/protocol/lufa/LUFA-git/LUFA/Drivers/USB/Core/AVR8/../AVR8/../AVR8/Endpoint_AVR8.h **** 			 *  \param[in] Address    Endpoint address to configure.
 169:../../tmk_core/protocol/lufa/LUFA-git/LUFA/Drivers/USB/Core/AVR8/../AVR8/../AVR8/Endpoint_AVR8.h **** 			 *
 170:../../tmk_core/protocol/lufa/LUFA-git/LUFA/Drivers/USB/Core/AVR8/../AVR8/../AVR8/Endpoint_AVR8.h **** 			 *  \param[in] Type       Type of endpoint to configure, a \c EP_TYPE_* mask. Not all endpoint t
 171:../../tmk_core/protocol/lufa/LUFA-git/LUFA/Drivers/USB/Core/AVR8/../AVR8/../AVR8/Endpoint_AVR8.h **** 			 *                        are available on Low Speed USB devices - refer to the USB 2.0 specific
 172:../../tmk_core/protocol/lufa/LUFA-git/LUFA/Drivers/USB/Core/AVR8/../AVR8/../AVR8/Endpoint_AVR8.h **** 			 *
 173:../../tmk_core/protocol/lufa/LUFA-git/LUFA/Drivers/USB/Core/AVR8/../AVR8/../AVR8/Endpoint_AVR8.h **** 			 *  \param[in] Size       Size of the endpoint's bank, where packets are stored before they are 
 174:../../tmk_core/protocol/lufa/LUFA-git/LUFA/Drivers/USB/Core/AVR8/../AVR8/../AVR8/Endpoint_AVR8.h **** 			 *                        to the USB host, or after they have been received from the USB host (d
 175:../../tmk_core/protocol/lufa/LUFA-git/LUFA/Drivers/USB/Core/AVR8/../AVR8/../AVR8/Endpoint_AVR8.h **** 			 *                        the endpoint's data direction). The bank size must indicate the maximu
 176:../../tmk_core/protocol/lufa/LUFA-git/LUFA/Drivers/USB/Core/AVR8/../AVR8/../AVR8/Endpoint_AVR8.h **** 			 *                        that the endpoint can handle.
 177:../../tmk_core/protocol/lufa/LUFA-git/LUFA/Drivers/USB/Core/AVR8/../AVR8/../AVR8/Endpoint_AVR8.h **** 			 *
 178:../../tmk_core/protocol/lufa/LUFA-git/LUFA/Drivers/USB/Core/AVR8/../AVR8/../AVR8/Endpoint_AVR8.h **** 			 *  \param[in] Banks      Number of banks to use for the endpoint being configured.
 179:../../tmk_core/protocol/lufa/LUFA-git/LUFA/Drivers/USB/Core/AVR8/../AVR8/../AVR8/Endpoint_AVR8.h **** 			 *
 180:../../tmk_core/protocol/lufa/LUFA-git/LUFA/Drivers/USB/Core/AVR8/../AVR8/../AVR8/Endpoint_AVR8.h **** 			 *  \attention When the \c ORDERED_EP_CONFIG compile time option is used, Endpoints <b>must</b> 
 181:../../tmk_core/protocol/lufa/LUFA-git/LUFA/Drivers/USB/Core/AVR8/../AVR8/../AVR8/Endpoint_AVR8.h **** 			 *             ascending order, or bank corruption will occur.
 182:../../tmk_core/protocol/lufa/LUFA-git/LUFA/Drivers/USB/Core/AVR8/../AVR8/../AVR8/Endpoint_AVR8.h **** 			 *
 183:../../tmk_core/protocol/lufa/LUFA-git/LUFA/Drivers/USB/Core/AVR8/../AVR8/../AVR8/Endpoint_AVR8.h **** 			 *  \note Different endpoints may have different maximum packet sizes based on the endpoint's in
 184:../../tmk_core/protocol/lufa/LUFA-git/LUFA/Drivers/USB/Core/AVR8/../AVR8/../AVR8/Endpoint_AVR8.h **** 			 *        refer to the chosen microcontroller model's datasheet to determine the maximum bank si
 185:../../tmk_core/protocol/lufa/LUFA-git/LUFA/Drivers/USB/Core/AVR8/../AVR8/../AVR8/Endpoint_AVR8.h **** 			 *        \n\n
 186:../../tmk_core/protocol/lufa/LUFA-git/LUFA/Drivers/USB/Core/AVR8/../AVR8/../AVR8/Endpoint_AVR8.h **** 			 *
 187:../../tmk_core/protocol/lufa/LUFA-git/LUFA/Drivers/USB/Core/AVR8/../AVR8/../AVR8/Endpoint_AVR8.h **** 			 *  \note The default control endpoint should not be manually configured by the user application
 188:../../tmk_core/protocol/lufa/LUFA-git/LUFA/Drivers/USB/Core/AVR8/../AVR8/../AVR8/Endpoint_AVR8.h **** 			 *        it is automatically configured by the library internally.
 189:../../tmk_core/protocol/lufa/LUFA-git/LUFA/Drivers/USB/Core/AVR8/../AVR8/../AVR8/Endpoint_AVR8.h **** 			 *        \n\n
 190:../../tmk_core/protocol/lufa/LUFA-git/LUFA/Drivers/USB/Core/AVR8/../AVR8/../AVR8/Endpoint_AVR8.h **** 			 *
 191:../../tmk_core/protocol/lufa/LUFA-git/LUFA/Drivers/USB/Core/AVR8/../AVR8/../AVR8/Endpoint_AVR8.h **** 			 *  \note This routine will automatically select the specified endpoint upon success. Upon failu
 192:../../tmk_core/protocol/lufa/LUFA-git/LUFA/Drivers/USB/Core/AVR8/../AVR8/../AVR8/Endpoint_AVR8.h **** 			 *        which failed to reconfigure correctly will be selected.
 193:../../tmk_core/protocol/lufa/LUFA-git/LUFA/Drivers/USB/Core/AVR8/../AVR8/../AVR8/Endpoint_AVR8.h **** 			 *
 194:../../tmk_core/protocol/lufa/LUFA-git/LUFA/Drivers/USB/Core/AVR8/../AVR8/../AVR8/Endpoint_AVR8.h **** 			 *  \return Boolean \c true if the configuration succeeded, \c false otherwise.
 195:../../tmk_core/protocol/lufa/LUFA-git/LUFA/Drivers/USB/Core/AVR8/../AVR8/../AVR8/Endpoint_AVR8.h **** 			 */
 196:../../tmk_core/protocol/lufa/LUFA-git/LUFA/Drivers/USB/Core/AVR8/../AVR8/../AVR8/Endpoint_AVR8.h **** 			static inline bool Endpoint_ConfigureEndpoint(const uint8_t Address,
 197:../../tmk_core/protocol/lufa/LUFA-git/LUFA/Drivers/USB/Core/AVR8/../AVR8/../AVR8/Endpoint_AVR8.h **** 			                                              const uint8_t Type,
 198:../../tmk_core/protocol/lufa/LUFA-git/LUFA/Drivers/USB/Core/AVR8/../AVR8/../AVR8/Endpoint_AVR8.h **** 			                                              const uint16_t Size,
 199:../../tmk_core/protocol/lufa/LUFA-git/LUFA/Drivers/USB/Core/AVR8/../AVR8/../AVR8/Endpoint_AVR8.h **** 			                                              const uint8_t Banks) ATTR_ALWAYS_INLINE;
 200:../../tmk_core/protocol/lufa/LUFA-git/LUFA/Drivers/USB/Core/AVR8/../AVR8/../AVR8/Endpoint_AVR8.h **** 			static inline bool Endpoint_ConfigureEndpoint(const uint8_t Address,
 201:../../tmk_core/protocol/lufa/LUFA-git/LUFA/Drivers/USB/Core/AVR8/../AVR8/../AVR8/Endpoint_AVR8.h **** 			                                              const uint8_t Type,
 202:../../tmk_core/protocol/lufa/LUFA-git/LUFA/Drivers/USB/Core/AVR8/../AVR8/../AVR8/Endpoint_AVR8.h **** 			                                              const uint16_t Size,
 203:../../tmk_core/protocol/lufa/LUFA-git/LUFA/Drivers/USB/Core/AVR8/../AVR8/../AVR8/Endpoint_AVR8.h **** 			                                              const uint8_t Banks)
 204:../../tmk_core/protocol/lufa/LUFA-git/LUFA/Drivers/USB/Core/AVR8/../AVR8/../AVR8/Endpoint_AVR8.h **** 			{
 205:../../tmk_core/protocol/lufa/LUFA-git/LUFA/Drivers/USB/Core/AVR8/../AVR8/../AVR8/Endpoint_AVR8.h **** 				uint8_t Number = (Address & ENDPOINT_EPNUM_MASK);
 206:../../tmk_core/protocol/lufa/LUFA-git/LUFA/Drivers/USB/Core/AVR8/../AVR8/../AVR8/Endpoint_AVR8.h **** 
 207:../../tmk_core/protocol/lufa/LUFA-git/LUFA/Drivers/USB/Core/AVR8/../AVR8/../AVR8/Endpoint_AVR8.h **** 				if (Number >= ENDPOINT_TOTAL_ENDPOINTS)
 208:../../tmk_core/protocol/lufa/LUFA-git/LUFA/Drivers/USB/Core/AVR8/../AVR8/../AVR8/Endpoint_AVR8.h **** 				  return false;
 209:../../tmk_core/protocol/lufa/LUFA-git/LUFA/Drivers/USB/Core/AVR8/../AVR8/../AVR8/Endpoint_AVR8.h **** 
 210:../../tmk_core/protocol/lufa/LUFA-git/LUFA/Drivers/USB/Core/AVR8/../AVR8/../AVR8/Endpoint_AVR8.h **** 				return Endpoint_ConfigureEndpoint_Prv(Number,
 211:../../tmk_core/protocol/lufa/LUFA-git/LUFA/Drivers/USB/Core/AVR8/../AVR8/../AVR8/Endpoint_AVR8.h **** 				                                      ((Type << EPTYPE0) | ((Address & ENDPOINT_DIR_IN) ? (1 <<
 212:../../tmk_core/protocol/lufa/LUFA-git/LUFA/Drivers/USB/Core/AVR8/../AVR8/../AVR8/Endpoint_AVR8.h **** 				                                      ((1 << ALLOC) | ((Banks > 1) ? (1 << EPBK0) : 0) | Endpoi
 213:../../tmk_core/protocol/lufa/LUFA-git/LUFA/Drivers/USB/Core/AVR8/../AVR8/../AVR8/Endpoint_AVR8.h **** 			}
 214:../../tmk_core/protocol/lufa/LUFA-git/LUFA/Drivers/USB/Core/AVR8/../AVR8/../AVR8/Endpoint_AVR8.h **** 
 215:../../tmk_core/protocol/lufa/LUFA-git/LUFA/Drivers/USB/Core/AVR8/../AVR8/../AVR8/Endpoint_AVR8.h **** 			/** Indicates the number of bytes currently stored in the current endpoint's selected bank.
 216:../../tmk_core/protocol/lufa/LUFA-git/LUFA/Drivers/USB/Core/AVR8/../AVR8/../AVR8/Endpoint_AVR8.h **** 			 *
 217:../../tmk_core/protocol/lufa/LUFA-git/LUFA/Drivers/USB/Core/AVR8/../AVR8/../AVR8/Endpoint_AVR8.h **** 			 *  \ingroup Group_EndpointRW_AVR8
 218:../../tmk_core/protocol/lufa/LUFA-git/LUFA/Drivers/USB/Core/AVR8/../AVR8/../AVR8/Endpoint_AVR8.h **** 			 *
 219:../../tmk_core/protocol/lufa/LUFA-git/LUFA/Drivers/USB/Core/AVR8/../AVR8/../AVR8/Endpoint_AVR8.h **** 			 *  \return Total number of bytes in the currently selected Endpoint's FIFO buffer.
 220:../../tmk_core/protocol/lufa/LUFA-git/LUFA/Drivers/USB/Core/AVR8/../AVR8/../AVR8/Endpoint_AVR8.h **** 			 */
 221:../../tmk_core/protocol/lufa/LUFA-git/LUFA/Drivers/USB/Core/AVR8/../AVR8/../AVR8/Endpoint_AVR8.h **** 			static inline uint16_t Endpoint_BytesInEndpoint(void) ATTR_WARN_UNUSED_RESULT ATTR_ALWAYS_INLINE
 222:../../tmk_core/protocol/lufa/LUFA-git/LUFA/Drivers/USB/Core/AVR8/../AVR8/../AVR8/Endpoint_AVR8.h **** 			static inline uint16_t Endpoint_BytesInEndpoint(void)
 223:../../tmk_core/protocol/lufa/LUFA-git/LUFA/Drivers/USB/Core/AVR8/../AVR8/../AVR8/Endpoint_AVR8.h **** 			{
 224:../../tmk_core/protocol/lufa/LUFA-git/LUFA/Drivers/USB/Core/AVR8/../AVR8/../AVR8/Endpoint_AVR8.h **** 				#if (defined(USB_SERIES_6_AVR) || defined(USB_SERIES_7_AVR))
 225:../../tmk_core/protocol/lufa/LUFA-git/LUFA/Drivers/USB/Core/AVR8/../AVR8/../AVR8/Endpoint_AVR8.h **** 					return UEBCX;
 226:../../tmk_core/protocol/lufa/LUFA-git/LUFA/Drivers/USB/Core/AVR8/../AVR8/../AVR8/Endpoint_AVR8.h **** 				#elif defined(USB_SERIES_4_AVR)
 227:../../tmk_core/protocol/lufa/LUFA-git/LUFA/Drivers/USB/Core/AVR8/../AVR8/../AVR8/Endpoint_AVR8.h **** 					return (((uint16_t)UEBCHX << 8) | UEBCLX);
 228:../../tmk_core/protocol/lufa/LUFA-git/LUFA/Drivers/USB/Core/AVR8/../AVR8/../AVR8/Endpoint_AVR8.h **** 				#elif defined(USB_SERIES_2_AVR)
 229:../../tmk_core/protocol/lufa/LUFA-git/LUFA/Drivers/USB/Core/AVR8/../AVR8/../AVR8/Endpoint_AVR8.h **** 					return UEBCLX;
 230:../../tmk_core/protocol/lufa/LUFA-git/LUFA/Drivers/USB/Core/AVR8/../AVR8/../AVR8/Endpoint_AVR8.h **** 				#endif
 231:../../tmk_core/protocol/lufa/LUFA-git/LUFA/Drivers/USB/Core/AVR8/../AVR8/../AVR8/Endpoint_AVR8.h **** 			}
 232:../../tmk_core/protocol/lufa/LUFA-git/LUFA/Drivers/USB/Core/AVR8/../AVR8/../AVR8/Endpoint_AVR8.h **** 
 233:../../tmk_core/protocol/lufa/LUFA-git/LUFA/Drivers/USB/Core/AVR8/../AVR8/../AVR8/Endpoint_AVR8.h **** 			/** Determines the currently selected endpoint's direction.
 234:../../tmk_core/protocol/lufa/LUFA-git/LUFA/Drivers/USB/Core/AVR8/../AVR8/../AVR8/Endpoint_AVR8.h **** 			 *
 235:../../tmk_core/protocol/lufa/LUFA-git/LUFA/Drivers/USB/Core/AVR8/../AVR8/../AVR8/Endpoint_AVR8.h **** 			 *  \return The currently selected endpoint's direction, as a \c ENDPOINT_DIR_* mask.
 236:../../tmk_core/protocol/lufa/LUFA-git/LUFA/Drivers/USB/Core/AVR8/../AVR8/../AVR8/Endpoint_AVR8.h **** 			 */
 237:../../tmk_core/protocol/lufa/LUFA-git/LUFA/Drivers/USB/Core/AVR8/../AVR8/../AVR8/Endpoint_AVR8.h **** 			static inline uint8_t Endpoint_GetEndpointDirection(void) ATTR_WARN_UNUSED_RESULT ATTR_ALWAYS_IN
 238:../../tmk_core/protocol/lufa/LUFA-git/LUFA/Drivers/USB/Core/AVR8/../AVR8/../AVR8/Endpoint_AVR8.h **** 			static inline uint8_t Endpoint_GetEndpointDirection(void)
 239:../../tmk_core/protocol/lufa/LUFA-git/LUFA/Drivers/USB/Core/AVR8/../AVR8/../AVR8/Endpoint_AVR8.h **** 			{
 240:../../tmk_core/protocol/lufa/LUFA-git/LUFA/Drivers/USB/Core/AVR8/../AVR8/../AVR8/Endpoint_AVR8.h **** 				return (UECFG0X & (1 << EPDIR)) ? ENDPOINT_DIR_IN : ENDPOINT_DIR_OUT;
 241:../../tmk_core/protocol/lufa/LUFA-git/LUFA/Drivers/USB/Core/AVR8/../AVR8/../AVR8/Endpoint_AVR8.h **** 			}
 242:../../tmk_core/protocol/lufa/LUFA-git/LUFA/Drivers/USB/Core/AVR8/../AVR8/../AVR8/Endpoint_AVR8.h **** 
 243:../../tmk_core/protocol/lufa/LUFA-git/LUFA/Drivers/USB/Core/AVR8/../AVR8/../AVR8/Endpoint_AVR8.h **** 			/** Get the endpoint address of the currently selected endpoint. This is typically used to save
 244:../../tmk_core/protocol/lufa/LUFA-git/LUFA/Drivers/USB/Core/AVR8/../AVR8/../AVR8/Endpoint_AVR8.h **** 			 *  the currently selected endpoint so that it can be restored after another endpoint has been
 245:../../tmk_core/protocol/lufa/LUFA-git/LUFA/Drivers/USB/Core/AVR8/../AVR8/../AVR8/Endpoint_AVR8.h **** 			 *  manipulated.
 246:../../tmk_core/protocol/lufa/LUFA-git/LUFA/Drivers/USB/Core/AVR8/../AVR8/../AVR8/Endpoint_AVR8.h **** 			 *
 247:../../tmk_core/protocol/lufa/LUFA-git/LUFA/Drivers/USB/Core/AVR8/../AVR8/../AVR8/Endpoint_AVR8.h **** 			 *  \return Index of the currently selected endpoint.
 248:../../tmk_core/protocol/lufa/LUFA-git/LUFA/Drivers/USB/Core/AVR8/../AVR8/../AVR8/Endpoint_AVR8.h **** 			 */
 249:../../tmk_core/protocol/lufa/LUFA-git/LUFA/Drivers/USB/Core/AVR8/../AVR8/../AVR8/Endpoint_AVR8.h **** 			static inline uint8_t Endpoint_GetCurrentEndpoint(void) ATTR_WARN_UNUSED_RESULT ATTR_ALWAYS_INLI
 250:../../tmk_core/protocol/lufa/LUFA-git/LUFA/Drivers/USB/Core/AVR8/../AVR8/../AVR8/Endpoint_AVR8.h **** 			static inline uint8_t Endpoint_GetCurrentEndpoint(void)
 251:../../tmk_core/protocol/lufa/LUFA-git/LUFA/Drivers/USB/Core/AVR8/../AVR8/../AVR8/Endpoint_AVR8.h **** 			{
 252:../../tmk_core/protocol/lufa/LUFA-git/LUFA/Drivers/USB/Core/AVR8/../AVR8/../AVR8/Endpoint_AVR8.h **** 				#if !defined(CONTROL_ONLY_DEVICE)
 253:../../tmk_core/protocol/lufa/LUFA-git/LUFA/Drivers/USB/Core/AVR8/../AVR8/../AVR8/Endpoint_AVR8.h **** 					return ((UENUM & ENDPOINT_EPNUM_MASK) | Endpoint_GetEndpointDirection());
 254:../../tmk_core/protocol/lufa/LUFA-git/LUFA/Drivers/USB/Core/AVR8/../AVR8/../AVR8/Endpoint_AVR8.h **** 				#else
 255:../../tmk_core/protocol/lufa/LUFA-git/LUFA/Drivers/USB/Core/AVR8/../AVR8/../AVR8/Endpoint_AVR8.h **** 					return ENDPOINT_CONTROLEP;
 256:../../tmk_core/protocol/lufa/LUFA-git/LUFA/Drivers/USB/Core/AVR8/../AVR8/../AVR8/Endpoint_AVR8.h **** 				#endif
 257:../../tmk_core/protocol/lufa/LUFA-git/LUFA/Drivers/USB/Core/AVR8/../AVR8/../AVR8/Endpoint_AVR8.h **** 			}
 258:../../tmk_core/protocol/lufa/LUFA-git/LUFA/Drivers/USB/Core/AVR8/../AVR8/../AVR8/Endpoint_AVR8.h **** 
 259:../../tmk_core/protocol/lufa/LUFA-git/LUFA/Drivers/USB/Core/AVR8/../AVR8/../AVR8/Endpoint_AVR8.h **** 			/** Selects the given endpoint address.
 260:../../tmk_core/protocol/lufa/LUFA-git/LUFA/Drivers/USB/Core/AVR8/../AVR8/../AVR8/Endpoint_AVR8.h **** 			 *
 261:../../tmk_core/protocol/lufa/LUFA-git/LUFA/Drivers/USB/Core/AVR8/../AVR8/../AVR8/Endpoint_AVR8.h **** 			 *  Any endpoint operations which do not require the endpoint address to be indicated will opera
 262:../../tmk_core/protocol/lufa/LUFA-git/LUFA/Drivers/USB/Core/AVR8/../AVR8/../AVR8/Endpoint_AVR8.h **** 			 *  the currently selected endpoint.
 263:../../tmk_core/protocol/lufa/LUFA-git/LUFA/Drivers/USB/Core/AVR8/../AVR8/../AVR8/Endpoint_AVR8.h **** 			 *
 264:../../tmk_core/protocol/lufa/LUFA-git/LUFA/Drivers/USB/Core/AVR8/../AVR8/../AVR8/Endpoint_AVR8.h **** 			 *  \param[in] Address Endpoint address to select.
 265:../../tmk_core/protocol/lufa/LUFA-git/LUFA/Drivers/USB/Core/AVR8/../AVR8/../AVR8/Endpoint_AVR8.h **** 			 */
 266:../../tmk_core/protocol/lufa/LUFA-git/LUFA/Drivers/USB/Core/AVR8/../AVR8/../AVR8/Endpoint_AVR8.h **** 			static inline void Endpoint_SelectEndpoint(const uint8_t Address) ATTR_ALWAYS_INLINE;
 267:../../tmk_core/protocol/lufa/LUFA-git/LUFA/Drivers/USB/Core/AVR8/../AVR8/../AVR8/Endpoint_AVR8.h **** 			static inline void Endpoint_SelectEndpoint(const uint8_t Address)
 268:../../tmk_core/protocol/lufa/LUFA-git/LUFA/Drivers/USB/Core/AVR8/../AVR8/../AVR8/Endpoint_AVR8.h **** 			{
 269:../../tmk_core/protocol/lufa/LUFA-git/LUFA/Drivers/USB/Core/AVR8/../AVR8/../AVR8/Endpoint_AVR8.h **** 				#if !defined(CONTROL_ONLY_DEVICE)
 270:../../tmk_core/protocol/lufa/LUFA-git/LUFA/Drivers/USB/Core/AVR8/../AVR8/../AVR8/Endpoint_AVR8.h **** 					UENUM = (Address & ENDPOINT_EPNUM_MASK);
 271:../../tmk_core/protocol/lufa/LUFA-git/LUFA/Drivers/USB/Core/AVR8/../AVR8/../AVR8/Endpoint_AVR8.h **** 				#endif
 272:../../tmk_core/protocol/lufa/LUFA-git/LUFA/Drivers/USB/Core/AVR8/../AVR8/../AVR8/Endpoint_AVR8.h **** 			}
 273:../../tmk_core/protocol/lufa/LUFA-git/LUFA/Drivers/USB/Core/AVR8/../AVR8/../AVR8/Endpoint_AVR8.h **** 
 274:../../tmk_core/protocol/lufa/LUFA-git/LUFA/Drivers/USB/Core/AVR8/../AVR8/../AVR8/Endpoint_AVR8.h **** 			/** Resets the endpoint bank FIFO. This clears all the endpoint banks and resets the USB control
 275:../../tmk_core/protocol/lufa/LUFA-git/LUFA/Drivers/USB/Core/AVR8/../AVR8/../AVR8/Endpoint_AVR8.h **** 			 *  data In and Out pointers to the bank's contents.
 276:../../tmk_core/protocol/lufa/LUFA-git/LUFA/Drivers/USB/Core/AVR8/../AVR8/../AVR8/Endpoint_AVR8.h **** 			 *
 277:../../tmk_core/protocol/lufa/LUFA-git/LUFA/Drivers/USB/Core/AVR8/../AVR8/../AVR8/Endpoint_AVR8.h **** 			 *  \param[in] Address  Endpoint address whose FIFO buffers are to be reset.
 278:../../tmk_core/protocol/lufa/LUFA-git/LUFA/Drivers/USB/Core/AVR8/../AVR8/../AVR8/Endpoint_AVR8.h **** 			 */
 279:../../tmk_core/protocol/lufa/LUFA-git/LUFA/Drivers/USB/Core/AVR8/../AVR8/../AVR8/Endpoint_AVR8.h **** 			static inline void Endpoint_ResetEndpoint(const uint8_t Address) ATTR_ALWAYS_INLINE;
 280:../../tmk_core/protocol/lufa/LUFA-git/LUFA/Drivers/USB/Core/AVR8/../AVR8/../AVR8/Endpoint_AVR8.h **** 			static inline void Endpoint_ResetEndpoint(const uint8_t Address)
 281:../../tmk_core/protocol/lufa/LUFA-git/LUFA/Drivers/USB/Core/AVR8/../AVR8/../AVR8/Endpoint_AVR8.h **** 			{
 282:../../tmk_core/protocol/lufa/LUFA-git/LUFA/Drivers/USB/Core/AVR8/../AVR8/../AVR8/Endpoint_AVR8.h **** 				UERST = (1 << (Address & ENDPOINT_EPNUM_MASK));
 283:../../tmk_core/protocol/lufa/LUFA-git/LUFA/Drivers/USB/Core/AVR8/../AVR8/../AVR8/Endpoint_AVR8.h **** 				UERST = 0;
 284:../../tmk_core/protocol/lufa/LUFA-git/LUFA/Drivers/USB/Core/AVR8/../AVR8/../AVR8/Endpoint_AVR8.h **** 			}
 285:../../tmk_core/protocol/lufa/LUFA-git/LUFA/Drivers/USB/Core/AVR8/../AVR8/../AVR8/Endpoint_AVR8.h **** 
 286:../../tmk_core/protocol/lufa/LUFA-git/LUFA/Drivers/USB/Core/AVR8/../AVR8/../AVR8/Endpoint_AVR8.h **** 			/** Enables the currently selected endpoint so that data can be sent and received through it to
 287:../../tmk_core/protocol/lufa/LUFA-git/LUFA/Drivers/USB/Core/AVR8/../AVR8/../AVR8/Endpoint_AVR8.h **** 			 *  and from a host.
 288:../../tmk_core/protocol/lufa/LUFA-git/LUFA/Drivers/USB/Core/AVR8/../AVR8/../AVR8/Endpoint_AVR8.h **** 			 *
 289:../../tmk_core/protocol/lufa/LUFA-git/LUFA/Drivers/USB/Core/AVR8/../AVR8/../AVR8/Endpoint_AVR8.h **** 			 *  \note Endpoints must first be configured properly via \ref Endpoint_ConfigureEndpoint().
 290:../../tmk_core/protocol/lufa/LUFA-git/LUFA/Drivers/USB/Core/AVR8/../AVR8/../AVR8/Endpoint_AVR8.h **** 			 */
 291:../../tmk_core/protocol/lufa/LUFA-git/LUFA/Drivers/USB/Core/AVR8/../AVR8/../AVR8/Endpoint_AVR8.h **** 			static inline void Endpoint_EnableEndpoint(void) ATTR_ALWAYS_INLINE;
 292:../../tmk_core/protocol/lufa/LUFA-git/LUFA/Drivers/USB/Core/AVR8/../AVR8/../AVR8/Endpoint_AVR8.h **** 			static inline void Endpoint_EnableEndpoint(void)
 293:../../tmk_core/protocol/lufa/LUFA-git/LUFA/Drivers/USB/Core/AVR8/../AVR8/../AVR8/Endpoint_AVR8.h **** 			{
 294:../../tmk_core/protocol/lufa/LUFA-git/LUFA/Drivers/USB/Core/AVR8/../AVR8/../AVR8/Endpoint_AVR8.h **** 				UECONX |= (1 << EPEN);
 295:../../tmk_core/protocol/lufa/LUFA-git/LUFA/Drivers/USB/Core/AVR8/../AVR8/../AVR8/Endpoint_AVR8.h **** 			}
 296:../../tmk_core/protocol/lufa/LUFA-git/LUFA/Drivers/USB/Core/AVR8/../AVR8/../AVR8/Endpoint_AVR8.h **** 
 297:../../tmk_core/protocol/lufa/LUFA-git/LUFA/Drivers/USB/Core/AVR8/../AVR8/../AVR8/Endpoint_AVR8.h **** 			/** Disables the currently selected endpoint so that data cannot be sent and received through it
 298:../../tmk_core/protocol/lufa/LUFA-git/LUFA/Drivers/USB/Core/AVR8/../AVR8/../AVR8/Endpoint_AVR8.h **** 			 *  to and from a host.
 299:../../tmk_core/protocol/lufa/LUFA-git/LUFA/Drivers/USB/Core/AVR8/../AVR8/../AVR8/Endpoint_AVR8.h **** 			 */
 300:../../tmk_core/protocol/lufa/LUFA-git/LUFA/Drivers/USB/Core/AVR8/../AVR8/../AVR8/Endpoint_AVR8.h **** 			static inline void Endpoint_DisableEndpoint(void) ATTR_ALWAYS_INLINE;
 301:../../tmk_core/protocol/lufa/LUFA-git/LUFA/Drivers/USB/Core/AVR8/../AVR8/../AVR8/Endpoint_AVR8.h **** 			static inline void Endpoint_DisableEndpoint(void)
 302:../../tmk_core/protocol/lufa/LUFA-git/LUFA/Drivers/USB/Core/AVR8/../AVR8/../AVR8/Endpoint_AVR8.h **** 			{
 303:../../tmk_core/protocol/lufa/LUFA-git/LUFA/Drivers/USB/Core/AVR8/../AVR8/../AVR8/Endpoint_AVR8.h **** 				UECONX &= ~(1 << EPEN);
 304:../../tmk_core/protocol/lufa/LUFA-git/LUFA/Drivers/USB/Core/AVR8/../AVR8/../AVR8/Endpoint_AVR8.h **** 			}
 305:../../tmk_core/protocol/lufa/LUFA-git/LUFA/Drivers/USB/Core/AVR8/../AVR8/../AVR8/Endpoint_AVR8.h **** 
 306:../../tmk_core/protocol/lufa/LUFA-git/LUFA/Drivers/USB/Core/AVR8/../AVR8/../AVR8/Endpoint_AVR8.h **** 			/** Determines if the currently selected endpoint is enabled, but not necessarily configured.
 307:../../tmk_core/protocol/lufa/LUFA-git/LUFA/Drivers/USB/Core/AVR8/../AVR8/../AVR8/Endpoint_AVR8.h **** 			 *
 308:../../tmk_core/protocol/lufa/LUFA-git/LUFA/Drivers/USB/Core/AVR8/../AVR8/../AVR8/Endpoint_AVR8.h **** 			 * \return Boolean \c true if the currently selected endpoint is enabled, \c false otherwise.
 309:../../tmk_core/protocol/lufa/LUFA-git/LUFA/Drivers/USB/Core/AVR8/../AVR8/../AVR8/Endpoint_AVR8.h **** 			 */
 310:../../tmk_core/protocol/lufa/LUFA-git/LUFA/Drivers/USB/Core/AVR8/../AVR8/../AVR8/Endpoint_AVR8.h **** 			static inline bool Endpoint_IsEnabled(void) ATTR_WARN_UNUSED_RESULT ATTR_ALWAYS_INLINE;
 311:../../tmk_core/protocol/lufa/LUFA-git/LUFA/Drivers/USB/Core/AVR8/../AVR8/../AVR8/Endpoint_AVR8.h **** 			static inline bool Endpoint_IsEnabled(void)
 312:../../tmk_core/protocol/lufa/LUFA-git/LUFA/Drivers/USB/Core/AVR8/../AVR8/../AVR8/Endpoint_AVR8.h **** 			{
 313:../../tmk_core/protocol/lufa/LUFA-git/LUFA/Drivers/USB/Core/AVR8/../AVR8/../AVR8/Endpoint_AVR8.h **** 				return ((UECONX & (1 << EPEN)) ? true : false);
 314:../../tmk_core/protocol/lufa/LUFA-git/LUFA/Drivers/USB/Core/AVR8/../AVR8/../AVR8/Endpoint_AVR8.h **** 			}
 315:../../tmk_core/protocol/lufa/LUFA-git/LUFA/Drivers/USB/Core/AVR8/../AVR8/../AVR8/Endpoint_AVR8.h **** 
 316:../../tmk_core/protocol/lufa/LUFA-git/LUFA/Drivers/USB/Core/AVR8/../AVR8/../AVR8/Endpoint_AVR8.h **** 			/** Retrieves the number of busy banks in the currently selected endpoint, which have been queue
 317:../../tmk_core/protocol/lufa/LUFA-git/LUFA/Drivers/USB/Core/AVR8/../AVR8/../AVR8/Endpoint_AVR8.h **** 			 *  transmission via the \ref Endpoint_ClearIN() command, or are awaiting acknowledgment via the
 318:../../tmk_core/protocol/lufa/LUFA-git/LUFA/Drivers/USB/Core/AVR8/../AVR8/../AVR8/Endpoint_AVR8.h **** 			 *  \ref Endpoint_ClearOUT() command.
 319:../../tmk_core/protocol/lufa/LUFA-git/LUFA/Drivers/USB/Core/AVR8/../AVR8/../AVR8/Endpoint_AVR8.h **** 			 *
 320:../../tmk_core/protocol/lufa/LUFA-git/LUFA/Drivers/USB/Core/AVR8/../AVR8/../AVR8/Endpoint_AVR8.h **** 			 *  \ingroup Group_EndpointPacketManagement_AVR8
 321:../../tmk_core/protocol/lufa/LUFA-git/LUFA/Drivers/USB/Core/AVR8/../AVR8/../AVR8/Endpoint_AVR8.h **** 			 *
 322:../../tmk_core/protocol/lufa/LUFA-git/LUFA/Drivers/USB/Core/AVR8/../AVR8/../AVR8/Endpoint_AVR8.h **** 			 *  \return Total number of busy banks in the selected endpoint.
 323:../../tmk_core/protocol/lufa/LUFA-git/LUFA/Drivers/USB/Core/AVR8/../AVR8/../AVR8/Endpoint_AVR8.h **** 			 */
 324:../../tmk_core/protocol/lufa/LUFA-git/LUFA/Drivers/USB/Core/AVR8/../AVR8/../AVR8/Endpoint_AVR8.h **** 			static inline uint8_t Endpoint_GetBusyBanks(void) ATTR_ALWAYS_INLINE ATTR_WARN_UNUSED_RESULT;
 325:../../tmk_core/protocol/lufa/LUFA-git/LUFA/Drivers/USB/Core/AVR8/../AVR8/../AVR8/Endpoint_AVR8.h **** 			static inline uint8_t Endpoint_GetBusyBanks(void)
 326:../../tmk_core/protocol/lufa/LUFA-git/LUFA/Drivers/USB/Core/AVR8/../AVR8/../AVR8/Endpoint_AVR8.h **** 			{
 327:../../tmk_core/protocol/lufa/LUFA-git/LUFA/Drivers/USB/Core/AVR8/../AVR8/../AVR8/Endpoint_AVR8.h **** 				return (UESTA0X & (0x03 << NBUSYBK0));
 328:../../tmk_core/protocol/lufa/LUFA-git/LUFA/Drivers/USB/Core/AVR8/../AVR8/../AVR8/Endpoint_AVR8.h **** 			}
 329:../../tmk_core/protocol/lufa/LUFA-git/LUFA/Drivers/USB/Core/AVR8/../AVR8/../AVR8/Endpoint_AVR8.h **** 
 330:../../tmk_core/protocol/lufa/LUFA-git/LUFA/Drivers/USB/Core/AVR8/../AVR8/../AVR8/Endpoint_AVR8.h **** 			/** Aborts all pending IN transactions on the currently selected endpoint, once the bank
 331:../../tmk_core/protocol/lufa/LUFA-git/LUFA/Drivers/USB/Core/AVR8/../AVR8/../AVR8/Endpoint_AVR8.h **** 			 *  has been queued for transmission to the host via \ref Endpoint_ClearIN(). This function
 332:../../tmk_core/protocol/lufa/LUFA-git/LUFA/Drivers/USB/Core/AVR8/../AVR8/../AVR8/Endpoint_AVR8.h **** 			 *  will terminate all queued transactions, resetting the endpoint banks ready for a new
 333:../../tmk_core/protocol/lufa/LUFA-git/LUFA/Drivers/USB/Core/AVR8/../AVR8/../AVR8/Endpoint_AVR8.h **** 			 *  packet.
 334:../../tmk_core/protocol/lufa/LUFA-git/LUFA/Drivers/USB/Core/AVR8/../AVR8/../AVR8/Endpoint_AVR8.h **** 			 *
 335:../../tmk_core/protocol/lufa/LUFA-git/LUFA/Drivers/USB/Core/AVR8/../AVR8/../AVR8/Endpoint_AVR8.h **** 			 *  \ingroup Group_EndpointPacketManagement_AVR8
 336:../../tmk_core/protocol/lufa/LUFA-git/LUFA/Drivers/USB/Core/AVR8/../AVR8/../AVR8/Endpoint_AVR8.h **** 			 */
 337:../../tmk_core/protocol/lufa/LUFA-git/LUFA/Drivers/USB/Core/AVR8/../AVR8/../AVR8/Endpoint_AVR8.h **** 			static inline void Endpoint_AbortPendingIN(void)
 338:../../tmk_core/protocol/lufa/LUFA-git/LUFA/Drivers/USB/Core/AVR8/../AVR8/../AVR8/Endpoint_AVR8.h **** 			{
 339:../../tmk_core/protocol/lufa/LUFA-git/LUFA/Drivers/USB/Core/AVR8/../AVR8/../AVR8/Endpoint_AVR8.h **** 				while (Endpoint_GetBusyBanks() != 0)
 340:../../tmk_core/protocol/lufa/LUFA-git/LUFA/Drivers/USB/Core/AVR8/../AVR8/../AVR8/Endpoint_AVR8.h **** 				{
 341:../../tmk_core/protocol/lufa/LUFA-git/LUFA/Drivers/USB/Core/AVR8/../AVR8/../AVR8/Endpoint_AVR8.h **** 					UEINTX |= (1 << RXOUTI);
 342:../../tmk_core/protocol/lufa/LUFA-git/LUFA/Drivers/USB/Core/AVR8/../AVR8/../AVR8/Endpoint_AVR8.h **** 					while (UEINTX & (1 << RXOUTI));
 343:../../tmk_core/protocol/lufa/LUFA-git/LUFA/Drivers/USB/Core/AVR8/../AVR8/../AVR8/Endpoint_AVR8.h **** 				}
 344:../../tmk_core/protocol/lufa/LUFA-git/LUFA/Drivers/USB/Core/AVR8/../AVR8/../AVR8/Endpoint_AVR8.h **** 			}
 345:../../tmk_core/protocol/lufa/LUFA-git/LUFA/Drivers/USB/Core/AVR8/../AVR8/../AVR8/Endpoint_AVR8.h **** 
 346:../../tmk_core/protocol/lufa/LUFA-git/LUFA/Drivers/USB/Core/AVR8/../AVR8/../AVR8/Endpoint_AVR8.h **** 			/** Determines if the currently selected endpoint may be read from (if data is waiting in the en
 347:../../tmk_core/protocol/lufa/LUFA-git/LUFA/Drivers/USB/Core/AVR8/../AVR8/../AVR8/Endpoint_AVR8.h **** 			 *  bank and the endpoint is an OUT direction, or if the bank is not yet full if the endpoint is
 348:../../tmk_core/protocol/lufa/LUFA-git/LUFA/Drivers/USB/Core/AVR8/../AVR8/../AVR8/Endpoint_AVR8.h **** 			 *  direction). This function will return false if an error has occurred in the endpoint, if the
 349:../../tmk_core/protocol/lufa/LUFA-git/LUFA/Drivers/USB/Core/AVR8/../AVR8/../AVR8/Endpoint_AVR8.h **** 			 *  is an OUT direction and no packet (or an empty packet) has been received, or if the endpoint
 350:../../tmk_core/protocol/lufa/LUFA-git/LUFA/Drivers/USB/Core/AVR8/../AVR8/../AVR8/Endpoint_AVR8.h **** 			 *  direction and the endpoint bank is full.
 351:../../tmk_core/protocol/lufa/LUFA-git/LUFA/Drivers/USB/Core/AVR8/../AVR8/../AVR8/Endpoint_AVR8.h **** 			 *
 352:../../tmk_core/protocol/lufa/LUFA-git/LUFA/Drivers/USB/Core/AVR8/../AVR8/../AVR8/Endpoint_AVR8.h **** 			 *  \ingroup Group_EndpointPacketManagement_AVR8
 353:../../tmk_core/protocol/lufa/LUFA-git/LUFA/Drivers/USB/Core/AVR8/../AVR8/../AVR8/Endpoint_AVR8.h **** 			 *
 354:../../tmk_core/protocol/lufa/LUFA-git/LUFA/Drivers/USB/Core/AVR8/../AVR8/../AVR8/Endpoint_AVR8.h **** 			 *  \return Boolean \c true if the currently selected endpoint may be read from or written to, d
 355:../../tmk_core/protocol/lufa/LUFA-git/LUFA/Drivers/USB/Core/AVR8/../AVR8/../AVR8/Endpoint_AVR8.h **** 			 *          on its direction.
 356:../../tmk_core/protocol/lufa/LUFA-git/LUFA/Drivers/USB/Core/AVR8/../AVR8/../AVR8/Endpoint_AVR8.h **** 			 */
 357:../../tmk_core/protocol/lufa/LUFA-git/LUFA/Drivers/USB/Core/AVR8/../AVR8/../AVR8/Endpoint_AVR8.h **** 			static inline bool Endpoint_IsReadWriteAllowed(void) ATTR_WARN_UNUSED_RESULT ATTR_ALWAYS_INLINE;
 358:../../tmk_core/protocol/lufa/LUFA-git/LUFA/Drivers/USB/Core/AVR8/../AVR8/../AVR8/Endpoint_AVR8.h **** 			static inline bool Endpoint_IsReadWriteAllowed(void)
 359:../../tmk_core/protocol/lufa/LUFA-git/LUFA/Drivers/USB/Core/AVR8/../AVR8/../AVR8/Endpoint_AVR8.h **** 			{
 360:../../tmk_core/protocol/lufa/LUFA-git/LUFA/Drivers/USB/Core/AVR8/../AVR8/../AVR8/Endpoint_AVR8.h **** 				return ((UEINTX & (1 << RWAL)) ? true : false);
  78               		.loc 2 360 0
  79 002e 8091 E800 		lds r24,232
  80               	.LBE269:
  81               	.LBE268:
  55:../../tmk_core/protocol/lufa/LUFA-git/LUFA/Drivers/USB/Core/AVR8/EndpointStream_AVR8.c **** 	{
  56:../../tmk_core/protocol/lufa/LUFA-git/LUFA/Drivers/USB/Core/AVR8/EndpointStream_AVR8.c **** 		if (!(Endpoint_IsReadWriteAllowed()))
  82               		.loc 1 56 0
  83 0032 85FD      		sbrc r24,5
  84 0034 00C0      		rjmp .L5
  85               	.LBB270:
  86               	.LBB271:
 361:../../tmk_core/protocol/lufa/LUFA-git/LUFA/Drivers/USB/Core/AVR8/../AVR8/../AVR8/Endpoint_AVR8.h **** 			}
 362:../../tmk_core/protocol/lufa/LUFA-git/LUFA/Drivers/USB/Core/AVR8/../AVR8/../AVR8/Endpoint_AVR8.h **** 
 363:../../tmk_core/protocol/lufa/LUFA-git/LUFA/Drivers/USB/Core/AVR8/../AVR8/../AVR8/Endpoint_AVR8.h **** 			/** Determines if the currently selected endpoint is configured.
 364:../../tmk_core/protocol/lufa/LUFA-git/LUFA/Drivers/USB/Core/AVR8/../AVR8/../AVR8/Endpoint_AVR8.h **** 			 *
 365:../../tmk_core/protocol/lufa/LUFA-git/LUFA/Drivers/USB/Core/AVR8/../AVR8/../AVR8/Endpoint_AVR8.h **** 			 *  \return Boolean \c true if the currently selected endpoint has been configured, \c false oth
 366:../../tmk_core/protocol/lufa/LUFA-git/LUFA/Drivers/USB/Core/AVR8/../AVR8/../AVR8/Endpoint_AVR8.h **** 			 */
 367:../../tmk_core/protocol/lufa/LUFA-git/LUFA/Drivers/USB/Core/AVR8/../AVR8/../AVR8/Endpoint_AVR8.h **** 			static inline bool Endpoint_IsConfigured(void) ATTR_WARN_UNUSED_RESULT ATTR_ALWAYS_INLINE;
 368:../../tmk_core/protocol/lufa/LUFA-git/LUFA/Drivers/USB/Core/AVR8/../AVR8/../AVR8/Endpoint_AVR8.h **** 			static inline bool Endpoint_IsConfigured(void)
 369:../../tmk_core/protocol/lufa/LUFA-git/LUFA/Drivers/USB/Core/AVR8/../AVR8/../AVR8/Endpoint_AVR8.h **** 			{
 370:../../tmk_core/protocol/lufa/LUFA-git/LUFA/Drivers/USB/Core/AVR8/../AVR8/../AVR8/Endpoint_AVR8.h **** 				return ((UESTA0X & (1 << CFGOK)) ? true : false);
 371:../../tmk_core/protocol/lufa/LUFA-git/LUFA/Drivers/USB/Core/AVR8/../AVR8/../AVR8/Endpoint_AVR8.h **** 			}
 372:../../tmk_core/protocol/lufa/LUFA-git/LUFA/Drivers/USB/Core/AVR8/../AVR8/../AVR8/Endpoint_AVR8.h **** 
 373:../../tmk_core/protocol/lufa/LUFA-git/LUFA/Drivers/USB/Core/AVR8/../AVR8/../AVR8/Endpoint_AVR8.h **** 			/** Returns a mask indicating which INTERRUPT type endpoints have interrupted - i.e. their
 374:../../tmk_core/protocol/lufa/LUFA-git/LUFA/Drivers/USB/Core/AVR8/../AVR8/../AVR8/Endpoint_AVR8.h **** 			 *  interrupt duration has elapsed. Which endpoints have interrupted can be determined by
 375:../../tmk_core/protocol/lufa/LUFA-git/LUFA/Drivers/USB/Core/AVR8/../AVR8/../AVR8/Endpoint_AVR8.h **** 			 *  masking the return value against <tt>(1 << <i>{Endpoint Number}</i>)</tt>.
 376:../../tmk_core/protocol/lufa/LUFA-git/LUFA/Drivers/USB/Core/AVR8/../AVR8/../AVR8/Endpoint_AVR8.h **** 			 *
 377:../../tmk_core/protocol/lufa/LUFA-git/LUFA/Drivers/USB/Core/AVR8/../AVR8/../AVR8/Endpoint_AVR8.h **** 			 *  \return Mask whose bits indicate which endpoints have interrupted.
 378:../../tmk_core/protocol/lufa/LUFA-git/LUFA/Drivers/USB/Core/AVR8/../AVR8/../AVR8/Endpoint_AVR8.h **** 			 */
 379:../../tmk_core/protocol/lufa/LUFA-git/LUFA/Drivers/USB/Core/AVR8/../AVR8/../AVR8/Endpoint_AVR8.h **** 			static inline uint8_t Endpoint_GetEndpointInterrupts(void) ATTR_WARN_UNUSED_RESULT ATTR_ALWAYS_I
 380:../../tmk_core/protocol/lufa/LUFA-git/LUFA/Drivers/USB/Core/AVR8/../AVR8/../AVR8/Endpoint_AVR8.h **** 			static inline uint8_t Endpoint_GetEndpointInterrupts(void)
 381:../../tmk_core/protocol/lufa/LUFA-git/LUFA/Drivers/USB/Core/AVR8/../AVR8/../AVR8/Endpoint_AVR8.h **** 			{
 382:../../tmk_core/protocol/lufa/LUFA-git/LUFA/Drivers/USB/Core/AVR8/../AVR8/../AVR8/Endpoint_AVR8.h **** 				return UEINT;
 383:../../tmk_core/protocol/lufa/LUFA-git/LUFA/Drivers/USB/Core/AVR8/../AVR8/../AVR8/Endpoint_AVR8.h **** 			}
 384:../../tmk_core/protocol/lufa/LUFA-git/LUFA/Drivers/USB/Core/AVR8/../AVR8/../AVR8/Endpoint_AVR8.h **** 
 385:../../tmk_core/protocol/lufa/LUFA-git/LUFA/Drivers/USB/Core/AVR8/../AVR8/../AVR8/Endpoint_AVR8.h **** 			/** Determines if the specified endpoint number has interrupted (valid only for INTERRUPT type
 386:../../tmk_core/protocol/lufa/LUFA-git/LUFA/Drivers/USB/Core/AVR8/../AVR8/../AVR8/Endpoint_AVR8.h **** 			 *  endpoints).
 387:../../tmk_core/protocol/lufa/LUFA-git/LUFA/Drivers/USB/Core/AVR8/../AVR8/../AVR8/Endpoint_AVR8.h **** 			 *
 388:../../tmk_core/protocol/lufa/LUFA-git/LUFA/Drivers/USB/Core/AVR8/../AVR8/../AVR8/Endpoint_AVR8.h **** 			 *  \param[in] Address  Address of the endpoint whose interrupt flag should be tested.
 389:../../tmk_core/protocol/lufa/LUFA-git/LUFA/Drivers/USB/Core/AVR8/../AVR8/../AVR8/Endpoint_AVR8.h **** 			 *
 390:../../tmk_core/protocol/lufa/LUFA-git/LUFA/Drivers/USB/Core/AVR8/../AVR8/../AVR8/Endpoint_AVR8.h **** 			 *  \return Boolean \c true if the specified endpoint has interrupted, \c false otherwise.
 391:../../tmk_core/protocol/lufa/LUFA-git/LUFA/Drivers/USB/Core/AVR8/../AVR8/../AVR8/Endpoint_AVR8.h **** 			 */
 392:../../tmk_core/protocol/lufa/LUFA-git/LUFA/Drivers/USB/Core/AVR8/../AVR8/../AVR8/Endpoint_AVR8.h **** 			static inline bool Endpoint_HasEndpointInterrupted(const uint8_t Address) ATTR_WARN_UNUSED_RESUL
 393:../../tmk_core/protocol/lufa/LUFA-git/LUFA/Drivers/USB/Core/AVR8/../AVR8/../AVR8/Endpoint_AVR8.h **** 			static inline bool Endpoint_HasEndpointInterrupted(const uint8_t Address)
 394:../../tmk_core/protocol/lufa/LUFA-git/LUFA/Drivers/USB/Core/AVR8/../AVR8/../AVR8/Endpoint_AVR8.h **** 			{
 395:../../tmk_core/protocol/lufa/LUFA-git/LUFA/Drivers/USB/Core/AVR8/../AVR8/../AVR8/Endpoint_AVR8.h **** 				return ((Endpoint_GetEndpointInterrupts() & (1 << (Address & ENDPOINT_EPNUM_MASK))) ? true : fa
 396:../../tmk_core/protocol/lufa/LUFA-git/LUFA/Drivers/USB/Core/AVR8/../AVR8/../AVR8/Endpoint_AVR8.h **** 			}
 397:../../tmk_core/protocol/lufa/LUFA-git/LUFA/Drivers/USB/Core/AVR8/../AVR8/../AVR8/Endpoint_AVR8.h **** 
 398:../../tmk_core/protocol/lufa/LUFA-git/LUFA/Drivers/USB/Core/AVR8/../AVR8/../AVR8/Endpoint_AVR8.h **** 			/** Determines if the selected IN endpoint is ready for a new packet to be sent to the host.
 399:../../tmk_core/protocol/lufa/LUFA-git/LUFA/Drivers/USB/Core/AVR8/../AVR8/../AVR8/Endpoint_AVR8.h **** 			 *
 400:../../tmk_core/protocol/lufa/LUFA-git/LUFA/Drivers/USB/Core/AVR8/../AVR8/../AVR8/Endpoint_AVR8.h **** 			 *  \ingroup Group_EndpointPacketManagement_AVR8
 401:../../tmk_core/protocol/lufa/LUFA-git/LUFA/Drivers/USB/Core/AVR8/../AVR8/../AVR8/Endpoint_AVR8.h **** 			 *
 402:../../tmk_core/protocol/lufa/LUFA-git/LUFA/Drivers/USB/Core/AVR8/../AVR8/../AVR8/Endpoint_AVR8.h **** 			 *  \return Boolean \c true if the current endpoint is ready for an IN packet, \c false otherwis
 403:../../tmk_core/protocol/lufa/LUFA-git/LUFA/Drivers/USB/Core/AVR8/../AVR8/../AVR8/Endpoint_AVR8.h **** 			 */
 404:../../tmk_core/protocol/lufa/LUFA-git/LUFA/Drivers/USB/Core/AVR8/../AVR8/../AVR8/Endpoint_AVR8.h **** 			static inline bool Endpoint_IsINReady(void) ATTR_WARN_UNUSED_RESULT ATTR_ALWAYS_INLINE;
 405:../../tmk_core/protocol/lufa/LUFA-git/LUFA/Drivers/USB/Core/AVR8/../AVR8/../AVR8/Endpoint_AVR8.h **** 			static inline bool Endpoint_IsINReady(void)
 406:../../tmk_core/protocol/lufa/LUFA-git/LUFA/Drivers/USB/Core/AVR8/../AVR8/../AVR8/Endpoint_AVR8.h **** 			{
 407:../../tmk_core/protocol/lufa/LUFA-git/LUFA/Drivers/USB/Core/AVR8/../AVR8/../AVR8/Endpoint_AVR8.h **** 				return ((UEINTX & (1 << TXINI)) ? true : false);
 408:../../tmk_core/protocol/lufa/LUFA-git/LUFA/Drivers/USB/Core/AVR8/../AVR8/../AVR8/Endpoint_AVR8.h **** 			}
 409:../../tmk_core/protocol/lufa/LUFA-git/LUFA/Drivers/USB/Core/AVR8/../AVR8/../AVR8/Endpoint_AVR8.h **** 
 410:../../tmk_core/protocol/lufa/LUFA-git/LUFA/Drivers/USB/Core/AVR8/../AVR8/../AVR8/Endpoint_AVR8.h **** 			/** Determines if the selected OUT endpoint has received new packet from the host.
 411:../../tmk_core/protocol/lufa/LUFA-git/LUFA/Drivers/USB/Core/AVR8/../AVR8/../AVR8/Endpoint_AVR8.h **** 			 *
 412:../../tmk_core/protocol/lufa/LUFA-git/LUFA/Drivers/USB/Core/AVR8/../AVR8/../AVR8/Endpoint_AVR8.h **** 			 *  \ingroup Group_EndpointPacketManagement_AVR8
 413:../../tmk_core/protocol/lufa/LUFA-git/LUFA/Drivers/USB/Core/AVR8/../AVR8/../AVR8/Endpoint_AVR8.h **** 			 *
 414:../../tmk_core/protocol/lufa/LUFA-git/LUFA/Drivers/USB/Core/AVR8/../AVR8/../AVR8/Endpoint_AVR8.h **** 			 *  \return Boolean \c true if current endpoint is has received an OUT packet, \c false otherwis
 415:../../tmk_core/protocol/lufa/LUFA-git/LUFA/Drivers/USB/Core/AVR8/../AVR8/../AVR8/Endpoint_AVR8.h **** 			 */
 416:../../tmk_core/protocol/lufa/LUFA-git/LUFA/Drivers/USB/Core/AVR8/../AVR8/../AVR8/Endpoint_AVR8.h **** 			static inline bool Endpoint_IsOUTReceived(void) ATTR_WARN_UNUSED_RESULT ATTR_ALWAYS_INLINE;
 417:../../tmk_core/protocol/lufa/LUFA-git/LUFA/Drivers/USB/Core/AVR8/../AVR8/../AVR8/Endpoint_AVR8.h **** 			static inline bool Endpoint_IsOUTReceived(void)
 418:../../tmk_core/protocol/lufa/LUFA-git/LUFA/Drivers/USB/Core/AVR8/../AVR8/../AVR8/Endpoint_AVR8.h **** 			{
 419:../../tmk_core/protocol/lufa/LUFA-git/LUFA/Drivers/USB/Core/AVR8/../AVR8/../AVR8/Endpoint_AVR8.h **** 				return ((UEINTX & (1 << RXOUTI)) ? true : false);
 420:../../tmk_core/protocol/lufa/LUFA-git/LUFA/Drivers/USB/Core/AVR8/../AVR8/../AVR8/Endpoint_AVR8.h **** 			}
 421:../../tmk_core/protocol/lufa/LUFA-git/LUFA/Drivers/USB/Core/AVR8/../AVR8/../AVR8/Endpoint_AVR8.h **** 
 422:../../tmk_core/protocol/lufa/LUFA-git/LUFA/Drivers/USB/Core/AVR8/../AVR8/../AVR8/Endpoint_AVR8.h **** 			/** Determines if the current CONTROL type endpoint has received a SETUP packet.
 423:../../tmk_core/protocol/lufa/LUFA-git/LUFA/Drivers/USB/Core/AVR8/../AVR8/../AVR8/Endpoint_AVR8.h **** 			 *
 424:../../tmk_core/protocol/lufa/LUFA-git/LUFA/Drivers/USB/Core/AVR8/../AVR8/../AVR8/Endpoint_AVR8.h **** 			 *  \ingroup Group_EndpointPacketManagement_AVR8
 425:../../tmk_core/protocol/lufa/LUFA-git/LUFA/Drivers/USB/Core/AVR8/../AVR8/../AVR8/Endpoint_AVR8.h **** 			 *
 426:../../tmk_core/protocol/lufa/LUFA-git/LUFA/Drivers/USB/Core/AVR8/../AVR8/../AVR8/Endpoint_AVR8.h **** 			 *  \return Boolean \c true if the selected endpoint has received a SETUP packet, \c false other
 427:../../tmk_core/protocol/lufa/LUFA-git/LUFA/Drivers/USB/Core/AVR8/../AVR8/../AVR8/Endpoint_AVR8.h **** 			 */
 428:../../tmk_core/protocol/lufa/LUFA-git/LUFA/Drivers/USB/Core/AVR8/../AVR8/../AVR8/Endpoint_AVR8.h **** 			static inline bool Endpoint_IsSETUPReceived(void) ATTR_WARN_UNUSED_RESULT ATTR_ALWAYS_INLINE;
 429:../../tmk_core/protocol/lufa/LUFA-git/LUFA/Drivers/USB/Core/AVR8/../AVR8/../AVR8/Endpoint_AVR8.h **** 			static inline bool Endpoint_IsSETUPReceived(void)
 430:../../tmk_core/protocol/lufa/LUFA-git/LUFA/Drivers/USB/Core/AVR8/../AVR8/../AVR8/Endpoint_AVR8.h **** 			{
 431:../../tmk_core/protocol/lufa/LUFA-git/LUFA/Drivers/USB/Core/AVR8/../AVR8/../AVR8/Endpoint_AVR8.h **** 				return ((UEINTX & (1 << RXSTPI)) ? true : false);
 432:../../tmk_core/protocol/lufa/LUFA-git/LUFA/Drivers/USB/Core/AVR8/../AVR8/../AVR8/Endpoint_AVR8.h **** 			}
 433:../../tmk_core/protocol/lufa/LUFA-git/LUFA/Drivers/USB/Core/AVR8/../AVR8/../AVR8/Endpoint_AVR8.h **** 
 434:../../tmk_core/protocol/lufa/LUFA-git/LUFA/Drivers/USB/Core/AVR8/../AVR8/../AVR8/Endpoint_AVR8.h **** 			/** Clears a received SETUP packet on the currently selected CONTROL type endpoint, freeing up t
 435:../../tmk_core/protocol/lufa/LUFA-git/LUFA/Drivers/USB/Core/AVR8/../AVR8/../AVR8/Endpoint_AVR8.h **** 			 *  endpoint for the next packet.
 436:../../tmk_core/protocol/lufa/LUFA-git/LUFA/Drivers/USB/Core/AVR8/../AVR8/../AVR8/Endpoint_AVR8.h **** 			 *
 437:../../tmk_core/protocol/lufa/LUFA-git/LUFA/Drivers/USB/Core/AVR8/../AVR8/../AVR8/Endpoint_AVR8.h **** 			 *  \ingroup Group_EndpointPacketManagement_AVR8
 438:../../tmk_core/protocol/lufa/LUFA-git/LUFA/Drivers/USB/Core/AVR8/../AVR8/../AVR8/Endpoint_AVR8.h **** 			 *
 439:../../tmk_core/protocol/lufa/LUFA-git/LUFA/Drivers/USB/Core/AVR8/../AVR8/../AVR8/Endpoint_AVR8.h **** 			 *  \note This is not applicable for non CONTROL type endpoints.
 440:../../tmk_core/protocol/lufa/LUFA-git/LUFA/Drivers/USB/Core/AVR8/../AVR8/../AVR8/Endpoint_AVR8.h **** 			 */
 441:../../tmk_core/protocol/lufa/LUFA-git/LUFA/Drivers/USB/Core/AVR8/../AVR8/../AVR8/Endpoint_AVR8.h **** 			static inline void Endpoint_ClearSETUP(void) ATTR_ALWAYS_INLINE;
 442:../../tmk_core/protocol/lufa/LUFA-git/LUFA/Drivers/USB/Core/AVR8/../AVR8/../AVR8/Endpoint_AVR8.h **** 			static inline void Endpoint_ClearSETUP(void)
 443:../../tmk_core/protocol/lufa/LUFA-git/LUFA/Drivers/USB/Core/AVR8/../AVR8/../AVR8/Endpoint_AVR8.h **** 			{
 444:../../tmk_core/protocol/lufa/LUFA-git/LUFA/Drivers/USB/Core/AVR8/../AVR8/../AVR8/Endpoint_AVR8.h **** 				UEINTX &= ~(1 << RXSTPI);
 445:../../tmk_core/protocol/lufa/LUFA-git/LUFA/Drivers/USB/Core/AVR8/../AVR8/../AVR8/Endpoint_AVR8.h **** 			}
 446:../../tmk_core/protocol/lufa/LUFA-git/LUFA/Drivers/USB/Core/AVR8/../AVR8/../AVR8/Endpoint_AVR8.h **** 
 447:../../tmk_core/protocol/lufa/LUFA-git/LUFA/Drivers/USB/Core/AVR8/../AVR8/../AVR8/Endpoint_AVR8.h **** 			/** Sends an IN packet to the host on the currently selected endpoint, freeing up the endpoint f
 448:../../tmk_core/protocol/lufa/LUFA-git/LUFA/Drivers/USB/Core/AVR8/../AVR8/../AVR8/Endpoint_AVR8.h **** 			 *  next packet and switching to the alternative endpoint bank if double banked.
 449:../../tmk_core/protocol/lufa/LUFA-git/LUFA/Drivers/USB/Core/AVR8/../AVR8/../AVR8/Endpoint_AVR8.h **** 			 *
 450:../../tmk_core/protocol/lufa/LUFA-git/LUFA/Drivers/USB/Core/AVR8/../AVR8/../AVR8/Endpoint_AVR8.h **** 			 *  \ingroup Group_EndpointPacketManagement_AVR8
 451:../../tmk_core/protocol/lufa/LUFA-git/LUFA/Drivers/USB/Core/AVR8/../AVR8/../AVR8/Endpoint_AVR8.h **** 			 */
 452:../../tmk_core/protocol/lufa/LUFA-git/LUFA/Drivers/USB/Core/AVR8/../AVR8/../AVR8/Endpoint_AVR8.h **** 			static inline void Endpoint_ClearIN(void) ATTR_ALWAYS_INLINE;
 453:../../tmk_core/protocol/lufa/LUFA-git/LUFA/Drivers/USB/Core/AVR8/../AVR8/../AVR8/Endpoint_AVR8.h **** 			static inline void Endpoint_ClearIN(void)
 454:../../tmk_core/protocol/lufa/LUFA-git/LUFA/Drivers/USB/Core/AVR8/../AVR8/../AVR8/Endpoint_AVR8.h **** 			{
 455:../../tmk_core/protocol/lufa/LUFA-git/LUFA/Drivers/USB/Core/AVR8/../AVR8/../AVR8/Endpoint_AVR8.h **** 				#if !defined(CONTROL_ONLY_DEVICE)
 456:../../tmk_core/protocol/lufa/LUFA-git/LUFA/Drivers/USB/Core/AVR8/../AVR8/../AVR8/Endpoint_AVR8.h **** 					UEINTX &= ~((1 << TXINI) | (1 << FIFOCON));
 457:../../tmk_core/protocol/lufa/LUFA-git/LUFA/Drivers/USB/Core/AVR8/../AVR8/../AVR8/Endpoint_AVR8.h **** 				#else
 458:../../tmk_core/protocol/lufa/LUFA-git/LUFA/Drivers/USB/Core/AVR8/../AVR8/../AVR8/Endpoint_AVR8.h **** 					UEINTX &= ~(1 << TXINI);
 459:../../tmk_core/protocol/lufa/LUFA-git/LUFA/Drivers/USB/Core/AVR8/../AVR8/../AVR8/Endpoint_AVR8.h **** 				#endif
 460:../../tmk_core/protocol/lufa/LUFA-git/LUFA/Drivers/USB/Core/AVR8/../AVR8/../AVR8/Endpoint_AVR8.h **** 			}
 461:../../tmk_core/protocol/lufa/LUFA-git/LUFA/Drivers/USB/Core/AVR8/../AVR8/../AVR8/Endpoint_AVR8.h **** 
 462:../../tmk_core/protocol/lufa/LUFA-git/LUFA/Drivers/USB/Core/AVR8/../AVR8/../AVR8/Endpoint_AVR8.h **** 			/** Acknowledges an OUT packet to the host on the currently selected endpoint, freeing up the en
 463:../../tmk_core/protocol/lufa/LUFA-git/LUFA/Drivers/USB/Core/AVR8/../AVR8/../AVR8/Endpoint_AVR8.h **** 			 *  for the next packet and switching to the alternative endpoint bank if double banked.
 464:../../tmk_core/protocol/lufa/LUFA-git/LUFA/Drivers/USB/Core/AVR8/../AVR8/../AVR8/Endpoint_AVR8.h **** 			 *
 465:../../tmk_core/protocol/lufa/LUFA-git/LUFA/Drivers/USB/Core/AVR8/../AVR8/../AVR8/Endpoint_AVR8.h **** 			 *  \ingroup Group_EndpointPacketManagement_AVR8
 466:../../tmk_core/protocol/lufa/LUFA-git/LUFA/Drivers/USB/Core/AVR8/../AVR8/../AVR8/Endpoint_AVR8.h **** 			 */
 467:../../tmk_core/protocol/lufa/LUFA-git/LUFA/Drivers/USB/Core/AVR8/../AVR8/../AVR8/Endpoint_AVR8.h **** 			static inline void Endpoint_ClearOUT(void) ATTR_ALWAYS_INLINE;
 468:../../tmk_core/protocol/lufa/LUFA-git/LUFA/Drivers/USB/Core/AVR8/../AVR8/../AVR8/Endpoint_AVR8.h **** 			static inline void Endpoint_ClearOUT(void)
 469:../../tmk_core/protocol/lufa/LUFA-git/LUFA/Drivers/USB/Core/AVR8/../AVR8/../AVR8/Endpoint_AVR8.h **** 			{
 470:../../tmk_core/protocol/lufa/LUFA-git/LUFA/Drivers/USB/Core/AVR8/../AVR8/../AVR8/Endpoint_AVR8.h **** 				#if !defined(CONTROL_ONLY_DEVICE)
 471:../../tmk_core/protocol/lufa/LUFA-git/LUFA/Drivers/USB/Core/AVR8/../AVR8/../AVR8/Endpoint_AVR8.h **** 					UEINTX &= ~((1 << RXOUTI) | (1 << FIFOCON));
  87               		.loc 2 471 0
  88 0036 8091 E800 		lds r24,232
  89 003a 8B77      		andi r24,lo8(123)
  90 003c 8093 E800 		sts 232,r24
  91               	.LBE271:
  92               	.LBE270:
  57:../../tmk_core/protocol/lufa/LUFA-git/LUFA/Drivers/USB/Core/AVR8/EndpointStream_AVR8.c **** 		{
  58:../../tmk_core/protocol/lufa/LUFA-git/LUFA/Drivers/USB/Core/AVR8/EndpointStream_AVR8.c **** 			Endpoint_ClearOUT();
  59:../../tmk_core/protocol/lufa/LUFA-git/LUFA/Drivers/USB/Core/AVR8/EndpointStream_AVR8.c **** 
  60:../../tmk_core/protocol/lufa/LUFA-git/LUFA/Drivers/USB/Core/AVR8/EndpointStream_AVR8.c **** 			if (BytesProcessed != NULL)
  93               		.loc 1 60 0
  94 0040 2097      		sbiw r28,0
  95 0042 01F0      		breq .L6
  61:../../tmk_core/protocol/lufa/LUFA-git/LUFA/Drivers/USB/Core/AVR8/EndpointStream_AVR8.c **** 			{
  62:../../tmk_core/protocol/lufa/LUFA-git/LUFA/Drivers/USB/Core/AVR8/EndpointStream_AVR8.c **** 				*BytesProcessed += BytesInTransfer;
  96               		.loc 1 62 0
  97 0044 8881      		ld r24,Y
  98 0046 9981      		ldd r25,Y+1
  99 0048 8E0D      		add r24,r14
 100 004a 9F1D      		adc r25,r15
 101 004c 9983      		std Y+1,r25
 102 004e 8883      		st Y,r24
  63:../../tmk_core/protocol/lufa/LUFA-git/LUFA/Drivers/USB/Core/AVR8/EndpointStream_AVR8.c **** 				return ENDPOINT_RWSTREAM_IncompleteTransfer;
 103               		.loc 1 63 0
 104 0050 85E0      		ldi r24,lo8(5)
 105 0052 00C0      		rjmp .L2
 106               	.L6:
  64:../../tmk_core/protocol/lufa/LUFA-git/LUFA/Drivers/USB/Core/AVR8/EndpointStream_AVR8.c **** 			}
  65:../../tmk_core/protocol/lufa/LUFA-git/LUFA/Drivers/USB/Core/AVR8/EndpointStream_AVR8.c **** 
  66:../../tmk_core/protocol/lufa/LUFA-git/LUFA/Drivers/USB/Core/AVR8/EndpointStream_AVR8.c **** 			if ((ErrorCode = Endpoint_WaitUntilReady()))
 107               		.loc 1 66 0
 108 0054 0E94 0000 		call Endpoint_WaitUntilReady
 109               	.LVL6:
 110 0058 8823      		tst r24
 111 005a 01F0      		breq .L4
 112 005c 00C0      		rjmp .L2
 113               	.LVL7:
 114               	.L5:
 115               	.LBB272:
 116               	.LBB273:
 472:../../tmk_core/protocol/lufa/LUFA-git/LUFA/Drivers/USB/Core/AVR8/../AVR8/../AVR8/Endpoint_AVR8.h **** 				#else
 473:../../tmk_core/protocol/lufa/LUFA-git/LUFA/Drivers/USB/Core/AVR8/../AVR8/../AVR8/Endpoint_AVR8.h **** 					UEINTX &= ~(1 << RXOUTI);
 474:../../tmk_core/protocol/lufa/LUFA-git/LUFA/Drivers/USB/Core/AVR8/../AVR8/../AVR8/Endpoint_AVR8.h **** 				#endif
 475:../../tmk_core/protocol/lufa/LUFA-git/LUFA/Drivers/USB/Core/AVR8/../AVR8/../AVR8/Endpoint_AVR8.h **** 			}
 476:../../tmk_core/protocol/lufa/LUFA-git/LUFA/Drivers/USB/Core/AVR8/../AVR8/../AVR8/Endpoint_AVR8.h **** 
 477:../../tmk_core/protocol/lufa/LUFA-git/LUFA/Drivers/USB/Core/AVR8/../AVR8/../AVR8/Endpoint_AVR8.h **** 			/** Stalls the current endpoint, indicating to the host that a logical problem occurred with the
 478:../../tmk_core/protocol/lufa/LUFA-git/LUFA/Drivers/USB/Core/AVR8/../AVR8/../AVR8/Endpoint_AVR8.h **** 			 *  indicated endpoint and that the current transfer sequence should be aborted. This provides a
 479:../../tmk_core/protocol/lufa/LUFA-git/LUFA/Drivers/USB/Core/AVR8/../AVR8/../AVR8/Endpoint_AVR8.h **** 			 *  way for devices to indicate invalid commands to the host so that the current transfer can be
 480:../../tmk_core/protocol/lufa/LUFA-git/LUFA/Drivers/USB/Core/AVR8/../AVR8/../AVR8/Endpoint_AVR8.h **** 			 *  aborted and the host can begin its own recovery sequence.
 481:../../tmk_core/protocol/lufa/LUFA-git/LUFA/Drivers/USB/Core/AVR8/../AVR8/../AVR8/Endpoint_AVR8.h **** 			 *
 482:../../tmk_core/protocol/lufa/LUFA-git/LUFA/Drivers/USB/Core/AVR8/../AVR8/../AVR8/Endpoint_AVR8.h **** 			 *  The currently selected endpoint remains stalled until either the \ref Endpoint_ClearStall() 
 483:../../tmk_core/protocol/lufa/LUFA-git/LUFA/Drivers/USB/Core/AVR8/../AVR8/../AVR8/Endpoint_AVR8.h **** 			 *  is called, or the host issues a CLEAR FEATURE request to the device for the currently select
 484:../../tmk_core/protocol/lufa/LUFA-git/LUFA/Drivers/USB/Core/AVR8/../AVR8/../AVR8/Endpoint_AVR8.h **** 			 *  endpoint.
 485:../../tmk_core/protocol/lufa/LUFA-git/LUFA/Drivers/USB/Core/AVR8/../AVR8/../AVR8/Endpoint_AVR8.h **** 			 *
 486:../../tmk_core/protocol/lufa/LUFA-git/LUFA/Drivers/USB/Core/AVR8/../AVR8/../AVR8/Endpoint_AVR8.h **** 			 *  \ingroup Group_EndpointPacketManagement_AVR8
 487:../../tmk_core/protocol/lufa/LUFA-git/LUFA/Drivers/USB/Core/AVR8/../AVR8/../AVR8/Endpoint_AVR8.h **** 			 */
 488:../../tmk_core/protocol/lufa/LUFA-git/LUFA/Drivers/USB/Core/AVR8/../AVR8/../AVR8/Endpoint_AVR8.h **** 			static inline void Endpoint_StallTransaction(void) ATTR_ALWAYS_INLINE;
 489:../../tmk_core/protocol/lufa/LUFA-git/LUFA/Drivers/USB/Core/AVR8/../AVR8/../AVR8/Endpoint_AVR8.h **** 			static inline void Endpoint_StallTransaction(void)
 490:../../tmk_core/protocol/lufa/LUFA-git/LUFA/Drivers/USB/Core/AVR8/../AVR8/../AVR8/Endpoint_AVR8.h **** 			{
 491:../../tmk_core/protocol/lufa/LUFA-git/LUFA/Drivers/USB/Core/AVR8/../AVR8/../AVR8/Endpoint_AVR8.h **** 				UECONX |= (1 << STALLRQ);
 492:../../tmk_core/protocol/lufa/LUFA-git/LUFA/Drivers/USB/Core/AVR8/../AVR8/../AVR8/Endpoint_AVR8.h **** 			}
 493:../../tmk_core/protocol/lufa/LUFA-git/LUFA/Drivers/USB/Core/AVR8/../AVR8/../AVR8/Endpoint_AVR8.h **** 
 494:../../tmk_core/protocol/lufa/LUFA-git/LUFA/Drivers/USB/Core/AVR8/../AVR8/../AVR8/Endpoint_AVR8.h **** 			/** Clears the STALL condition on the currently selected endpoint.
 495:../../tmk_core/protocol/lufa/LUFA-git/LUFA/Drivers/USB/Core/AVR8/../AVR8/../AVR8/Endpoint_AVR8.h **** 			 *
 496:../../tmk_core/protocol/lufa/LUFA-git/LUFA/Drivers/USB/Core/AVR8/../AVR8/../AVR8/Endpoint_AVR8.h **** 			 *  \ingroup Group_EndpointPacketManagement_AVR8
 497:../../tmk_core/protocol/lufa/LUFA-git/LUFA/Drivers/USB/Core/AVR8/../AVR8/../AVR8/Endpoint_AVR8.h **** 			 */
 498:../../tmk_core/protocol/lufa/LUFA-git/LUFA/Drivers/USB/Core/AVR8/../AVR8/../AVR8/Endpoint_AVR8.h **** 			static inline void Endpoint_ClearStall(void) ATTR_ALWAYS_INLINE;
 499:../../tmk_core/protocol/lufa/LUFA-git/LUFA/Drivers/USB/Core/AVR8/../AVR8/../AVR8/Endpoint_AVR8.h **** 			static inline void Endpoint_ClearStall(void)
 500:../../tmk_core/protocol/lufa/LUFA-git/LUFA/Drivers/USB/Core/AVR8/../AVR8/../AVR8/Endpoint_AVR8.h **** 			{
 501:../../tmk_core/protocol/lufa/LUFA-git/LUFA/Drivers/USB/Core/AVR8/../AVR8/../AVR8/Endpoint_AVR8.h **** 				UECONX |= (1 << STALLRQC);
 502:../../tmk_core/protocol/lufa/LUFA-git/LUFA/Drivers/USB/Core/AVR8/../AVR8/../AVR8/Endpoint_AVR8.h **** 			}
 503:../../tmk_core/protocol/lufa/LUFA-git/LUFA/Drivers/USB/Core/AVR8/../AVR8/../AVR8/Endpoint_AVR8.h **** 
 504:../../tmk_core/protocol/lufa/LUFA-git/LUFA/Drivers/USB/Core/AVR8/../AVR8/../AVR8/Endpoint_AVR8.h **** 			/** Determines if the currently selected endpoint is stalled, \c false otherwise.
 505:../../tmk_core/protocol/lufa/LUFA-git/LUFA/Drivers/USB/Core/AVR8/../AVR8/../AVR8/Endpoint_AVR8.h **** 			 *
 506:../../tmk_core/protocol/lufa/LUFA-git/LUFA/Drivers/USB/Core/AVR8/../AVR8/../AVR8/Endpoint_AVR8.h **** 			 *  \ingroup Group_EndpointPacketManagement_AVR8
 507:../../tmk_core/protocol/lufa/LUFA-git/LUFA/Drivers/USB/Core/AVR8/../AVR8/../AVR8/Endpoint_AVR8.h **** 			 *
 508:../../tmk_core/protocol/lufa/LUFA-git/LUFA/Drivers/USB/Core/AVR8/../AVR8/../AVR8/Endpoint_AVR8.h **** 			 *  \return Boolean \c true if the currently selected endpoint is stalled, \c false otherwise.
 509:../../tmk_core/protocol/lufa/LUFA-git/LUFA/Drivers/USB/Core/AVR8/../AVR8/../AVR8/Endpoint_AVR8.h **** 			 */
 510:../../tmk_core/protocol/lufa/LUFA-git/LUFA/Drivers/USB/Core/AVR8/../AVR8/../AVR8/Endpoint_AVR8.h **** 			static inline bool Endpoint_IsStalled(void) ATTR_WARN_UNUSED_RESULT ATTR_ALWAYS_INLINE;
 511:../../tmk_core/protocol/lufa/LUFA-git/LUFA/Drivers/USB/Core/AVR8/../AVR8/../AVR8/Endpoint_AVR8.h **** 			static inline bool Endpoint_IsStalled(void)
 512:../../tmk_core/protocol/lufa/LUFA-git/LUFA/Drivers/USB/Core/AVR8/../AVR8/../AVR8/Endpoint_AVR8.h **** 			{
 513:../../tmk_core/protocol/lufa/LUFA-git/LUFA/Drivers/USB/Core/AVR8/../AVR8/../AVR8/Endpoint_AVR8.h **** 				return ((UECONX & (1 << STALLRQ)) ? true : false);
 514:../../tmk_core/protocol/lufa/LUFA-git/LUFA/Drivers/USB/Core/AVR8/../AVR8/../AVR8/Endpoint_AVR8.h **** 			}
 515:../../tmk_core/protocol/lufa/LUFA-git/LUFA/Drivers/USB/Core/AVR8/../AVR8/../AVR8/Endpoint_AVR8.h **** 
 516:../../tmk_core/protocol/lufa/LUFA-git/LUFA/Drivers/USB/Core/AVR8/../AVR8/../AVR8/Endpoint_AVR8.h **** 			/** Resets the data toggle of the currently selected endpoint. */
 517:../../tmk_core/protocol/lufa/LUFA-git/LUFA/Drivers/USB/Core/AVR8/../AVR8/../AVR8/Endpoint_AVR8.h **** 			static inline void Endpoint_ResetDataToggle(void) ATTR_ALWAYS_INLINE;
 518:../../tmk_core/protocol/lufa/LUFA-git/LUFA/Drivers/USB/Core/AVR8/../AVR8/../AVR8/Endpoint_AVR8.h **** 			static inline void Endpoint_ResetDataToggle(void)
 519:../../tmk_core/protocol/lufa/LUFA-git/LUFA/Drivers/USB/Core/AVR8/../AVR8/../AVR8/Endpoint_AVR8.h **** 			{
 520:../../tmk_core/protocol/lufa/LUFA-git/LUFA/Drivers/USB/Core/AVR8/../AVR8/../AVR8/Endpoint_AVR8.h **** 				UECONX |= (1 << RSTDT);
 521:../../tmk_core/protocol/lufa/LUFA-git/LUFA/Drivers/USB/Core/AVR8/../AVR8/../AVR8/Endpoint_AVR8.h **** 			}
 522:../../tmk_core/protocol/lufa/LUFA-git/LUFA/Drivers/USB/Core/AVR8/../AVR8/../AVR8/Endpoint_AVR8.h **** 
 523:../../tmk_core/protocol/lufa/LUFA-git/LUFA/Drivers/USB/Core/AVR8/../AVR8/../AVR8/Endpoint_AVR8.h **** 			/** Sets the direction of the currently selected endpoint.
 524:../../tmk_core/protocol/lufa/LUFA-git/LUFA/Drivers/USB/Core/AVR8/../AVR8/../AVR8/Endpoint_AVR8.h **** 			 *
 525:../../tmk_core/protocol/lufa/LUFA-git/LUFA/Drivers/USB/Core/AVR8/../AVR8/../AVR8/Endpoint_AVR8.h **** 			 *  \param[in] DirectionMask  New endpoint direction, as a \c ENDPOINT_DIR_* mask.
 526:../../tmk_core/protocol/lufa/LUFA-git/LUFA/Drivers/USB/Core/AVR8/../AVR8/../AVR8/Endpoint_AVR8.h **** 			 */
 527:../../tmk_core/protocol/lufa/LUFA-git/LUFA/Drivers/USB/Core/AVR8/../AVR8/../AVR8/Endpoint_AVR8.h **** 			static inline void Endpoint_SetEndpointDirection(const uint8_t DirectionMask) ATTR_ALWAYS_INLINE
 528:../../tmk_core/protocol/lufa/LUFA-git/LUFA/Drivers/USB/Core/AVR8/../AVR8/../AVR8/Endpoint_AVR8.h **** 			static inline void Endpoint_SetEndpointDirection(const uint8_t DirectionMask)
 529:../../tmk_core/protocol/lufa/LUFA-git/LUFA/Drivers/USB/Core/AVR8/../AVR8/../AVR8/Endpoint_AVR8.h **** 			{
 530:../../tmk_core/protocol/lufa/LUFA-git/LUFA/Drivers/USB/Core/AVR8/../AVR8/../AVR8/Endpoint_AVR8.h **** 				UECFG0X = ((UECFG0X & ~(1 << EPDIR)) | (DirectionMask ? (1 << EPDIR) : 0));
 531:../../tmk_core/protocol/lufa/LUFA-git/LUFA/Drivers/USB/Core/AVR8/../AVR8/../AVR8/Endpoint_AVR8.h **** 			}
 532:../../tmk_core/protocol/lufa/LUFA-git/LUFA/Drivers/USB/Core/AVR8/../AVR8/../AVR8/Endpoint_AVR8.h **** 
 533:../../tmk_core/protocol/lufa/LUFA-git/LUFA/Drivers/USB/Core/AVR8/../AVR8/../AVR8/Endpoint_AVR8.h **** 			/** Reads one byte from the currently selected endpoint's bank, for OUT direction endpoints.
 534:../../tmk_core/protocol/lufa/LUFA-git/LUFA/Drivers/USB/Core/AVR8/../AVR8/../AVR8/Endpoint_AVR8.h **** 			 *
 535:../../tmk_core/protocol/lufa/LUFA-git/LUFA/Drivers/USB/Core/AVR8/../AVR8/../AVR8/Endpoint_AVR8.h **** 			 *  \ingroup Group_EndpointPrimitiveRW_AVR8
 536:../../tmk_core/protocol/lufa/LUFA-git/LUFA/Drivers/USB/Core/AVR8/../AVR8/../AVR8/Endpoint_AVR8.h **** 			 *
 537:../../tmk_core/protocol/lufa/LUFA-git/LUFA/Drivers/USB/Core/AVR8/../AVR8/../AVR8/Endpoint_AVR8.h **** 			 *  \return Next byte in the currently selected endpoint's FIFO buffer.
 538:../../tmk_core/protocol/lufa/LUFA-git/LUFA/Drivers/USB/Core/AVR8/../AVR8/../AVR8/Endpoint_AVR8.h **** 			 */
 539:../../tmk_core/protocol/lufa/LUFA-git/LUFA/Drivers/USB/Core/AVR8/../AVR8/../AVR8/Endpoint_AVR8.h **** 			static inline uint8_t Endpoint_Read_8(void) ATTR_WARN_UNUSED_RESULT ATTR_ALWAYS_INLINE;
 540:../../tmk_core/protocol/lufa/LUFA-git/LUFA/Drivers/USB/Core/AVR8/../AVR8/../AVR8/Endpoint_AVR8.h **** 			static inline uint8_t Endpoint_Read_8(void)
 541:../../tmk_core/protocol/lufa/LUFA-git/LUFA/Drivers/USB/Core/AVR8/../AVR8/../AVR8/Endpoint_AVR8.h **** 			{
 542:../../tmk_core/protocol/lufa/LUFA-git/LUFA/Drivers/USB/Core/AVR8/../AVR8/../AVR8/Endpoint_AVR8.h **** 				return UEDATX;
 543:../../tmk_core/protocol/lufa/LUFA-git/LUFA/Drivers/USB/Core/AVR8/../AVR8/../AVR8/Endpoint_AVR8.h **** 			}
 544:../../tmk_core/protocol/lufa/LUFA-git/LUFA/Drivers/USB/Core/AVR8/../AVR8/../AVR8/Endpoint_AVR8.h **** 
 545:../../tmk_core/protocol/lufa/LUFA-git/LUFA/Drivers/USB/Core/AVR8/../AVR8/../AVR8/Endpoint_AVR8.h **** 			/** Writes one byte to the currently selected endpoint's bank, for IN direction endpoints.
 546:../../tmk_core/protocol/lufa/LUFA-git/LUFA/Drivers/USB/Core/AVR8/../AVR8/../AVR8/Endpoint_AVR8.h **** 			 *
 547:../../tmk_core/protocol/lufa/LUFA-git/LUFA/Drivers/USB/Core/AVR8/../AVR8/../AVR8/Endpoint_AVR8.h **** 			 *  \ingroup Group_EndpointPrimitiveRW_AVR8
 548:../../tmk_core/protocol/lufa/LUFA-git/LUFA/Drivers/USB/Core/AVR8/../AVR8/../AVR8/Endpoint_AVR8.h **** 			 *
 549:../../tmk_core/protocol/lufa/LUFA-git/LUFA/Drivers/USB/Core/AVR8/../AVR8/../AVR8/Endpoint_AVR8.h **** 			 *  \param[in] Data  Data to write into the the currently selected endpoint's FIFO buffer.
 550:../../tmk_core/protocol/lufa/LUFA-git/LUFA/Drivers/USB/Core/AVR8/../AVR8/../AVR8/Endpoint_AVR8.h **** 			 */
 551:../../tmk_core/protocol/lufa/LUFA-git/LUFA/Drivers/USB/Core/AVR8/../AVR8/../AVR8/Endpoint_AVR8.h **** 			static inline void Endpoint_Write_8(const uint8_t Data) ATTR_ALWAYS_INLINE;
 552:../../tmk_core/protocol/lufa/LUFA-git/LUFA/Drivers/USB/Core/AVR8/../AVR8/../AVR8/Endpoint_AVR8.h **** 			static inline void Endpoint_Write_8(const uint8_t Data)
 553:../../tmk_core/protocol/lufa/LUFA-git/LUFA/Drivers/USB/Core/AVR8/../AVR8/../AVR8/Endpoint_AVR8.h **** 			{
 554:../../tmk_core/protocol/lufa/LUFA-git/LUFA/Drivers/USB/Core/AVR8/../AVR8/../AVR8/Endpoint_AVR8.h **** 				UEDATX = Data;
 555:../../tmk_core/protocol/lufa/LUFA-git/LUFA/Drivers/USB/Core/AVR8/../AVR8/../AVR8/Endpoint_AVR8.h **** 			}
 556:../../tmk_core/protocol/lufa/LUFA-git/LUFA/Drivers/USB/Core/AVR8/../AVR8/../AVR8/Endpoint_AVR8.h **** 
 557:../../tmk_core/protocol/lufa/LUFA-git/LUFA/Drivers/USB/Core/AVR8/../AVR8/../AVR8/Endpoint_AVR8.h **** 			/** Discards one byte from the currently selected endpoint's bank, for OUT direction endpoints.
 558:../../tmk_core/protocol/lufa/LUFA-git/LUFA/Drivers/USB/Core/AVR8/../AVR8/../AVR8/Endpoint_AVR8.h **** 			 *
 559:../../tmk_core/protocol/lufa/LUFA-git/LUFA/Drivers/USB/Core/AVR8/../AVR8/../AVR8/Endpoint_AVR8.h **** 			 *  \ingroup Group_EndpointPrimitiveRW_AVR8
 560:../../tmk_core/protocol/lufa/LUFA-git/LUFA/Drivers/USB/Core/AVR8/../AVR8/../AVR8/Endpoint_AVR8.h **** 			 */
 561:../../tmk_core/protocol/lufa/LUFA-git/LUFA/Drivers/USB/Core/AVR8/../AVR8/../AVR8/Endpoint_AVR8.h **** 			static inline void Endpoint_Discard_8(void) ATTR_ALWAYS_INLINE;
 562:../../tmk_core/protocol/lufa/LUFA-git/LUFA/Drivers/USB/Core/AVR8/../AVR8/../AVR8/Endpoint_AVR8.h **** 			static inline void Endpoint_Discard_8(void)
 563:../../tmk_core/protocol/lufa/LUFA-git/LUFA/Drivers/USB/Core/AVR8/../AVR8/../AVR8/Endpoint_AVR8.h **** 			{
 564:../../tmk_core/protocol/lufa/LUFA-git/LUFA/Drivers/USB/Core/AVR8/../AVR8/../AVR8/Endpoint_AVR8.h **** 				uint8_t Dummy;
 565:../../tmk_core/protocol/lufa/LUFA-git/LUFA/Drivers/USB/Core/AVR8/../AVR8/../AVR8/Endpoint_AVR8.h **** 
 566:../../tmk_core/protocol/lufa/LUFA-git/LUFA/Drivers/USB/Core/AVR8/../AVR8/../AVR8/Endpoint_AVR8.h **** 				Dummy = UEDATX;
 117               		.loc 2 566 0
 118 005e 8091 F100 		lds r24,241
 119               	.LBE273:
 120               	.LBE272:
  67:../../tmk_core/protocol/lufa/LUFA-git/LUFA/Drivers/USB/Core/AVR8/EndpointStream_AVR8.c **** 			  return ErrorCode;
  68:../../tmk_core/protocol/lufa/LUFA-git/LUFA/Drivers/USB/Core/AVR8/EndpointStream_AVR8.c **** 		}
  69:../../tmk_core/protocol/lufa/LUFA-git/LUFA/Drivers/USB/Core/AVR8/EndpointStream_AVR8.c **** 		else
  70:../../tmk_core/protocol/lufa/LUFA-git/LUFA/Drivers/USB/Core/AVR8/EndpointStream_AVR8.c **** 		{
  71:../../tmk_core/protocol/lufa/LUFA-git/LUFA/Drivers/USB/Core/AVR8/EndpointStream_AVR8.c **** 			Endpoint_Discard_8();
  72:../../tmk_core/protocol/lufa/LUFA-git/LUFA/Drivers/USB/Core/AVR8/EndpointStream_AVR8.c **** 
  73:../../tmk_core/protocol/lufa/LUFA-git/LUFA/Drivers/USB/Core/AVR8/EndpointStream_AVR8.c **** 			Length--;
 121               		.loc 1 73 0
 122 0062 0150      		subi r16,1
 123 0064 1109      		sbc r17,__zero_reg__
 124               	.LVL8:
  74:../../tmk_core/protocol/lufa/LUFA-git/LUFA/Drivers/USB/Core/AVR8/EndpointStream_AVR8.c **** 			BytesInTransfer++;
 125               		.loc 1 74 0
 126 0066 8FEF      		ldi r24,-1
 127 0068 E81A      		sub r14,r24
 128 006a F80A      		sbc r15,r24
 129               	.LVL9:
 130 006c 00C0      		rjmp .L4
 131               	.L15:
  75:../../tmk_core/protocol/lufa/LUFA-git/LUFA/Drivers/USB/Core/AVR8/EndpointStream_AVR8.c **** 		}
  76:../../tmk_core/protocol/lufa/LUFA-git/LUFA/Drivers/USB/Core/AVR8/EndpointStream_AVR8.c **** 	}
  77:../../tmk_core/protocol/lufa/LUFA-git/LUFA/Drivers/USB/Core/AVR8/EndpointStream_AVR8.c **** 
  78:../../tmk_core/protocol/lufa/LUFA-git/LUFA/Drivers/USB/Core/AVR8/EndpointStream_AVR8.c **** 	return ENDPOINT_RWSTREAM_NoError;
 132               		.loc 1 78 0
 133 006e 80E0      		ldi r24,0
 134               	.LVL10:
 135               	.L2:
 136               	/* epilogue start */
  79:../../tmk_core/protocol/lufa/LUFA-git/LUFA/Drivers/USB/Core/AVR8/EndpointStream_AVR8.c **** }
 137               		.loc 1 79 0
 138 0070 DF91      		pop r29
 139 0072 CF91      		pop r28
 140               	.LVL11:
 141 0074 1F91      		pop r17
 142 0076 0F91      		pop r16
 143               	.LVL12:
 144 0078 FF90      		pop r15
 145 007a EF90      		pop r14
 146 007c 0895      		ret
 147               		.cfi_endproc
 148               	.LFE85:
 150               		.section	.text.Endpoint_Null_Stream,"ax",@progbits
 151               	.global	Endpoint_Null_Stream
 153               	Endpoint_Null_Stream:
 154               	.LFB86:
  80:../../tmk_core/protocol/lufa/LUFA-git/LUFA/Drivers/USB/Core/AVR8/EndpointStream_AVR8.c **** 
  81:../../tmk_core/protocol/lufa/LUFA-git/LUFA/Drivers/USB/Core/AVR8/EndpointStream_AVR8.c **** uint8_t Endpoint_Null_Stream(uint16_t Length,
  82:../../tmk_core/protocol/lufa/LUFA-git/LUFA/Drivers/USB/Core/AVR8/EndpointStream_AVR8.c ****                              uint16_t* const BytesProcessed)
  83:../../tmk_core/protocol/lufa/LUFA-git/LUFA/Drivers/USB/Core/AVR8/EndpointStream_AVR8.c **** {
 155               		.loc 1 83 0
 156               		.cfi_startproc
 157               	.LVL13:
 158 0000 EF92      		push r14
 159               	.LCFI6:
 160               		.cfi_def_cfa_offset 3
 161               		.cfi_offset 14, -2
 162 0002 FF92      		push r15
 163               	.LCFI7:
 164               		.cfi_def_cfa_offset 4
 165               		.cfi_offset 15, -3
 166 0004 0F93      		push r16
 167               	.LCFI8:
 168               		.cfi_def_cfa_offset 5
 169               		.cfi_offset 16, -4
 170 0006 1F93      		push r17
 171               	.LCFI9:
 172               		.cfi_def_cfa_offset 6
 173               		.cfi_offset 17, -5
 174 0008 CF93      		push r28
 175               	.LCFI10:
 176               		.cfi_def_cfa_offset 7
 177               		.cfi_offset 28, -6
 178 000a DF93      		push r29
 179               	.LCFI11:
 180               		.cfi_def_cfa_offset 8
 181               		.cfi_offset 29, -7
 182               	/* prologue: function */
 183               	/* frame size = 0 */
 184               	/* stack size = 6 */
 185               	.L__stack_usage = 6
 186 000c 8C01      		movw r16,r24
 187 000e EB01      		movw r28,r22
 188               	.LVL14:
  84:../../tmk_core/protocol/lufa/LUFA-git/LUFA/Drivers/USB/Core/AVR8/EndpointStream_AVR8.c **** 	uint8_t  ErrorCode;
  85:../../tmk_core/protocol/lufa/LUFA-git/LUFA/Drivers/USB/Core/AVR8/EndpointStream_AVR8.c **** 	uint16_t BytesInTransfer = 0;
  86:../../tmk_core/protocol/lufa/LUFA-git/LUFA/Drivers/USB/Core/AVR8/EndpointStream_AVR8.c **** 
  87:../../tmk_core/protocol/lufa/LUFA-git/LUFA/Drivers/USB/Core/AVR8/EndpointStream_AVR8.c **** 	if ((ErrorCode = Endpoint_WaitUntilReady()))
 189               		.loc 1 87 0
 190 0010 0E94 0000 		call Endpoint_WaitUntilReady
 191               	.LVL15:
 192 0014 8111      		cpse r24,__zero_reg__
 193 0016 00C0      		rjmp .L17
  88:../../tmk_core/protocol/lufa/LUFA-git/LUFA/Drivers/USB/Core/AVR8/EndpointStream_AVR8.c **** 	  return ErrorCode;
  89:../../tmk_core/protocol/lufa/LUFA-git/LUFA/Drivers/USB/Core/AVR8/EndpointStream_AVR8.c **** 
  90:../../tmk_core/protocol/lufa/LUFA-git/LUFA/Drivers/USB/Core/AVR8/EndpointStream_AVR8.c **** 	if (BytesProcessed != NULL)
 194               		.loc 1 90 0
 195 0018 2097      		sbiw r28,0
 196 001a 01F0      		breq .L18
  91:../../tmk_core/protocol/lufa/LUFA-git/LUFA/Drivers/USB/Core/AVR8/EndpointStream_AVR8.c **** 	  Length -= *BytesProcessed;
 197               		.loc 1 91 0
 198 001c 8881      		ld r24,Y
 199 001e 9981      		ldd r25,Y+1
 200               	.LVL16:
 201 0020 081B      		sub r16,r24
 202 0022 190B      		sbc r17,r25
 203               	.LVL17:
 204               	.L18:
  83:../../tmk_core/protocol/lufa/LUFA-git/LUFA/Drivers/USB/Core/AVR8/EndpointStream_AVR8.c **** {
 205               		.loc 1 83 0 discriminator 1
 206 0024 E12C      		mov r14,__zero_reg__
 207 0026 F12C      		mov r15,__zero_reg__
 208               	.LVL18:
 209               	.L19:
  92:../../tmk_core/protocol/lufa/LUFA-git/LUFA/Drivers/USB/Core/AVR8/EndpointStream_AVR8.c **** 
  93:../../tmk_core/protocol/lufa/LUFA-git/LUFA/Drivers/USB/Core/AVR8/EndpointStream_AVR8.c **** 	while (Length)
 210               		.loc 1 93 0 discriminator 1
 211 0028 0115      		cp r16,__zero_reg__
 212 002a 1105      		cpc r17,__zero_reg__
 213 002c 01F0      		breq .L29
 214               	.LBB274:
 215               	.LBB275:
 360:../../tmk_core/protocol/lufa/LUFA-git/LUFA/Drivers/USB/Core/AVR8/../AVR8/../AVR8/Endpoint_AVR8.h **** 				return ((UEINTX & (1 << RWAL)) ? true : false);
 216               		.loc 2 360 0
 217 002e 8091 E800 		lds r24,232
 218               	.LBE275:
 219               	.LBE274:
  94:../../tmk_core/protocol/lufa/LUFA-git/LUFA/Drivers/USB/Core/AVR8/EndpointStream_AVR8.c **** 	{
  95:../../tmk_core/protocol/lufa/LUFA-git/LUFA/Drivers/USB/Core/AVR8/EndpointStream_AVR8.c **** 		if (!(Endpoint_IsReadWriteAllowed()))
 220               		.loc 1 95 0
 221 0032 85FD      		sbrc r24,5
 222 0034 00C0      		rjmp .L20
 223               	.LBB276:
 224               	.LBB277:
 456:../../tmk_core/protocol/lufa/LUFA-git/LUFA/Drivers/USB/Core/AVR8/../AVR8/../AVR8/Endpoint_AVR8.h **** 					UEINTX &= ~((1 << TXINI) | (1 << FIFOCON));
 225               		.loc 2 456 0
 226 0036 8091 E800 		lds r24,232
 227 003a 8E77      		andi r24,lo8(126)
 228 003c 8093 E800 		sts 232,r24
 229               	.LBE277:
 230               	.LBE276:
  96:../../tmk_core/protocol/lufa/LUFA-git/LUFA/Drivers/USB/Core/AVR8/EndpointStream_AVR8.c **** 		{
  97:../../tmk_core/protocol/lufa/LUFA-git/LUFA/Drivers/USB/Core/AVR8/EndpointStream_AVR8.c **** 			Endpoint_ClearIN();
  98:../../tmk_core/protocol/lufa/LUFA-git/LUFA/Drivers/USB/Core/AVR8/EndpointStream_AVR8.c **** 
  99:../../tmk_core/protocol/lufa/LUFA-git/LUFA/Drivers/USB/Core/AVR8/EndpointStream_AVR8.c **** 			if (BytesProcessed != NULL)
 231               		.loc 1 99 0
 232 0040 2097      		sbiw r28,0
 233 0042 01F0      		breq .L21
 100:../../tmk_core/protocol/lufa/LUFA-git/LUFA/Drivers/USB/Core/AVR8/EndpointStream_AVR8.c **** 			{
 101:../../tmk_core/protocol/lufa/LUFA-git/LUFA/Drivers/USB/Core/AVR8/EndpointStream_AVR8.c **** 				*BytesProcessed += BytesInTransfer;
 234               		.loc 1 101 0
 235 0044 8881      		ld r24,Y
 236 0046 9981      		ldd r25,Y+1
 237 0048 8E0D      		add r24,r14
 238 004a 9F1D      		adc r25,r15
 239 004c 9983      		std Y+1,r25
 240 004e 8883      		st Y,r24
 102:../../tmk_core/protocol/lufa/LUFA-git/LUFA/Drivers/USB/Core/AVR8/EndpointStream_AVR8.c **** 				return ENDPOINT_RWSTREAM_IncompleteTransfer;
 241               		.loc 1 102 0
 242 0050 85E0      		ldi r24,lo8(5)
 243 0052 00C0      		rjmp .L17
 244               	.L21:
 103:../../tmk_core/protocol/lufa/LUFA-git/LUFA/Drivers/USB/Core/AVR8/EndpointStream_AVR8.c **** 			}
 104:../../tmk_core/protocol/lufa/LUFA-git/LUFA/Drivers/USB/Core/AVR8/EndpointStream_AVR8.c **** 
 105:../../tmk_core/protocol/lufa/LUFA-git/LUFA/Drivers/USB/Core/AVR8/EndpointStream_AVR8.c **** 			if ((ErrorCode = Endpoint_WaitUntilReady()))
 245               		.loc 1 105 0
 246 0054 0E94 0000 		call Endpoint_WaitUntilReady
 247               	.LVL19:
 248 0058 8823      		tst r24
 249 005a 01F0      		breq .L19
 250 005c 00C0      		rjmp .L17
 251               	.LVL20:
 252               	.L20:
 253               	.LBB278:
 254               	.LBB279:
 554:../../tmk_core/protocol/lufa/LUFA-git/LUFA/Drivers/USB/Core/AVR8/../AVR8/../AVR8/Endpoint_AVR8.h **** 				UEDATX = Data;
 255               		.loc 2 554 0
 256 005e 1092 F100 		sts 241,__zero_reg__
 257               	.LBE279:
 258               	.LBE278:
 106:../../tmk_core/protocol/lufa/LUFA-git/LUFA/Drivers/USB/Core/AVR8/EndpointStream_AVR8.c **** 			  return ErrorCode;
 107:../../tmk_core/protocol/lufa/LUFA-git/LUFA/Drivers/USB/Core/AVR8/EndpointStream_AVR8.c **** 		}
 108:../../tmk_core/protocol/lufa/LUFA-git/LUFA/Drivers/USB/Core/AVR8/EndpointStream_AVR8.c **** 		else
 109:../../tmk_core/protocol/lufa/LUFA-git/LUFA/Drivers/USB/Core/AVR8/EndpointStream_AVR8.c **** 		{
 110:../../tmk_core/protocol/lufa/LUFA-git/LUFA/Drivers/USB/Core/AVR8/EndpointStream_AVR8.c **** 			Endpoint_Write_8(0);
 111:../../tmk_core/protocol/lufa/LUFA-git/LUFA/Drivers/USB/Core/AVR8/EndpointStream_AVR8.c **** 
 112:../../tmk_core/protocol/lufa/LUFA-git/LUFA/Drivers/USB/Core/AVR8/EndpointStream_AVR8.c **** 			Length--;
 259               		.loc 1 112 0
 260 0062 0150      		subi r16,1
 261 0064 1109      		sbc r17,__zero_reg__
 262               	.LVL21:
 113:../../tmk_core/protocol/lufa/LUFA-git/LUFA/Drivers/USB/Core/AVR8/EndpointStream_AVR8.c **** 			BytesInTransfer++;
 263               		.loc 1 113 0
 264 0066 8FEF      		ldi r24,-1
 265 0068 E81A      		sub r14,r24
 266 006a F80A      		sbc r15,r24
 267               	.LVL22:
 268 006c 00C0      		rjmp .L19
 269               	.LVL23:
 270               	.L29:
 114:../../tmk_core/protocol/lufa/LUFA-git/LUFA/Drivers/USB/Core/AVR8/EndpointStream_AVR8.c **** 		}
 115:../../tmk_core/protocol/lufa/LUFA-git/LUFA/Drivers/USB/Core/AVR8/EndpointStream_AVR8.c **** 	}
 116:../../tmk_core/protocol/lufa/LUFA-git/LUFA/Drivers/USB/Core/AVR8/EndpointStream_AVR8.c **** 
 117:../../tmk_core/protocol/lufa/LUFA-git/LUFA/Drivers/USB/Core/AVR8/EndpointStream_AVR8.c **** 	return ENDPOINT_RWSTREAM_NoError;
 271               		.loc 1 117 0
 272 006e 80E0      		ldi r24,0
 273               	.LVL24:
 274               	.L17:
 275               	/* epilogue start */
 118:../../tmk_core/protocol/lufa/LUFA-git/LUFA/Drivers/USB/Core/AVR8/EndpointStream_AVR8.c **** }
 276               		.loc 1 118 0
 277 0070 DF91      		pop r29
 278 0072 CF91      		pop r28
 279               	.LVL25:
 280 0074 1F91      		pop r17
 281 0076 0F91      		pop r16
 282               	.LVL26:
 283 0078 FF90      		pop r15
 284 007a EF90      		pop r14
 285 007c 0895      		ret
 286               		.cfi_endproc
 287               	.LFE86:
 289               		.section	.text.Endpoint_Write_Stream_LE,"ax",@progbits
 290               	.global	Endpoint_Write_Stream_LE
 292               	Endpoint_Write_Stream_LE:
 293               	.LFB87:
 294               		.file 3 "../../tmk_core/protocol/lufa/LUFA-git/LUFA/Drivers/USB/Core/AVR8/Template/Template_Endpoi
   1:../../tmk_core/protocol/lufa/LUFA-git/LUFA/Drivers/USB/Core/AVR8/Template/Template_Endpoint_RW.c **** /*
   2:../../tmk_core/protocol/lufa/LUFA-git/LUFA/Drivers/USB/Core/AVR8/Template/Template_Endpoint_RW.c ****              LUFA Library
   3:../../tmk_core/protocol/lufa/LUFA-git/LUFA/Drivers/USB/Core/AVR8/Template/Template_Endpoint_RW.c ****      Copyright (C) Dean Camera, 2014.
   4:../../tmk_core/protocol/lufa/LUFA-git/LUFA/Drivers/USB/Core/AVR8/Template/Template_Endpoint_RW.c **** 
   5:../../tmk_core/protocol/lufa/LUFA-git/LUFA/Drivers/USB/Core/AVR8/Template/Template_Endpoint_RW.c ****   dean [at] fourwalledcubicle [dot] com
   6:../../tmk_core/protocol/lufa/LUFA-git/LUFA/Drivers/USB/Core/AVR8/Template/Template_Endpoint_RW.c ****            www.lufa-lib.org
   7:../../tmk_core/protocol/lufa/LUFA-git/LUFA/Drivers/USB/Core/AVR8/Template/Template_Endpoint_RW.c **** */
   8:../../tmk_core/protocol/lufa/LUFA-git/LUFA/Drivers/USB/Core/AVR8/Template/Template_Endpoint_RW.c **** 
   9:../../tmk_core/protocol/lufa/LUFA-git/LUFA/Drivers/USB/Core/AVR8/Template/Template_Endpoint_RW.c **** /*
  10:../../tmk_core/protocol/lufa/LUFA-git/LUFA/Drivers/USB/Core/AVR8/Template/Template_Endpoint_RW.c ****   Copyright 2014  Dean Camera (dean [at] fourwalledcubicle [dot] com)
  11:../../tmk_core/protocol/lufa/LUFA-git/LUFA/Drivers/USB/Core/AVR8/Template/Template_Endpoint_RW.c **** 
  12:../../tmk_core/protocol/lufa/LUFA-git/LUFA/Drivers/USB/Core/AVR8/Template/Template_Endpoint_RW.c ****   Permission to use, copy, modify, distribute, and sell this
  13:../../tmk_core/protocol/lufa/LUFA-git/LUFA/Drivers/USB/Core/AVR8/Template/Template_Endpoint_RW.c ****   software and its documentation for any purpose is hereby granted
  14:../../tmk_core/protocol/lufa/LUFA-git/LUFA/Drivers/USB/Core/AVR8/Template/Template_Endpoint_RW.c ****   without fee, provided that the above copyright notice appear in
  15:../../tmk_core/protocol/lufa/LUFA-git/LUFA/Drivers/USB/Core/AVR8/Template/Template_Endpoint_RW.c ****   all copies and that both that the copyright notice and this
  16:../../tmk_core/protocol/lufa/LUFA-git/LUFA/Drivers/USB/Core/AVR8/Template/Template_Endpoint_RW.c ****   permission notice and warranty disclaimer appear in supporting
  17:../../tmk_core/protocol/lufa/LUFA-git/LUFA/Drivers/USB/Core/AVR8/Template/Template_Endpoint_RW.c ****   documentation, and that the name of the author not be used in
  18:../../tmk_core/protocol/lufa/LUFA-git/LUFA/Drivers/USB/Core/AVR8/Template/Template_Endpoint_RW.c ****   advertising or publicity pertaining to distribution of the
  19:../../tmk_core/protocol/lufa/LUFA-git/LUFA/Drivers/USB/Core/AVR8/Template/Template_Endpoint_RW.c ****   software without specific, written prior permission.
  20:../../tmk_core/protocol/lufa/LUFA-git/LUFA/Drivers/USB/Core/AVR8/Template/Template_Endpoint_RW.c **** 
  21:../../tmk_core/protocol/lufa/LUFA-git/LUFA/Drivers/USB/Core/AVR8/Template/Template_Endpoint_RW.c ****   The author disclaims all warranties with regard to this
  22:../../tmk_core/protocol/lufa/LUFA-git/LUFA/Drivers/USB/Core/AVR8/Template/Template_Endpoint_RW.c ****   software, including all implied warranties of merchantability
  23:../../tmk_core/protocol/lufa/LUFA-git/LUFA/Drivers/USB/Core/AVR8/Template/Template_Endpoint_RW.c ****   and fitness.  In no event shall the author be liable for any
  24:../../tmk_core/protocol/lufa/LUFA-git/LUFA/Drivers/USB/Core/AVR8/Template/Template_Endpoint_RW.c ****   special, indirect or consequential damages or any damages
  25:../../tmk_core/protocol/lufa/LUFA-git/LUFA/Drivers/USB/Core/AVR8/Template/Template_Endpoint_RW.c ****   whatsoever resulting from loss of use, data or profits, whether
  26:../../tmk_core/protocol/lufa/LUFA-git/LUFA/Drivers/USB/Core/AVR8/Template/Template_Endpoint_RW.c ****   in an action of contract, negligence or other tortious action,
  27:../../tmk_core/protocol/lufa/LUFA-git/LUFA/Drivers/USB/Core/AVR8/Template/Template_Endpoint_RW.c ****   arising out of or in connection with the use or performance of
  28:../../tmk_core/protocol/lufa/LUFA-git/LUFA/Drivers/USB/Core/AVR8/Template/Template_Endpoint_RW.c ****   this software.
  29:../../tmk_core/protocol/lufa/LUFA-git/LUFA/Drivers/USB/Core/AVR8/Template/Template_Endpoint_RW.c **** */
  30:../../tmk_core/protocol/lufa/LUFA-git/LUFA/Drivers/USB/Core/AVR8/Template/Template_Endpoint_RW.c **** 
  31:../../tmk_core/protocol/lufa/LUFA-git/LUFA/Drivers/USB/Core/AVR8/Template/Template_Endpoint_RW.c **** #if defined(TEMPLATE_FUNC_NAME)
  32:../../tmk_core/protocol/lufa/LUFA-git/LUFA/Drivers/USB/Core/AVR8/Template/Template_Endpoint_RW.c **** 
  33:../../tmk_core/protocol/lufa/LUFA-git/LUFA/Drivers/USB/Core/AVR8/Template/Template_Endpoint_RW.c **** uint8_t TEMPLATE_FUNC_NAME (TEMPLATE_BUFFER_TYPE const Buffer,
  34:../../tmk_core/protocol/lufa/LUFA-git/LUFA/Drivers/USB/Core/AVR8/Template/Template_Endpoint_RW.c ****                             uint16_t Length,
  35:../../tmk_core/protocol/lufa/LUFA-git/LUFA/Drivers/USB/Core/AVR8/Template/Template_Endpoint_RW.c ****                             uint16_t* const BytesProcessed)
  36:../../tmk_core/protocol/lufa/LUFA-git/LUFA/Drivers/USB/Core/AVR8/Template/Template_Endpoint_RW.c **** {
 295               		.loc 3 36 0
 296               		.cfi_startproc
 297               	.LVL27:
 298 0000 CF92      		push r12
 299               	.LCFI12:
 300               		.cfi_def_cfa_offset 3
 301               		.cfi_offset 12, -2
 302 0002 DF92      		push r13
 303               	.LCFI13:
 304               		.cfi_def_cfa_offset 4
 305               		.cfi_offset 13, -3
 306 0004 EF92      		push r14
 307               	.LCFI14:
 308               		.cfi_def_cfa_offset 5
 309               		.cfi_offset 14, -4
 310 0006 FF92      		push r15
 311               	.LCFI15:
 312               		.cfi_def_cfa_offset 6
 313               		.cfi_offset 15, -5
 314 0008 0F93      		push r16
 315               	.LCFI16:
 316               		.cfi_def_cfa_offset 7
 317               		.cfi_offset 16, -6
 318 000a 1F93      		push r17
 319               	.LCFI17:
 320               		.cfi_def_cfa_offset 8
 321               		.cfi_offset 17, -7
 322 000c CF93      		push r28
 323               	.LCFI18:
 324               		.cfi_def_cfa_offset 9
 325               		.cfi_offset 28, -8
 326 000e DF93      		push r29
 327               	.LCFI19:
 328               		.cfi_def_cfa_offset 10
 329               		.cfi_offset 29, -9
 330               	/* prologue: function */
 331               	/* frame size = 0 */
 332               	/* stack size = 8 */
 333               	.L__stack_usage = 8
 334 0010 7C01      		movw r14,r24
 335 0012 8B01      		movw r16,r22
 336 0014 EA01      		movw r28,r20
 337               	.LVL28:
  37:../../tmk_core/protocol/lufa/LUFA-git/LUFA/Drivers/USB/Core/AVR8/Template/Template_Endpoint_RW.c **** 	uint8_t* DataStream      = ((uint8_t*)Buffer + TEMPLATE_BUFFER_OFFSET(Length));
  38:../../tmk_core/protocol/lufa/LUFA-git/LUFA/Drivers/USB/Core/AVR8/Template/Template_Endpoint_RW.c **** 	uint16_t BytesInTransfer = 0;
  39:../../tmk_core/protocol/lufa/LUFA-git/LUFA/Drivers/USB/Core/AVR8/Template/Template_Endpoint_RW.c **** 	uint8_t  ErrorCode;
  40:../../tmk_core/protocol/lufa/LUFA-git/LUFA/Drivers/USB/Core/AVR8/Template/Template_Endpoint_RW.c **** 
  41:../../tmk_core/protocol/lufa/LUFA-git/LUFA/Drivers/USB/Core/AVR8/Template/Template_Endpoint_RW.c **** 	if ((ErrorCode = Endpoint_WaitUntilReady()))
 338               		.loc 3 41 0
 339 0016 0E94 0000 		call Endpoint_WaitUntilReady
 340               	.LVL29:
 341 001a 8111      		cpse r24,__zero_reg__
 342 001c 00C0      		rjmp .L31
  42:../../tmk_core/protocol/lufa/LUFA-git/LUFA/Drivers/USB/Core/AVR8/Template/Template_Endpoint_RW.c **** 	  return ErrorCode;
  43:../../tmk_core/protocol/lufa/LUFA-git/LUFA/Drivers/USB/Core/AVR8/Template/Template_Endpoint_RW.c **** 
  44:../../tmk_core/protocol/lufa/LUFA-git/LUFA/Drivers/USB/Core/AVR8/Template/Template_Endpoint_RW.c **** 	if (BytesProcessed != NULL)
 343               		.loc 3 44 0
 344 001e 2097      		sbiw r28,0
 345 0020 01F0      		breq .L32
  45:../../tmk_core/protocol/lufa/LUFA-git/LUFA/Drivers/USB/Core/AVR8/Template/Template_Endpoint_RW.c **** 	{
  46:../../tmk_core/protocol/lufa/LUFA-git/LUFA/Drivers/USB/Core/AVR8/Template/Template_Endpoint_RW.c **** 		Length -= *BytesProcessed;
 346               		.loc 3 46 0
 347 0022 8881      		ld r24,Y
 348 0024 9981      		ldd r25,Y+1
 349               	.LVL30:
 350 0026 081B      		sub r16,r24
 351 0028 190B      		sbc r17,r25
 352               	.LVL31:
  47:../../tmk_core/protocol/lufa/LUFA-git/LUFA/Drivers/USB/Core/AVR8/Template/Template_Endpoint_RW.c **** 		TEMPLATE_BUFFER_MOVE(DataStream, *BytesProcessed);
 353               		.loc 3 47 0
 354 002a E80E      		add r14,r24
 355 002c F91E      		adc r15,r25
 356               	.LVL32:
 357               	.L32:
  37:../../tmk_core/protocol/lufa/LUFA-git/LUFA/Drivers/USB/Core/AVR8/Template/Template_Endpoint_RW.c **** 	uint8_t* DataStream      = ((uint8_t*)Buffer + TEMPLATE_BUFFER_OFFSET(Length));
 358               		.loc 3 37 0 discriminator 1
 359 002e C12C      		mov r12,__zero_reg__
 360 0030 D12C      		mov r13,__zero_reg__
 361               	.LVL33:
 362               	.L33:
  48:../../tmk_core/protocol/lufa/LUFA-git/LUFA/Drivers/USB/Core/AVR8/Template/Template_Endpoint_RW.c **** 	}
  49:../../tmk_core/protocol/lufa/LUFA-git/LUFA/Drivers/USB/Core/AVR8/Template/Template_Endpoint_RW.c **** 
  50:../../tmk_core/protocol/lufa/LUFA-git/LUFA/Drivers/USB/Core/AVR8/Template/Template_Endpoint_RW.c **** 	while (Length)
 363               		.loc 3 50 0 discriminator 1
 364 0032 0115      		cp r16,__zero_reg__
 365 0034 1105      		cpc r17,__zero_reg__
 366 0036 01F0      		breq .L41
 367               	.LBB280:
 368               	.LBB281:
 360:../../tmk_core/protocol/lufa/LUFA-git/LUFA/Drivers/USB/Core/AVR8/../AVR8/../AVR8/Endpoint_AVR8.h **** 				return ((UEINTX & (1 << RWAL)) ? true : false);
 369               		.loc 2 360 0
 370 0038 8091 E800 		lds r24,232
 371               	.LBE281:
 372               	.LBE280:
  51:../../tmk_core/protocol/lufa/LUFA-git/LUFA/Drivers/USB/Core/AVR8/Template/Template_Endpoint_RW.c **** 	{
  52:../../tmk_core/protocol/lufa/LUFA-git/LUFA/Drivers/USB/Core/AVR8/Template/Template_Endpoint_RW.c **** 		if (!(Endpoint_IsReadWriteAllowed()))
 373               		.loc 3 52 0
 374 003c 85FD      		sbrc r24,5
 375 003e 00C0      		rjmp .L34
 376               	.LBB282:
 377               	.LBB283:
 456:../../tmk_core/protocol/lufa/LUFA-git/LUFA/Drivers/USB/Core/AVR8/../AVR8/../AVR8/Endpoint_AVR8.h **** 					UEINTX &= ~((1 << TXINI) | (1 << FIFOCON));
 378               		.loc 2 456 0
 379 0040 8091 E800 		lds r24,232
 380 0044 8E77      		andi r24,lo8(126)
 381 0046 8093 E800 		sts 232,r24
 382               	.LBE283:
 383               	.LBE282:
  53:../../tmk_core/protocol/lufa/LUFA-git/LUFA/Drivers/USB/Core/AVR8/Template/Template_Endpoint_RW.c **** 		{
  54:../../tmk_core/protocol/lufa/LUFA-git/LUFA/Drivers/USB/Core/AVR8/Template/Template_Endpoint_RW.c **** 			TEMPLATE_CLEAR_ENDPOINT();
  55:../../tmk_core/protocol/lufa/LUFA-git/LUFA/Drivers/USB/Core/AVR8/Template/Template_Endpoint_RW.c **** 
  56:../../tmk_core/protocol/lufa/LUFA-git/LUFA/Drivers/USB/Core/AVR8/Template/Template_Endpoint_RW.c **** 			#if !defined(INTERRUPT_CONTROL_ENDPOINT)
  57:../../tmk_core/protocol/lufa/LUFA-git/LUFA/Drivers/USB/Core/AVR8/Template/Template_Endpoint_RW.c **** 			USB_USBTask();
  58:../../tmk_core/protocol/lufa/LUFA-git/LUFA/Drivers/USB/Core/AVR8/Template/Template_Endpoint_RW.c **** 			#endif
  59:../../tmk_core/protocol/lufa/LUFA-git/LUFA/Drivers/USB/Core/AVR8/Template/Template_Endpoint_RW.c **** 
  60:../../tmk_core/protocol/lufa/LUFA-git/LUFA/Drivers/USB/Core/AVR8/Template/Template_Endpoint_RW.c **** 			if (BytesProcessed != NULL)
 384               		.loc 3 60 0
 385 004a 2097      		sbiw r28,0
 386 004c 01F0      		breq .L35
  61:../../tmk_core/protocol/lufa/LUFA-git/LUFA/Drivers/USB/Core/AVR8/Template/Template_Endpoint_RW.c **** 			{
  62:../../tmk_core/protocol/lufa/LUFA-git/LUFA/Drivers/USB/Core/AVR8/Template/Template_Endpoint_RW.c **** 				*BytesProcessed += BytesInTransfer;
 387               		.loc 3 62 0
 388 004e 8881      		ld r24,Y
 389 0050 9981      		ldd r25,Y+1
 390 0052 8C0D      		add r24,r12
 391 0054 9D1D      		adc r25,r13
 392 0056 9983      		std Y+1,r25
 393 0058 8883      		st Y,r24
  63:../../tmk_core/protocol/lufa/LUFA-git/LUFA/Drivers/USB/Core/AVR8/Template/Template_Endpoint_RW.c **** 				return ENDPOINT_RWSTREAM_IncompleteTransfer;
 394               		.loc 3 63 0
 395 005a 85E0      		ldi r24,lo8(5)
 396 005c 00C0      		rjmp .L31
 397               	.L35:
  64:../../tmk_core/protocol/lufa/LUFA-git/LUFA/Drivers/USB/Core/AVR8/Template/Template_Endpoint_RW.c **** 			}
  65:../../tmk_core/protocol/lufa/LUFA-git/LUFA/Drivers/USB/Core/AVR8/Template/Template_Endpoint_RW.c **** 
  66:../../tmk_core/protocol/lufa/LUFA-git/LUFA/Drivers/USB/Core/AVR8/Template/Template_Endpoint_RW.c **** 			if ((ErrorCode = Endpoint_WaitUntilReady()))
 398               		.loc 3 66 0
 399 005e 0E94 0000 		call Endpoint_WaitUntilReady
 400               	.LVL34:
 401 0062 8823      		tst r24
 402 0064 01F0      		breq .L33
 403 0066 00C0      		rjmp .L31
 404               	.LVL35:
 405               	.L34:
  67:../../tmk_core/protocol/lufa/LUFA-git/LUFA/Drivers/USB/Core/AVR8/Template/Template_Endpoint_RW.c **** 			  return ErrorCode;
  68:../../tmk_core/protocol/lufa/LUFA-git/LUFA/Drivers/USB/Core/AVR8/Template/Template_Endpoint_RW.c **** 		}
  69:../../tmk_core/protocol/lufa/LUFA-git/LUFA/Drivers/USB/Core/AVR8/Template/Template_Endpoint_RW.c **** 		else
  70:../../tmk_core/protocol/lufa/LUFA-git/LUFA/Drivers/USB/Core/AVR8/Template/Template_Endpoint_RW.c **** 		{
  71:../../tmk_core/protocol/lufa/LUFA-git/LUFA/Drivers/USB/Core/AVR8/Template/Template_Endpoint_RW.c **** 			TEMPLATE_TRANSFER_BYTE(DataStream);
 406               		.loc 3 71 0
 407 0068 F701      		movw r30,r14
 408 006a 8191      		ld r24,Z+
 409 006c 7F01      		movw r14,r30
 410               	.LVL36:
 411               	.LBB284:
 412               	.LBB285:
 554:../../tmk_core/protocol/lufa/LUFA-git/LUFA/Drivers/USB/Core/AVR8/../AVR8/../AVR8/Endpoint_AVR8.h **** 				UEDATX = Data;
 413               		.loc 2 554 0
 414 006e 8093 F100 		sts 241,r24
 415               	.LVL37:
 416               	.LBE285:
 417               	.LBE284:
  72:../../tmk_core/protocol/lufa/LUFA-git/LUFA/Drivers/USB/Core/AVR8/Template/Template_Endpoint_RW.c **** 			TEMPLATE_BUFFER_MOVE(DataStream, 1);
  73:../../tmk_core/protocol/lufa/LUFA-git/LUFA/Drivers/USB/Core/AVR8/Template/Template_Endpoint_RW.c **** 			Length--;
 418               		.loc 3 73 0
 419 0072 0150      		subi r16,1
 420 0074 1109      		sbc r17,__zero_reg__
 421               	.LVL38:
  74:../../tmk_core/protocol/lufa/LUFA-git/LUFA/Drivers/USB/Core/AVR8/Template/Template_Endpoint_RW.c **** 			BytesInTransfer++;
 422               		.loc 3 74 0
 423 0076 FFEF      		ldi r31,-1
 424 0078 CF1A      		sub r12,r31
 425 007a DF0A      		sbc r13,r31
 426               	.LVL39:
 427 007c 00C0      		rjmp .L33
 428               	.LVL40:
 429               	.L41:
  75:../../tmk_core/protocol/lufa/LUFA-git/LUFA/Drivers/USB/Core/AVR8/Template/Template_Endpoint_RW.c **** 		}
  76:../../tmk_core/protocol/lufa/LUFA-git/LUFA/Drivers/USB/Core/AVR8/Template/Template_Endpoint_RW.c **** 	}
  77:../../tmk_core/protocol/lufa/LUFA-git/LUFA/Drivers/USB/Core/AVR8/Template/Template_Endpoint_RW.c **** 
  78:../../tmk_core/protocol/lufa/LUFA-git/LUFA/Drivers/USB/Core/AVR8/Template/Template_Endpoint_RW.c **** 	return ENDPOINT_RWSTREAM_NoError;
 430               		.loc 3 78 0
 431 007e 80E0      		ldi r24,0
 432               	.LVL41:
 433               	.L31:
 434               	/* epilogue start */
  79:../../tmk_core/protocol/lufa/LUFA-git/LUFA/Drivers/USB/Core/AVR8/Template/Template_Endpoint_RW.c **** }
 435               		.loc 3 79 0
 436 0080 DF91      		pop r29
 437 0082 CF91      		pop r28
 438               	.LVL42:
 439 0084 1F91      		pop r17
 440 0086 0F91      		pop r16
 441               	.LVL43:
 442 0088 FF90      		pop r15
 443 008a EF90      		pop r14
 444               	.LVL44:
 445 008c DF90      		pop r13
 446 008e CF90      		pop r12
 447 0090 0895      		ret
 448               		.cfi_endproc
 449               	.LFE87:
 451               		.section	.text.Endpoint_Write_Stream_BE,"ax",@progbits
 452               	.global	Endpoint_Write_Stream_BE
 454               	Endpoint_Write_Stream_BE:
 455               	.LFB88:
  36:../../tmk_core/protocol/lufa/LUFA-git/LUFA/Drivers/USB/Core/AVR8/Template/Template_Endpoint_RW.c **** {
 456               		.loc 3 36 0
 457               		.cfi_startproc
 458               	.LVL45:
 459 0000 CF92      		push r12
 460               	.LCFI20:
 461               		.cfi_def_cfa_offset 3
 462               		.cfi_offset 12, -2
 463 0002 DF92      		push r13
 464               	.LCFI21:
 465               		.cfi_def_cfa_offset 4
 466               		.cfi_offset 13, -3
 467 0004 EF92      		push r14
 468               	.LCFI22:
 469               		.cfi_def_cfa_offset 5
 470               		.cfi_offset 14, -4
 471 0006 FF92      		push r15
 472               	.LCFI23:
 473               		.cfi_def_cfa_offset 6
 474               		.cfi_offset 15, -5
 475 0008 0F93      		push r16
 476               	.LCFI24:
 477               		.cfi_def_cfa_offset 7
 478               		.cfi_offset 16, -6
 479 000a 1F93      		push r17
 480               	.LCFI25:
 481               		.cfi_def_cfa_offset 8
 482               		.cfi_offset 17, -7
 483 000c CF93      		push r28
 484               	.LCFI26:
 485               		.cfi_def_cfa_offset 9
 486               		.cfi_offset 28, -8
 487 000e DF93      		push r29
 488               	.LCFI27:
 489               		.cfi_def_cfa_offset 10
 490               		.cfi_offset 29, -9
 491               	/* prologue: function */
 492               	/* frame size = 0 */
 493               	/* stack size = 8 */
 494               	.L__stack_usage = 8
 495 0010 6C01      		movw r12,r24
 496 0012 8B01      		movw r16,r22
 497 0014 7A01      		movw r14,r20
 498               	.LVL46:
  41:../../tmk_core/protocol/lufa/LUFA-git/LUFA/Drivers/USB/Core/AVR8/Template/Template_Endpoint_RW.c **** 	if ((ErrorCode = Endpoint_WaitUntilReady()))
 499               		.loc 3 41 0
 500 0016 0E94 0000 		call Endpoint_WaitUntilReady
 501               	.LVL47:
 502 001a 8111      		cpse r24,__zero_reg__
 503 001c 00C0      		rjmp .L43
  37:../../tmk_core/protocol/lufa/LUFA-git/LUFA/Drivers/USB/Core/AVR8/Template/Template_Endpoint_RW.c **** 	uint8_t* DataStream      = ((uint8_t*)Buffer + TEMPLATE_BUFFER_OFFSET(Length));
 504               		.loc 3 37 0
 505 001e E801      		movw r28,r16
 506 0020 2197      		sbiw r28,1
 507               	.LVL48:
 508 0022 CC0D      		add r28,r12
 509 0024 DD1D      		adc r29,r13
 510               	.LVL49:
  44:../../tmk_core/protocol/lufa/LUFA-git/LUFA/Drivers/USB/Core/AVR8/Template/Template_Endpoint_RW.c **** 	if (BytesProcessed != NULL)
 511               		.loc 3 44 0
 512 0026 E114      		cp r14,__zero_reg__
 513 0028 F104      		cpc r15,__zero_reg__
 514 002a 01F0      		breq .L44
  46:../../tmk_core/protocol/lufa/LUFA-git/LUFA/Drivers/USB/Core/AVR8/Template/Template_Endpoint_RW.c **** 		Length -= *BytesProcessed;
 515               		.loc 3 46 0
 516 002c F701      		movw r30,r14
 517 002e 8081      		ld r24,Z
 518 0030 9181      		ldd r25,Z+1
 519               	.LVL50:
 520 0032 081B      		sub r16,r24
 521 0034 190B      		sbc r17,r25
 522               	.LVL51:
  47:../../tmk_core/protocol/lufa/LUFA-git/LUFA/Drivers/USB/Core/AVR8/Template/Template_Endpoint_RW.c **** 		TEMPLATE_BUFFER_MOVE(DataStream, *BytesProcessed);
 523               		.loc 3 47 0
 524 0036 C81B      		sub r28,r24
 525 0038 D90B      		sbc r29,r25
 526               	.LVL52:
 527               	.L44:
  36:../../tmk_core/protocol/lufa/LUFA-git/LUFA/Drivers/USB/Core/AVR8/Template/Template_Endpoint_RW.c **** {
 528               		.loc 3 36 0 discriminator 1
 529 003a C12C      		mov r12,__zero_reg__
 530 003c D12C      		mov r13,__zero_reg__
 531               	.LVL53:
 532               	.L45:
  50:../../tmk_core/protocol/lufa/LUFA-git/LUFA/Drivers/USB/Core/AVR8/Template/Template_Endpoint_RW.c **** 	while (Length)
 533               		.loc 3 50 0 discriminator 1
 534 003e 0115      		cp r16,__zero_reg__
 535 0040 1105      		cpc r17,__zero_reg__
 536 0042 01F0      		breq .L55
 537               	.LBB286:
 538               	.LBB287:
 360:../../tmk_core/protocol/lufa/LUFA-git/LUFA/Drivers/USB/Core/AVR8/../AVR8/../AVR8/Endpoint_AVR8.h **** 				return ((UEINTX & (1 << RWAL)) ? true : false);
 539               		.loc 2 360 0
 540 0044 8091 E800 		lds r24,232
 541               	.LBE287:
 542               	.LBE286:
  52:../../tmk_core/protocol/lufa/LUFA-git/LUFA/Drivers/USB/Core/AVR8/Template/Template_Endpoint_RW.c **** 		if (!(Endpoint_IsReadWriteAllowed()))
 543               		.loc 3 52 0
 544 0048 85FD      		sbrc r24,5
 545 004a 00C0      		rjmp .L46
 546               	.LBB288:
 547               	.LBB289:
 456:../../tmk_core/protocol/lufa/LUFA-git/LUFA/Drivers/USB/Core/AVR8/../AVR8/../AVR8/Endpoint_AVR8.h **** 					UEINTX &= ~((1 << TXINI) | (1 << FIFOCON));
 548               		.loc 2 456 0
 549 004c 8091 E800 		lds r24,232
 550 0050 8E77      		andi r24,lo8(126)
 551 0052 8093 E800 		sts 232,r24
 552               	.LBE289:
 553               	.LBE288:
  60:../../tmk_core/protocol/lufa/LUFA-git/LUFA/Drivers/USB/Core/AVR8/Template/Template_Endpoint_RW.c **** 			if (BytesProcessed != NULL)
 554               		.loc 3 60 0
 555 0056 E114      		cp r14,__zero_reg__
 556 0058 F104      		cpc r15,__zero_reg__
 557 005a 01F0      		breq .L47
  62:../../tmk_core/protocol/lufa/LUFA-git/LUFA/Drivers/USB/Core/AVR8/Template/Template_Endpoint_RW.c **** 				*BytesProcessed += BytesInTransfer;
 558               		.loc 3 62 0
 559 005c F701      		movw r30,r14
 560 005e 8081      		ld r24,Z
 561 0060 9181      		ldd r25,Z+1
 562 0062 8C0D      		add r24,r12
 563 0064 9D1D      		adc r25,r13
 564 0066 9183      		std Z+1,r25
 565 0068 8083      		st Z,r24
  63:../../tmk_core/protocol/lufa/LUFA-git/LUFA/Drivers/USB/Core/AVR8/Template/Template_Endpoint_RW.c **** 				return ENDPOINT_RWSTREAM_IncompleteTransfer;
 566               		.loc 3 63 0
 567 006a 85E0      		ldi r24,lo8(5)
 568 006c 00C0      		rjmp .L43
 569               	.L47:
  66:../../tmk_core/protocol/lufa/LUFA-git/LUFA/Drivers/USB/Core/AVR8/Template/Template_Endpoint_RW.c **** 			if ((ErrorCode = Endpoint_WaitUntilReady()))
 570               		.loc 3 66 0
 571 006e 0E94 0000 		call Endpoint_WaitUntilReady
 572               	.LVL54:
 573 0072 8823      		tst r24
 574 0074 01F0      		breq .L45
 575 0076 00C0      		rjmp .L43
 576               	.LVL55:
 577               	.L46:
  71:../../tmk_core/protocol/lufa/LUFA-git/LUFA/Drivers/USB/Core/AVR8/Template/Template_Endpoint_RW.c **** 			TEMPLATE_TRANSFER_BYTE(DataStream);
 578               		.loc 3 71 0
 579 0078 8881      		ld r24,Y
 580               	.LVL56:
 581               	.LBB290:
 582               	.LBB291:
 554:../../tmk_core/protocol/lufa/LUFA-git/LUFA/Drivers/USB/Core/AVR8/../AVR8/../AVR8/Endpoint_AVR8.h **** 				UEDATX = Data;
 583               		.loc 2 554 0
 584 007a 8093 F100 		sts 241,r24
 585               	.LBE291:
 586               	.LBE290:
  72:../../tmk_core/protocol/lufa/LUFA-git/LUFA/Drivers/USB/Core/AVR8/Template/Template_Endpoint_RW.c **** 			TEMPLATE_BUFFER_MOVE(DataStream, 1);
 587               		.loc 3 72 0
 588 007e 2197      		sbiw r28,1
 589               	.LVL57:
  73:../../tmk_core/protocol/lufa/LUFA-git/LUFA/Drivers/USB/Core/AVR8/Template/Template_Endpoint_RW.c **** 			Length--;
 590               		.loc 3 73 0
 591 0080 0150      		subi r16,1
 592 0082 1109      		sbc r17,__zero_reg__
 593               	.LVL58:
  74:../../tmk_core/protocol/lufa/LUFA-git/LUFA/Drivers/USB/Core/AVR8/Template/Template_Endpoint_RW.c **** 			BytesInTransfer++;
 594               		.loc 3 74 0
 595 0084 FFEF      		ldi r31,-1
 596 0086 CF1A      		sub r12,r31
 597 0088 DF0A      		sbc r13,r31
 598               	.LVL59:
 599 008a 00C0      		rjmp .L45
 600               	.LVL60:
 601               	.L55:
  78:../../tmk_core/protocol/lufa/LUFA-git/LUFA/Drivers/USB/Core/AVR8/Template/Template_Endpoint_RW.c **** 	return ENDPOINT_RWSTREAM_NoError;
 602               		.loc 3 78 0
 603 008c 80E0      		ldi r24,0
 604               	.LVL61:
 605               	.L43:
 606               	/* epilogue start */
 607               		.loc 3 79 0
 608 008e DF91      		pop r29
 609 0090 CF91      		pop r28
 610 0092 1F91      		pop r17
 611 0094 0F91      		pop r16
 612               	.LVL62:
 613 0096 FF90      		pop r15
 614 0098 EF90      		pop r14
 615               	.LVL63:
 616 009a DF90      		pop r13
 617 009c CF90      		pop r12
 618 009e 0895      		ret
 619               		.cfi_endproc
 620               	.LFE88:
 622               		.section	.text.Endpoint_Read_Stream_LE,"ax",@progbits
 623               	.global	Endpoint_Read_Stream_LE
 625               	Endpoint_Read_Stream_LE:
 626               	.LFB89:
  36:../../tmk_core/protocol/lufa/LUFA-git/LUFA/Drivers/USB/Core/AVR8/Template/Template_Endpoint_RW.c **** {
 627               		.loc 3 36 0
 628               		.cfi_startproc
 629               	.LVL64:
 630 0000 CF92      		push r12
 631               	.LCFI28:
 632               		.cfi_def_cfa_offset 3
 633               		.cfi_offset 12, -2
 634 0002 DF92      		push r13
 635               	.LCFI29:
 636               		.cfi_def_cfa_offset 4
 637               		.cfi_offset 13, -3
 638 0004 EF92      		push r14
 639               	.LCFI30:
 640               		.cfi_def_cfa_offset 5
 641               		.cfi_offset 14, -4
 642 0006 FF92      		push r15
 643               	.LCFI31:
 644               		.cfi_def_cfa_offset 6
 645               		.cfi_offset 15, -5
 646 0008 0F93      		push r16
 647               	.LCFI32:
 648               		.cfi_def_cfa_offset 7
 649               		.cfi_offset 16, -6
 650 000a 1F93      		push r17
 651               	.LCFI33:
 652               		.cfi_def_cfa_offset 8
 653               		.cfi_offset 17, -7
 654 000c CF93      		push r28
 655               	.LCFI34:
 656               		.cfi_def_cfa_offset 9
 657               		.cfi_offset 28, -8
 658 000e DF93      		push r29
 659               	.LCFI35:
 660               		.cfi_def_cfa_offset 10
 661               		.cfi_offset 29, -9
 662               	/* prologue: function */
 663               	/* frame size = 0 */
 664               	/* stack size = 8 */
 665               	.L__stack_usage = 8
 666 0010 7C01      		movw r14,r24
 667 0012 8B01      		movw r16,r22
 668 0014 EA01      		movw r28,r20
 669               	.LVL65:
  41:../../tmk_core/protocol/lufa/LUFA-git/LUFA/Drivers/USB/Core/AVR8/Template/Template_Endpoint_RW.c **** 	if ((ErrorCode = Endpoint_WaitUntilReady()))
 670               		.loc 3 41 0
 671 0016 0E94 0000 		call Endpoint_WaitUntilReady
 672               	.LVL66:
 673 001a 8111      		cpse r24,__zero_reg__
 674 001c 00C0      		rjmp .L57
  44:../../tmk_core/protocol/lufa/LUFA-git/LUFA/Drivers/USB/Core/AVR8/Template/Template_Endpoint_RW.c **** 	if (BytesProcessed != NULL)
 675               		.loc 3 44 0
 676 001e 2097      		sbiw r28,0
 677 0020 01F0      		breq .L58
  46:../../tmk_core/protocol/lufa/LUFA-git/LUFA/Drivers/USB/Core/AVR8/Template/Template_Endpoint_RW.c **** 		Length -= *BytesProcessed;
 678               		.loc 3 46 0
 679 0022 8881      		ld r24,Y
 680 0024 9981      		ldd r25,Y+1
 681               	.LVL67:
 682 0026 081B      		sub r16,r24
 683 0028 190B      		sbc r17,r25
 684               	.LVL68:
  47:../../tmk_core/protocol/lufa/LUFA-git/LUFA/Drivers/USB/Core/AVR8/Template/Template_Endpoint_RW.c **** 		TEMPLATE_BUFFER_MOVE(DataStream, *BytesProcessed);
 685               		.loc 3 47 0
 686 002a E80E      		add r14,r24
 687 002c F91E      		adc r15,r25
 688               	.LVL69:
 689               	.L58:
  37:../../tmk_core/protocol/lufa/LUFA-git/LUFA/Drivers/USB/Core/AVR8/Template/Template_Endpoint_RW.c **** 	uint8_t* DataStream      = ((uint8_t*)Buffer + TEMPLATE_BUFFER_OFFSET(Length));
 690               		.loc 3 37 0 discriminator 1
 691 002e C12C      		mov r12,__zero_reg__
 692 0030 D12C      		mov r13,__zero_reg__
 693               	.LVL70:
 694               	.L59:
  50:../../tmk_core/protocol/lufa/LUFA-git/LUFA/Drivers/USB/Core/AVR8/Template/Template_Endpoint_RW.c **** 	while (Length)
 695               		.loc 3 50 0 discriminator 1
 696 0032 0115      		cp r16,__zero_reg__
 697 0034 1105      		cpc r17,__zero_reg__
 698 0036 01F0      		breq .L67
 699               	.LBB292:
 700               	.LBB293:
 360:../../tmk_core/protocol/lufa/LUFA-git/LUFA/Drivers/USB/Core/AVR8/../AVR8/../AVR8/Endpoint_AVR8.h **** 				return ((UEINTX & (1 << RWAL)) ? true : false);
 701               		.loc 2 360 0
 702 0038 8091 E800 		lds r24,232
 703               	.LBE293:
 704               	.LBE292:
  52:../../tmk_core/protocol/lufa/LUFA-git/LUFA/Drivers/USB/Core/AVR8/Template/Template_Endpoint_RW.c **** 		if (!(Endpoint_IsReadWriteAllowed()))
 705               		.loc 3 52 0
 706 003c 85FD      		sbrc r24,5
 707 003e 00C0      		rjmp .L60
 708               	.LBB294:
 709               	.LBB295:
 471:../../tmk_core/protocol/lufa/LUFA-git/LUFA/Drivers/USB/Core/AVR8/../AVR8/../AVR8/Endpoint_AVR8.h **** 					UEINTX &= ~((1 << RXOUTI) | (1 << FIFOCON));
 710               		.loc 2 471 0
 711 0040 8091 E800 		lds r24,232
 712 0044 8B77      		andi r24,lo8(123)
 713 0046 8093 E800 		sts 232,r24
 714               	.LBE295:
 715               	.LBE294:
  60:../../tmk_core/protocol/lufa/LUFA-git/LUFA/Drivers/USB/Core/AVR8/Template/Template_Endpoint_RW.c **** 			if (BytesProcessed != NULL)
 716               		.loc 3 60 0
 717 004a 2097      		sbiw r28,0
 718 004c 01F0      		breq .L61
  62:../../tmk_core/protocol/lufa/LUFA-git/LUFA/Drivers/USB/Core/AVR8/Template/Template_Endpoint_RW.c **** 				*BytesProcessed += BytesInTransfer;
 719               		.loc 3 62 0
 720 004e 8881      		ld r24,Y
 721 0050 9981      		ldd r25,Y+1
 722 0052 8C0D      		add r24,r12
 723 0054 9D1D      		adc r25,r13
 724 0056 9983      		std Y+1,r25
 725 0058 8883      		st Y,r24
  63:../../tmk_core/protocol/lufa/LUFA-git/LUFA/Drivers/USB/Core/AVR8/Template/Template_Endpoint_RW.c **** 				return ENDPOINT_RWSTREAM_IncompleteTransfer;
 726               		.loc 3 63 0
 727 005a 85E0      		ldi r24,lo8(5)
 728 005c 00C0      		rjmp .L57
 729               	.L61:
  66:../../tmk_core/protocol/lufa/LUFA-git/LUFA/Drivers/USB/Core/AVR8/Template/Template_Endpoint_RW.c **** 			if ((ErrorCode = Endpoint_WaitUntilReady()))
 730               		.loc 3 66 0
 731 005e 0E94 0000 		call Endpoint_WaitUntilReady
 732               	.LVL71:
 733 0062 8823      		tst r24
 734 0064 01F0      		breq .L59
 735 0066 00C0      		rjmp .L57
 736               	.LVL72:
 737               	.L60:
 738               	.LBB296:
 739               	.LBB297:
 542:../../tmk_core/protocol/lufa/LUFA-git/LUFA/Drivers/USB/Core/AVR8/../AVR8/../AVR8/Endpoint_AVR8.h **** 				return UEDATX;
 740               		.loc 2 542 0
 741 0068 8091 F100 		lds r24,241
 742               	.LBE297:
 743               	.LBE296:
  71:../../tmk_core/protocol/lufa/LUFA-git/LUFA/Drivers/USB/Core/AVR8/Template/Template_Endpoint_RW.c **** 			TEMPLATE_TRANSFER_BYTE(DataStream);
 744               		.loc 3 71 0
 745 006c F701      		movw r30,r14
 746 006e 8193      		st Z+,r24
 747 0070 7F01      		movw r14,r30
 748               	.LVL73:
  73:../../tmk_core/protocol/lufa/LUFA-git/LUFA/Drivers/USB/Core/AVR8/Template/Template_Endpoint_RW.c **** 			Length--;
 749               		.loc 3 73 0
 750 0072 0150      		subi r16,1
 751 0074 1109      		sbc r17,__zero_reg__
 752               	.LVL74:
  74:../../tmk_core/protocol/lufa/LUFA-git/LUFA/Drivers/USB/Core/AVR8/Template/Template_Endpoint_RW.c **** 			BytesInTransfer++;
 753               		.loc 3 74 0
 754 0076 FFEF      		ldi r31,-1
 755 0078 CF1A      		sub r12,r31
 756 007a DF0A      		sbc r13,r31
 757               	.LVL75:
 758 007c 00C0      		rjmp .L59
 759               	.L67:
  78:../../tmk_core/protocol/lufa/LUFA-git/LUFA/Drivers/USB/Core/AVR8/Template/Template_Endpoint_RW.c **** 	return ENDPOINT_RWSTREAM_NoError;
 760               		.loc 3 78 0
 761 007e 80E0      		ldi r24,0
 762               	.LVL76:
 763               	.L57:
 764               	/* epilogue start */
 765               		.loc 3 79 0
 766 0080 DF91      		pop r29
 767 0082 CF91      		pop r28
 768               	.LVL77:
 769 0084 1F91      		pop r17
 770 0086 0F91      		pop r16
 771               	.LVL78:
 772 0088 FF90      		pop r15
 773 008a EF90      		pop r14
 774               	.LVL79:
 775 008c DF90      		pop r13
 776 008e CF90      		pop r12
 777 0090 0895      		ret
 778               		.cfi_endproc
 779               	.LFE89:
 781               		.section	.text.Endpoint_Read_Stream_BE,"ax",@progbits
 782               	.global	Endpoint_Read_Stream_BE
 784               	Endpoint_Read_Stream_BE:
 785               	.LFB90:
  36:../../tmk_core/protocol/lufa/LUFA-git/LUFA/Drivers/USB/Core/AVR8/Template/Template_Endpoint_RW.c **** {
 786               		.loc 3 36 0
 787               		.cfi_startproc
 788               	.LVL80:
 789 0000 CF92      		push r12
 790               	.LCFI36:
 791               		.cfi_def_cfa_offset 3
 792               		.cfi_offset 12, -2
 793 0002 DF92      		push r13
 794               	.LCFI37:
 795               		.cfi_def_cfa_offset 4
 796               		.cfi_offset 13, -3
 797 0004 EF92      		push r14
 798               	.LCFI38:
 799               		.cfi_def_cfa_offset 5
 800               		.cfi_offset 14, -4
 801 0006 FF92      		push r15
 802               	.LCFI39:
 803               		.cfi_def_cfa_offset 6
 804               		.cfi_offset 15, -5
 805 0008 0F93      		push r16
 806               	.LCFI40:
 807               		.cfi_def_cfa_offset 7
 808               		.cfi_offset 16, -6
 809 000a 1F93      		push r17
 810               	.LCFI41:
 811               		.cfi_def_cfa_offset 8
 812               		.cfi_offset 17, -7
 813 000c CF93      		push r28
 814               	.LCFI42:
 815               		.cfi_def_cfa_offset 9
 816               		.cfi_offset 28, -8
 817 000e DF93      		push r29
 818               	.LCFI43:
 819               		.cfi_def_cfa_offset 10
 820               		.cfi_offset 29, -9
 821               	/* prologue: function */
 822               	/* frame size = 0 */
 823               	/* stack size = 8 */
 824               	.L__stack_usage = 8
 825 0010 6C01      		movw r12,r24
 826 0012 8B01      		movw r16,r22
 827 0014 7A01      		movw r14,r20
 828               	.LVL81:
  41:../../tmk_core/protocol/lufa/LUFA-git/LUFA/Drivers/USB/Core/AVR8/Template/Template_Endpoint_RW.c **** 	if ((ErrorCode = Endpoint_WaitUntilReady()))
 829               		.loc 3 41 0
 830 0016 0E94 0000 		call Endpoint_WaitUntilReady
 831               	.LVL82:
 832 001a 8111      		cpse r24,__zero_reg__
 833 001c 00C0      		rjmp .L69
  37:../../tmk_core/protocol/lufa/LUFA-git/LUFA/Drivers/USB/Core/AVR8/Template/Template_Endpoint_RW.c **** 	uint8_t* DataStream      = ((uint8_t*)Buffer + TEMPLATE_BUFFER_OFFSET(Length));
 834               		.loc 3 37 0
 835 001e E801      		movw r28,r16
 836 0020 2197      		sbiw r28,1
 837               	.LVL83:
 838 0022 CC0D      		add r28,r12
 839 0024 DD1D      		adc r29,r13
 840               	.LVL84:
  44:../../tmk_core/protocol/lufa/LUFA-git/LUFA/Drivers/USB/Core/AVR8/Template/Template_Endpoint_RW.c **** 	if (BytesProcessed != NULL)
 841               		.loc 3 44 0
 842 0026 E114      		cp r14,__zero_reg__
 843 0028 F104      		cpc r15,__zero_reg__
 844 002a 01F0      		breq .L70
  46:../../tmk_core/protocol/lufa/LUFA-git/LUFA/Drivers/USB/Core/AVR8/Template/Template_Endpoint_RW.c **** 		Length -= *BytesProcessed;
 845               		.loc 3 46 0
 846 002c F701      		movw r30,r14
 847 002e 8081      		ld r24,Z
 848 0030 9181      		ldd r25,Z+1
 849               	.LVL85:
 850 0032 081B      		sub r16,r24
 851 0034 190B      		sbc r17,r25
 852               	.LVL86:
  47:../../tmk_core/protocol/lufa/LUFA-git/LUFA/Drivers/USB/Core/AVR8/Template/Template_Endpoint_RW.c **** 		TEMPLATE_BUFFER_MOVE(DataStream, *BytesProcessed);
 853               		.loc 3 47 0
 854 0036 C81B      		sub r28,r24
 855 0038 D90B      		sbc r29,r25
 856               	.LVL87:
 857               	.L70:
  36:../../tmk_core/protocol/lufa/LUFA-git/LUFA/Drivers/USB/Core/AVR8/Template/Template_Endpoint_RW.c **** {
 858               		.loc 3 36 0 discriminator 1
 859 003a C12C      		mov r12,__zero_reg__
 860 003c D12C      		mov r13,__zero_reg__
 861               	.LVL88:
 862               	.L71:
  50:../../tmk_core/protocol/lufa/LUFA-git/LUFA/Drivers/USB/Core/AVR8/Template/Template_Endpoint_RW.c **** 	while (Length)
 863               		.loc 3 50 0 discriminator 1
 864 003e 0115      		cp r16,__zero_reg__
 865 0040 1105      		cpc r17,__zero_reg__
 866 0042 01F0      		breq .L81
 867               	.LBB298:
 868               	.LBB299:
 360:../../tmk_core/protocol/lufa/LUFA-git/LUFA/Drivers/USB/Core/AVR8/../AVR8/../AVR8/Endpoint_AVR8.h **** 				return ((UEINTX & (1 << RWAL)) ? true : false);
 869               		.loc 2 360 0
 870 0044 8091 E800 		lds r24,232
 871               	.LBE299:
 872               	.LBE298:
  52:../../tmk_core/protocol/lufa/LUFA-git/LUFA/Drivers/USB/Core/AVR8/Template/Template_Endpoint_RW.c **** 		if (!(Endpoint_IsReadWriteAllowed()))
 873               		.loc 3 52 0
 874 0048 85FD      		sbrc r24,5
 875 004a 00C0      		rjmp .L72
 876               	.LBB300:
 877               	.LBB301:
 471:../../tmk_core/protocol/lufa/LUFA-git/LUFA/Drivers/USB/Core/AVR8/../AVR8/../AVR8/Endpoint_AVR8.h **** 					UEINTX &= ~((1 << RXOUTI) | (1 << FIFOCON));
 878               		.loc 2 471 0
 879 004c 8091 E800 		lds r24,232
 880 0050 8B77      		andi r24,lo8(123)
 881 0052 8093 E800 		sts 232,r24
 882               	.LBE301:
 883               	.LBE300:
  60:../../tmk_core/protocol/lufa/LUFA-git/LUFA/Drivers/USB/Core/AVR8/Template/Template_Endpoint_RW.c **** 			if (BytesProcessed != NULL)
 884               		.loc 3 60 0
 885 0056 E114      		cp r14,__zero_reg__
 886 0058 F104      		cpc r15,__zero_reg__
 887 005a 01F0      		breq .L73
  62:../../tmk_core/protocol/lufa/LUFA-git/LUFA/Drivers/USB/Core/AVR8/Template/Template_Endpoint_RW.c **** 				*BytesProcessed += BytesInTransfer;
 888               		.loc 3 62 0
 889 005c F701      		movw r30,r14
 890 005e 8081      		ld r24,Z
 891 0060 9181      		ldd r25,Z+1
 892 0062 8C0D      		add r24,r12
 893 0064 9D1D      		adc r25,r13
 894 0066 9183      		std Z+1,r25
 895 0068 8083      		st Z,r24
  63:../../tmk_core/protocol/lufa/LUFA-git/LUFA/Drivers/USB/Core/AVR8/Template/Template_Endpoint_RW.c **** 				return ENDPOINT_RWSTREAM_IncompleteTransfer;
 896               		.loc 3 63 0
 897 006a 85E0      		ldi r24,lo8(5)
 898 006c 00C0      		rjmp .L69
 899               	.L73:
  66:../../tmk_core/protocol/lufa/LUFA-git/LUFA/Drivers/USB/Core/AVR8/Template/Template_Endpoint_RW.c **** 			if ((ErrorCode = Endpoint_WaitUntilReady()))
 900               		.loc 3 66 0
 901 006e 0E94 0000 		call Endpoint_WaitUntilReady
 902               	.LVL89:
 903 0072 8823      		tst r24
 904 0074 01F0      		breq .L71
 905 0076 00C0      		rjmp .L69
 906               	.LVL90:
 907               	.L72:
 908               	.LBB302:
 909               	.LBB303:
 542:../../tmk_core/protocol/lufa/LUFA-git/LUFA/Drivers/USB/Core/AVR8/../AVR8/../AVR8/Endpoint_AVR8.h **** 				return UEDATX;
 910               		.loc 2 542 0
 911 0078 8091 F100 		lds r24,241
 912               	.LBE303:
 913               	.LBE302:
  71:../../tmk_core/protocol/lufa/LUFA-git/LUFA/Drivers/USB/Core/AVR8/Template/Template_Endpoint_RW.c **** 			TEMPLATE_TRANSFER_BYTE(DataStream);
 914               		.loc 3 71 0
 915 007c 8883      		st Y,r24
  72:../../tmk_core/protocol/lufa/LUFA-git/LUFA/Drivers/USB/Core/AVR8/Template/Template_Endpoint_RW.c **** 			TEMPLATE_BUFFER_MOVE(DataStream, 1);
 916               		.loc 3 72 0
 917 007e 2197      		sbiw r28,1
 918               	.LVL91:
  73:../../tmk_core/protocol/lufa/LUFA-git/LUFA/Drivers/USB/Core/AVR8/Template/Template_Endpoint_RW.c **** 			Length--;
 919               		.loc 3 73 0
 920 0080 0150      		subi r16,1
 921 0082 1109      		sbc r17,__zero_reg__
 922               	.LVL92:
  74:../../tmk_core/protocol/lufa/LUFA-git/LUFA/Drivers/USB/Core/AVR8/Template/Template_Endpoint_RW.c **** 			BytesInTransfer++;
 923               		.loc 3 74 0
 924 0084 FFEF      		ldi r31,-1
 925 0086 CF1A      		sub r12,r31
 926 0088 DF0A      		sbc r13,r31
 927               	.LVL93:
 928 008a 00C0      		rjmp .L71
 929               	.L81:
  78:../../tmk_core/protocol/lufa/LUFA-git/LUFA/Drivers/USB/Core/AVR8/Template/Template_Endpoint_RW.c **** 	return ENDPOINT_RWSTREAM_NoError;
 930               		.loc 3 78 0
 931 008c 80E0      		ldi r24,0
 932               	.LVL94:
 933               	.L69:
 934               	/* epilogue start */
 935               		.loc 3 79 0
 936 008e DF91      		pop r29
 937 0090 CF91      		pop r28
 938 0092 1F91      		pop r17
 939 0094 0F91      		pop r16
 940               	.LVL95:
 941 0096 FF90      		pop r15
 942 0098 EF90      		pop r14
 943               	.LVL96:
 944 009a DF90      		pop r13
 945 009c CF90      		pop r12
 946 009e 0895      		ret
 947               		.cfi_endproc
 948               	.LFE90:
 950               		.section	.text.Endpoint_Write_PStream_LE,"ax",@progbits
 951               	.global	Endpoint_Write_PStream_LE
 953               	Endpoint_Write_PStream_LE:
 954               	.LFB91:
  36:../../tmk_core/protocol/lufa/LUFA-git/LUFA/Drivers/USB/Core/AVR8/Template/Template_Endpoint_RW.c **** {
 955               		.loc 3 36 0
 956               		.cfi_startproc
 957               	.LVL97:
 958 0000 CF92      		push r12
 959               	.LCFI44:
 960               		.cfi_def_cfa_offset 3
 961               		.cfi_offset 12, -2
 962 0002 DF92      		push r13
 963               	.LCFI45:
 964               		.cfi_def_cfa_offset 4
 965               		.cfi_offset 13, -3
 966 0004 EF92      		push r14
 967               	.LCFI46:
 968               		.cfi_def_cfa_offset 5
 969               		.cfi_offset 14, -4
 970 0006 FF92      		push r15
 971               	.LCFI47:
 972               		.cfi_def_cfa_offset 6
 973               		.cfi_offset 15, -5
 974 0008 0F93      		push r16
 975               	.LCFI48:
 976               		.cfi_def_cfa_offset 7
 977               		.cfi_offset 16, -6
 978 000a 1F93      		push r17
 979               	.LCFI49:
 980               		.cfi_def_cfa_offset 8
 981               		.cfi_offset 17, -7
 982 000c CF93      		push r28
 983               	.LCFI50:
 984               		.cfi_def_cfa_offset 9
 985               		.cfi_offset 28, -8
 986 000e DF93      		push r29
 987               	.LCFI51:
 988               		.cfi_def_cfa_offset 10
 989               		.cfi_offset 29, -9
 990               	/* prologue: function */
 991               	/* frame size = 0 */
 992               	/* stack size = 8 */
 993               	.L__stack_usage = 8
 994 0010 7C01      		movw r14,r24
 995 0012 8B01      		movw r16,r22
 996 0014 EA01      		movw r28,r20
 997               	.LVL98:
  41:../../tmk_core/protocol/lufa/LUFA-git/LUFA/Drivers/USB/Core/AVR8/Template/Template_Endpoint_RW.c **** 	if ((ErrorCode = Endpoint_WaitUntilReady()))
 998               		.loc 3 41 0
 999 0016 0E94 0000 		call Endpoint_WaitUntilReady
 1000               	.LVL99:
 1001 001a 8111      		cpse r24,__zero_reg__
 1002 001c 00C0      		rjmp .L83
  44:../../tmk_core/protocol/lufa/LUFA-git/LUFA/Drivers/USB/Core/AVR8/Template/Template_Endpoint_RW.c **** 	if (BytesProcessed != NULL)
 1003               		.loc 3 44 0
 1004 001e 2097      		sbiw r28,0
 1005 0020 01F0      		breq .L84
  46:../../tmk_core/protocol/lufa/LUFA-git/LUFA/Drivers/USB/Core/AVR8/Template/Template_Endpoint_RW.c **** 		Length -= *BytesProcessed;
 1006               		.loc 3 46 0
 1007 0022 8881      		ld r24,Y
 1008 0024 9981      		ldd r25,Y+1
 1009               	.LVL100:
 1010 0026 081B      		sub r16,r24
 1011 0028 190B      		sbc r17,r25
 1012               	.LVL101:
  47:../../tmk_core/protocol/lufa/LUFA-git/LUFA/Drivers/USB/Core/AVR8/Template/Template_Endpoint_RW.c **** 		TEMPLATE_BUFFER_MOVE(DataStream, *BytesProcessed);
 1013               		.loc 3 47 0
 1014 002a E80E      		add r14,r24
 1015 002c F91E      		adc r15,r25
 1016               	.LVL102:
 1017               	.L84:
  37:../../tmk_core/protocol/lufa/LUFA-git/LUFA/Drivers/USB/Core/AVR8/Template/Template_Endpoint_RW.c **** 	uint8_t* DataStream      = ((uint8_t*)Buffer + TEMPLATE_BUFFER_OFFSET(Length));
 1018               		.loc 3 37 0 discriminator 1
 1019 002e C12C      		mov r12,__zero_reg__
 1020 0030 D12C      		mov r13,__zero_reg__
 1021               	.LVL103:
 1022               	.L85:
  50:../../tmk_core/protocol/lufa/LUFA-git/LUFA/Drivers/USB/Core/AVR8/Template/Template_Endpoint_RW.c **** 	while (Length)
 1023               		.loc 3 50 0 discriminator 1
 1024 0032 0115      		cp r16,__zero_reg__
 1025 0034 1105      		cpc r17,__zero_reg__
 1026 0036 01F0      		breq .L93
 1027               	.LBB304:
 1028               	.LBB305:
 360:../../tmk_core/protocol/lufa/LUFA-git/LUFA/Drivers/USB/Core/AVR8/../AVR8/../AVR8/Endpoint_AVR8.h **** 				return ((UEINTX & (1 << RWAL)) ? true : false);
 1029               		.loc 2 360 0
 1030 0038 8091 E800 		lds r24,232
 1031               	.LBE305:
 1032               	.LBE304:
  52:../../tmk_core/protocol/lufa/LUFA-git/LUFA/Drivers/USB/Core/AVR8/Template/Template_Endpoint_RW.c **** 		if (!(Endpoint_IsReadWriteAllowed()))
 1033               		.loc 3 52 0
 1034 003c 85FD      		sbrc r24,5
 1035 003e 00C0      		rjmp .L86
 1036               	.LBB306:
 1037               	.LBB307:
 456:../../tmk_core/protocol/lufa/LUFA-git/LUFA/Drivers/USB/Core/AVR8/../AVR8/../AVR8/Endpoint_AVR8.h **** 					UEINTX &= ~((1 << TXINI) | (1 << FIFOCON));
 1038               		.loc 2 456 0
 1039 0040 8091 E800 		lds r24,232
 1040 0044 8E77      		andi r24,lo8(126)
 1041 0046 8093 E800 		sts 232,r24
 1042               	.LBE307:
 1043               	.LBE306:
  60:../../tmk_core/protocol/lufa/LUFA-git/LUFA/Drivers/USB/Core/AVR8/Template/Template_Endpoint_RW.c **** 			if (BytesProcessed != NULL)
 1044               		.loc 3 60 0
 1045 004a 2097      		sbiw r28,0
 1046 004c 01F0      		breq .L87
  62:../../tmk_core/protocol/lufa/LUFA-git/LUFA/Drivers/USB/Core/AVR8/Template/Template_Endpoint_RW.c **** 				*BytesProcessed += BytesInTransfer;
 1047               		.loc 3 62 0
 1048 004e 8881      		ld r24,Y
 1049 0050 9981      		ldd r25,Y+1
 1050 0052 8C0D      		add r24,r12
 1051 0054 9D1D      		adc r25,r13
 1052 0056 9983      		std Y+1,r25
 1053 0058 8883      		st Y,r24
  63:../../tmk_core/protocol/lufa/LUFA-git/LUFA/Drivers/USB/Core/AVR8/Template/Template_Endpoint_RW.c **** 				return ENDPOINT_RWSTREAM_IncompleteTransfer;
 1054               		.loc 3 63 0
 1055 005a 85E0      		ldi r24,lo8(5)
 1056 005c 00C0      		rjmp .L83
 1057               	.L87:
  66:../../tmk_core/protocol/lufa/LUFA-git/LUFA/Drivers/USB/Core/AVR8/Template/Template_Endpoint_RW.c **** 			if ((ErrorCode = Endpoint_WaitUntilReady()))
 1058               		.loc 3 66 0
 1059 005e 0E94 0000 		call Endpoint_WaitUntilReady
 1060               	.LVL104:
 1061 0062 8823      		tst r24
 1062 0064 01F0      		breq .L85
 1063 0066 00C0      		rjmp .L83
 1064               	.LVL105:
 1065               	.L86:
 1066               	.LBB308:
  71:../../tmk_core/protocol/lufa/LUFA-git/LUFA/Drivers/USB/Core/AVR8/Template/Template_Endpoint_RW.c **** 			TEMPLATE_TRANSFER_BYTE(DataStream);
 1067               		.loc 3 71 0
 1068 0068 F701      		movw r30,r14
 1069               	/* #APP */
 1070               	 ;  71 "../../tmk_core/protocol/lufa/LUFA-git/LUFA/Drivers/USB/Core/AVR8/Template/Template_Endpoint
 1071 006a 8491      		lpm r24, Z
 1072               		
 1073               	 ;  0 "" 2
 1074               	.LVL106:
 1075               	/* #NOAPP */
 1076               	.LBE308:
 1077               	.LBB309:
 1078               	.LBB310:
 554:../../tmk_core/protocol/lufa/LUFA-git/LUFA/Drivers/USB/Core/AVR8/../AVR8/../AVR8/Endpoint_AVR8.h **** 				UEDATX = Data;
 1079               		.loc 2 554 0
 1080 006c 8093 F100 		sts 241,r24
 1081               	.LBE310:
 1082               	.LBE309:
  72:../../tmk_core/protocol/lufa/LUFA-git/LUFA/Drivers/USB/Core/AVR8/Template/Template_Endpoint_RW.c **** 			TEMPLATE_BUFFER_MOVE(DataStream, 1);
 1083               		.loc 3 72 0
 1084 0070 FFEF      		ldi r31,-1
 1085 0072 EF1A      		sub r14,r31
 1086 0074 FF0A      		sbc r15,r31
 1087               	.LVL107:
  73:../../tmk_core/protocol/lufa/LUFA-git/LUFA/Drivers/USB/Core/AVR8/Template/Template_Endpoint_RW.c **** 			Length--;
 1088               		.loc 3 73 0
 1089 0076 0150      		subi r16,1
 1090 0078 1109      		sbc r17,__zero_reg__
 1091               	.LVL108:
  74:../../tmk_core/protocol/lufa/LUFA-git/LUFA/Drivers/USB/Core/AVR8/Template/Template_Endpoint_RW.c **** 			BytesInTransfer++;
 1092               		.loc 3 74 0
 1093 007a 8FEF      		ldi r24,-1
 1094 007c C81A      		sub r12,r24
 1095 007e D80A      		sbc r13,r24
 1096               	.LVL109:
 1097 0080 00C0      		rjmp .L85
 1098               	.LVL110:
 1099               	.L93:
  78:../../tmk_core/protocol/lufa/LUFA-git/LUFA/Drivers/USB/Core/AVR8/Template/Template_Endpoint_RW.c **** 	return ENDPOINT_RWSTREAM_NoError;
 1100               		.loc 3 78 0
 1101 0082 80E0      		ldi r24,0
 1102               	.LVL111:
 1103               	.L83:
 1104               	/* epilogue start */
 1105               		.loc 3 79 0
 1106 0084 DF91      		pop r29
 1107 0086 CF91      		pop r28
 1108               	.LVL112:
 1109 0088 1F91      		pop r17
 1110 008a 0F91      		pop r16
 1111               	.LVL113:
 1112 008c FF90      		pop r15
 1113 008e EF90      		pop r14
 1114               	.LVL114:
 1115 0090 DF90      		pop r13
 1116 0092 CF90      		pop r12
 1117 0094 0895      		ret
 1118               		.cfi_endproc
 1119               	.LFE91:
 1121               		.section	.text.Endpoint_Write_PStream_BE,"ax",@progbits
 1122               	.global	Endpoint_Write_PStream_BE
 1124               	Endpoint_Write_PStream_BE:
 1125               	.LFB92:
  36:../../tmk_core/protocol/lufa/LUFA-git/LUFA/Drivers/USB/Core/AVR8/Template/Template_Endpoint_RW.c **** {
 1126               		.loc 3 36 0
 1127               		.cfi_startproc
 1128               	.LVL115:
 1129 0000 CF92      		push r12
 1130               	.LCFI52:
 1131               		.cfi_def_cfa_offset 3
 1132               		.cfi_offset 12, -2
 1133 0002 DF92      		push r13
 1134               	.LCFI53:
 1135               		.cfi_def_cfa_offset 4
 1136               		.cfi_offset 13, -3
 1137 0004 EF92      		push r14
 1138               	.LCFI54:
 1139               		.cfi_def_cfa_offset 5
 1140               		.cfi_offset 14, -4
 1141 0006 FF92      		push r15
 1142               	.LCFI55:
 1143               		.cfi_def_cfa_offset 6
 1144               		.cfi_offset 15, -5
 1145 0008 0F93      		push r16
 1146               	.LCFI56:
 1147               		.cfi_def_cfa_offset 7
 1148               		.cfi_offset 16, -6
 1149 000a 1F93      		push r17
 1150               	.LCFI57:
 1151               		.cfi_def_cfa_offset 8
 1152               		.cfi_offset 17, -7
 1153 000c CF93      		push r28
 1154               	.LCFI58:
 1155               		.cfi_def_cfa_offset 9
 1156               		.cfi_offset 28, -8
 1157 000e DF93      		push r29
 1158               	.LCFI59:
 1159               		.cfi_def_cfa_offset 10
 1160               		.cfi_offset 29, -9
 1161               	/* prologue: function */
 1162               	/* frame size = 0 */
 1163               	/* stack size = 8 */
 1164               	.L__stack_usage = 8
 1165 0010 6C01      		movw r12,r24
 1166 0012 8B01      		movw r16,r22
 1167 0014 7A01      		movw r14,r20
 1168               	.LVL116:
  41:../../tmk_core/protocol/lufa/LUFA-git/LUFA/Drivers/USB/Core/AVR8/Template/Template_Endpoint_RW.c **** 	if ((ErrorCode = Endpoint_WaitUntilReady()))
 1169               		.loc 3 41 0
 1170 0016 0E94 0000 		call Endpoint_WaitUntilReady
 1171               	.LVL117:
 1172 001a 8111      		cpse r24,__zero_reg__
 1173 001c 00C0      		rjmp .L95
  37:../../tmk_core/protocol/lufa/LUFA-git/LUFA/Drivers/USB/Core/AVR8/Template/Template_Endpoint_RW.c **** 	uint8_t* DataStream      = ((uint8_t*)Buffer + TEMPLATE_BUFFER_OFFSET(Length));
 1174               		.loc 3 37 0
 1175 001e E801      		movw r28,r16
 1176 0020 2197      		sbiw r28,1
 1177               	.LVL118:
 1178 0022 CC0D      		add r28,r12
 1179 0024 DD1D      		adc r29,r13
 1180               	.LVL119:
  44:../../tmk_core/protocol/lufa/LUFA-git/LUFA/Drivers/USB/Core/AVR8/Template/Template_Endpoint_RW.c **** 	if (BytesProcessed != NULL)
 1181               		.loc 3 44 0
 1182 0026 E114      		cp r14,__zero_reg__
 1183 0028 F104      		cpc r15,__zero_reg__
 1184 002a 01F0      		breq .L96
  46:../../tmk_core/protocol/lufa/LUFA-git/LUFA/Drivers/USB/Core/AVR8/Template/Template_Endpoint_RW.c **** 		Length -= *BytesProcessed;
 1185               		.loc 3 46 0
 1186 002c F701      		movw r30,r14
 1187 002e 8081      		ld r24,Z
 1188 0030 9181      		ldd r25,Z+1
 1189               	.LVL120:
 1190 0032 081B      		sub r16,r24
 1191 0034 190B      		sbc r17,r25
 1192               	.LVL121:
  47:../../tmk_core/protocol/lufa/LUFA-git/LUFA/Drivers/USB/Core/AVR8/Template/Template_Endpoint_RW.c **** 		TEMPLATE_BUFFER_MOVE(DataStream, *BytesProcessed);
 1193               		.loc 3 47 0
 1194 0036 C81B      		sub r28,r24
 1195 0038 D90B      		sbc r29,r25
 1196               	.LVL122:
 1197               	.L96:
  36:../../tmk_core/protocol/lufa/LUFA-git/LUFA/Drivers/USB/Core/AVR8/Template/Template_Endpoint_RW.c **** {
 1198               		.loc 3 36 0 discriminator 1
 1199 003a C12C      		mov r12,__zero_reg__
 1200 003c D12C      		mov r13,__zero_reg__
 1201               	.LVL123:
 1202               	.L97:
  50:../../tmk_core/protocol/lufa/LUFA-git/LUFA/Drivers/USB/Core/AVR8/Template/Template_Endpoint_RW.c **** 	while (Length)
 1203               		.loc 3 50 0 discriminator 1
 1204 003e 0115      		cp r16,__zero_reg__
 1205 0040 1105      		cpc r17,__zero_reg__
 1206 0042 01F0      		breq .L107
 1207               	.LBB311:
 1208               	.LBB312:
 360:../../tmk_core/protocol/lufa/LUFA-git/LUFA/Drivers/USB/Core/AVR8/../AVR8/../AVR8/Endpoint_AVR8.h **** 				return ((UEINTX & (1 << RWAL)) ? true : false);
 1209               		.loc 2 360 0
 1210 0044 8091 E800 		lds r24,232
 1211               	.LBE312:
 1212               	.LBE311:
  52:../../tmk_core/protocol/lufa/LUFA-git/LUFA/Drivers/USB/Core/AVR8/Template/Template_Endpoint_RW.c **** 		if (!(Endpoint_IsReadWriteAllowed()))
 1213               		.loc 3 52 0
 1214 0048 85FD      		sbrc r24,5
 1215 004a 00C0      		rjmp .L98
 1216               	.LBB313:
 1217               	.LBB314:
 456:../../tmk_core/protocol/lufa/LUFA-git/LUFA/Drivers/USB/Core/AVR8/../AVR8/../AVR8/Endpoint_AVR8.h **** 					UEINTX &= ~((1 << TXINI) | (1 << FIFOCON));
 1218               		.loc 2 456 0
 1219 004c 8091 E800 		lds r24,232
 1220 0050 8E77      		andi r24,lo8(126)
 1221 0052 8093 E800 		sts 232,r24
 1222               	.LBE314:
 1223               	.LBE313:
  60:../../tmk_core/protocol/lufa/LUFA-git/LUFA/Drivers/USB/Core/AVR8/Template/Template_Endpoint_RW.c **** 			if (BytesProcessed != NULL)
 1224               		.loc 3 60 0
 1225 0056 E114      		cp r14,__zero_reg__
 1226 0058 F104      		cpc r15,__zero_reg__
 1227 005a 01F0      		breq .L99
  62:../../tmk_core/protocol/lufa/LUFA-git/LUFA/Drivers/USB/Core/AVR8/Template/Template_Endpoint_RW.c **** 				*BytesProcessed += BytesInTransfer;
 1228               		.loc 3 62 0
 1229 005c F701      		movw r30,r14
 1230 005e 8081      		ld r24,Z
 1231 0060 9181      		ldd r25,Z+1
 1232 0062 8C0D      		add r24,r12
 1233 0064 9D1D      		adc r25,r13
 1234 0066 9183      		std Z+1,r25
 1235 0068 8083      		st Z,r24
  63:../../tmk_core/protocol/lufa/LUFA-git/LUFA/Drivers/USB/Core/AVR8/Template/Template_Endpoint_RW.c **** 				return ENDPOINT_RWSTREAM_IncompleteTransfer;
 1236               		.loc 3 63 0
 1237 006a 85E0      		ldi r24,lo8(5)
 1238 006c 00C0      		rjmp .L95
 1239               	.L99:
  66:../../tmk_core/protocol/lufa/LUFA-git/LUFA/Drivers/USB/Core/AVR8/Template/Template_Endpoint_RW.c **** 			if ((ErrorCode = Endpoint_WaitUntilReady()))
 1240               		.loc 3 66 0
 1241 006e 0E94 0000 		call Endpoint_WaitUntilReady
 1242               	.LVL124:
 1243 0072 8823      		tst r24
 1244 0074 01F0      		breq .L97
 1245 0076 00C0      		rjmp .L95
 1246               	.LVL125:
 1247               	.L98:
 1248               	.LBB315:
  71:../../tmk_core/protocol/lufa/LUFA-git/LUFA/Drivers/USB/Core/AVR8/Template/Template_Endpoint_RW.c **** 			TEMPLATE_TRANSFER_BYTE(DataStream);
 1249               		.loc 3 71 0
 1250 0078 FE01      		movw r30,r28
 1251               	/* #APP */
 1252               	 ;  71 "../../tmk_core/protocol/lufa/LUFA-git/LUFA/Drivers/USB/Core/AVR8/Template/Template_Endpoint
 1253 007a 8491      		lpm r24, Z
 1254               		
 1255               	 ;  0 "" 2
 1256               	.LVL126:
 1257               	/* #NOAPP */
 1258               	.LBE315:
 1259               	.LBB316:
 1260               	.LBB317:
 554:../../tmk_core/protocol/lufa/LUFA-git/LUFA/Drivers/USB/Core/AVR8/../AVR8/../AVR8/Endpoint_AVR8.h **** 				UEDATX = Data;
 1261               		.loc 2 554 0
 1262 007c 8093 F100 		sts 241,r24
 1263               	.LBE317:
 1264               	.LBE316:
  72:../../tmk_core/protocol/lufa/LUFA-git/LUFA/Drivers/USB/Core/AVR8/Template/Template_Endpoint_RW.c **** 			TEMPLATE_BUFFER_MOVE(DataStream, 1);
 1265               		.loc 3 72 0
 1266 0080 2197      		sbiw r28,1
 1267               	.LVL127:
  73:../../tmk_core/protocol/lufa/LUFA-git/LUFA/Drivers/USB/Core/AVR8/Template/Template_Endpoint_RW.c **** 			Length--;
 1268               		.loc 3 73 0
 1269 0082 0150      		subi r16,1
 1270 0084 1109      		sbc r17,__zero_reg__
 1271               	.LVL128:
  74:../../tmk_core/protocol/lufa/LUFA-git/LUFA/Drivers/USB/Core/AVR8/Template/Template_Endpoint_RW.c **** 			BytesInTransfer++;
 1272               		.loc 3 74 0
 1273 0086 FFEF      		ldi r31,-1
 1274 0088 CF1A      		sub r12,r31
 1275 008a DF0A      		sbc r13,r31
 1276               	.LVL129:
 1277 008c 00C0      		rjmp .L97
 1278               	.LVL130:
 1279               	.L107:
  78:../../tmk_core/protocol/lufa/LUFA-git/LUFA/Drivers/USB/Core/AVR8/Template/Template_Endpoint_RW.c **** 	return ENDPOINT_RWSTREAM_NoError;
 1280               		.loc 3 78 0
 1281 008e 80E0      		ldi r24,0
 1282               	.LVL131:
 1283               	.L95:
 1284               	/* epilogue start */
 1285               		.loc 3 79 0
 1286 0090 DF91      		pop r29
 1287 0092 CF91      		pop r28
 1288 0094 1F91      		pop r17
 1289 0096 0F91      		pop r16
 1290               	.LVL132:
 1291 0098 FF90      		pop r15
 1292 009a EF90      		pop r14
 1293               	.LVL133:
 1294 009c DF90      		pop r13
 1295 009e CF90      		pop r12
 1296 00a0 0895      		ret
 1297               		.cfi_endproc
 1298               	.LFE92:
 1300               		.section	.text.Endpoint_Write_EStream_LE,"ax",@progbits
 1301               	.global	Endpoint_Write_EStream_LE
 1303               	Endpoint_Write_EStream_LE:
 1304               	.LFB93:
  36:../../tmk_core/protocol/lufa/LUFA-git/LUFA/Drivers/USB/Core/AVR8/Template/Template_Endpoint_RW.c **** {
 1305               		.loc 3 36 0
 1306               		.cfi_startproc
 1307               	.LVL134:
 1308 0000 CF92      		push r12
 1309               	.LCFI60:
 1310               		.cfi_def_cfa_offset 3
 1311               		.cfi_offset 12, -2
 1312 0002 DF92      		push r13
 1313               	.LCFI61:
 1314               		.cfi_def_cfa_offset 4
 1315               		.cfi_offset 13, -3
 1316 0004 EF92      		push r14
 1317               	.LCFI62:
 1318               		.cfi_def_cfa_offset 5
 1319               		.cfi_offset 14, -4
 1320 0006 FF92      		push r15
 1321               	.LCFI63:
 1322               		.cfi_def_cfa_offset 6
 1323               		.cfi_offset 15, -5
 1324 0008 0F93      		push r16
 1325               	.LCFI64:
 1326               		.cfi_def_cfa_offset 7
 1327               		.cfi_offset 16, -6
 1328 000a 1F93      		push r17
 1329               	.LCFI65:
 1330               		.cfi_def_cfa_offset 8
 1331               		.cfi_offset 17, -7
 1332 000c CF93      		push r28
 1333               	.LCFI66:
 1334               		.cfi_def_cfa_offset 9
 1335               		.cfi_offset 28, -8
 1336 000e DF93      		push r29
 1337               	.LCFI67:
 1338               		.cfi_def_cfa_offset 10
 1339               		.cfi_offset 29, -9
 1340               	/* prologue: function */
 1341               	/* frame size = 0 */
 1342               	/* stack size = 8 */
 1343               	.L__stack_usage = 8
 1344 0010 7C01      		movw r14,r24
 1345 0012 8B01      		movw r16,r22
 1346 0014 EA01      		movw r28,r20
 1347               	.LVL135:
  41:../../tmk_core/protocol/lufa/LUFA-git/LUFA/Drivers/USB/Core/AVR8/Template/Template_Endpoint_RW.c **** 	if ((ErrorCode = Endpoint_WaitUntilReady()))
 1348               		.loc 3 41 0
 1349 0016 0E94 0000 		call Endpoint_WaitUntilReady
 1350               	.LVL136:
 1351 001a 8111      		cpse r24,__zero_reg__
 1352 001c 00C0      		rjmp .L109
  44:../../tmk_core/protocol/lufa/LUFA-git/LUFA/Drivers/USB/Core/AVR8/Template/Template_Endpoint_RW.c **** 	if (BytesProcessed != NULL)
 1353               		.loc 3 44 0
 1354 001e 2097      		sbiw r28,0
 1355 0020 01F0      		breq .L110
  46:../../tmk_core/protocol/lufa/LUFA-git/LUFA/Drivers/USB/Core/AVR8/Template/Template_Endpoint_RW.c **** 		Length -= *BytesProcessed;
 1356               		.loc 3 46 0
 1357 0022 8881      		ld r24,Y
 1358 0024 9981      		ldd r25,Y+1
 1359               	.LVL137:
 1360 0026 081B      		sub r16,r24
 1361 0028 190B      		sbc r17,r25
 1362               	.LVL138:
  47:../../tmk_core/protocol/lufa/LUFA-git/LUFA/Drivers/USB/Core/AVR8/Template/Template_Endpoint_RW.c **** 		TEMPLATE_BUFFER_MOVE(DataStream, *BytesProcessed);
 1363               		.loc 3 47 0
 1364 002a E80E      		add r14,r24
 1365 002c F91E      		adc r15,r25
 1366               	.LVL139:
 1367               	.L110:
  37:../../tmk_core/protocol/lufa/LUFA-git/LUFA/Drivers/USB/Core/AVR8/Template/Template_Endpoint_RW.c **** 	uint8_t* DataStream      = ((uint8_t*)Buffer + TEMPLATE_BUFFER_OFFSET(Length));
 1368               		.loc 3 37 0 discriminator 1
 1369 002e C12C      		mov r12,__zero_reg__
 1370 0030 D12C      		mov r13,__zero_reg__
 1371               	.LVL140:
 1372               	.L111:
  50:../../tmk_core/protocol/lufa/LUFA-git/LUFA/Drivers/USB/Core/AVR8/Template/Template_Endpoint_RW.c **** 	while (Length)
 1373               		.loc 3 50 0 discriminator 1
 1374 0032 0115      		cp r16,__zero_reg__
 1375 0034 1105      		cpc r17,__zero_reg__
 1376 0036 01F0      		breq .L119
 1377               	.LBB318:
 1378               	.LBB319:
 360:../../tmk_core/protocol/lufa/LUFA-git/LUFA/Drivers/USB/Core/AVR8/../AVR8/../AVR8/Endpoint_AVR8.h **** 				return ((UEINTX & (1 << RWAL)) ? true : false);
 1379               		.loc 2 360 0
 1380 0038 8091 E800 		lds r24,232
 1381               	.LBE319:
 1382               	.LBE318:
  52:../../tmk_core/protocol/lufa/LUFA-git/LUFA/Drivers/USB/Core/AVR8/Template/Template_Endpoint_RW.c **** 		if (!(Endpoint_IsReadWriteAllowed()))
 1383               		.loc 3 52 0
 1384 003c 85FD      		sbrc r24,5
 1385 003e 00C0      		rjmp .L112
 1386               	.LBB320:
 1387               	.LBB321:
 456:../../tmk_core/protocol/lufa/LUFA-git/LUFA/Drivers/USB/Core/AVR8/../AVR8/../AVR8/Endpoint_AVR8.h **** 					UEINTX &= ~((1 << TXINI) | (1 << FIFOCON));
 1388               		.loc 2 456 0
 1389 0040 8091 E800 		lds r24,232
 1390 0044 8E77      		andi r24,lo8(126)
 1391 0046 8093 E800 		sts 232,r24
 1392               	.LBE321:
 1393               	.LBE320:
  60:../../tmk_core/protocol/lufa/LUFA-git/LUFA/Drivers/USB/Core/AVR8/Template/Template_Endpoint_RW.c **** 			if (BytesProcessed != NULL)
 1394               		.loc 3 60 0
 1395 004a 2097      		sbiw r28,0
 1396 004c 01F0      		breq .L113
  62:../../tmk_core/protocol/lufa/LUFA-git/LUFA/Drivers/USB/Core/AVR8/Template/Template_Endpoint_RW.c **** 				*BytesProcessed += BytesInTransfer;
 1397               		.loc 3 62 0
 1398 004e 8881      		ld r24,Y
 1399 0050 9981      		ldd r25,Y+1
 1400 0052 8C0D      		add r24,r12
 1401 0054 9D1D      		adc r25,r13
 1402 0056 9983      		std Y+1,r25
 1403 0058 8883      		st Y,r24
  63:../../tmk_core/protocol/lufa/LUFA-git/LUFA/Drivers/USB/Core/AVR8/Template/Template_Endpoint_RW.c **** 				return ENDPOINT_RWSTREAM_IncompleteTransfer;
 1404               		.loc 3 63 0
 1405 005a 85E0      		ldi r24,lo8(5)
 1406 005c 00C0      		rjmp .L109
 1407               	.L113:
  66:../../tmk_core/protocol/lufa/LUFA-git/LUFA/Drivers/USB/Core/AVR8/Template/Template_Endpoint_RW.c **** 			if ((ErrorCode = Endpoint_WaitUntilReady()))
 1408               		.loc 3 66 0
 1409 005e 0E94 0000 		call Endpoint_WaitUntilReady
 1410               	.LVL141:
 1411 0062 8823      		tst r24
 1412 0064 01F0      		breq .L111
 1413 0066 00C0      		rjmp .L109
 1414               	.LVL142:
 1415               	.L112:
  71:../../tmk_core/protocol/lufa/LUFA-git/LUFA/Drivers/USB/Core/AVR8/Template/Template_Endpoint_RW.c **** 			TEMPLATE_TRANSFER_BYTE(DataStream);
 1416               		.loc 3 71 0
 1417 0068 C701      		movw r24,r14
 1418 006a 0E94 0000 		call __eerd_byte_m32u4
 1419               	.LVL143:
 1420               	.LBB322:
 1421               	.LBB323:
 554:../../tmk_core/protocol/lufa/LUFA-git/LUFA/Drivers/USB/Core/AVR8/../AVR8/../AVR8/Endpoint_AVR8.h **** 				UEDATX = Data;
 1422               		.loc 2 554 0
 1423 006e 8093 F100 		sts 241,r24
 1424               	.LBE323:
 1425               	.LBE322:
  72:../../tmk_core/protocol/lufa/LUFA-git/LUFA/Drivers/USB/Core/AVR8/Template/Template_Endpoint_RW.c **** 			TEMPLATE_BUFFER_MOVE(DataStream, 1);
 1426               		.loc 3 72 0
 1427 0072 8FEF      		ldi r24,-1
 1428 0074 E81A      		sub r14,r24
 1429 0076 F80A      		sbc r15,r24
 1430               	.LVL144:
  73:../../tmk_core/protocol/lufa/LUFA-git/LUFA/Drivers/USB/Core/AVR8/Template/Template_Endpoint_RW.c **** 			Length--;
 1431               		.loc 3 73 0
 1432 0078 0150      		subi r16,1
 1433 007a 1109      		sbc r17,__zero_reg__
 1434               	.LVL145:
  74:../../tmk_core/protocol/lufa/LUFA-git/LUFA/Drivers/USB/Core/AVR8/Template/Template_Endpoint_RW.c **** 			BytesInTransfer++;
 1435               		.loc 3 74 0
 1436 007c 8FEF      		ldi r24,-1
 1437 007e C81A      		sub r12,r24
 1438 0080 D80A      		sbc r13,r24
 1439               	.LVL146:
 1440 0082 00C0      		rjmp .L111
 1441               	.LVL147:
 1442               	.L119:
  78:../../tmk_core/protocol/lufa/LUFA-git/LUFA/Drivers/USB/Core/AVR8/Template/Template_Endpoint_RW.c **** 	return ENDPOINT_RWSTREAM_NoError;
 1443               		.loc 3 78 0
 1444 0084 80E0      		ldi r24,0
 1445               	.LVL148:
 1446               	.L109:
 1447               	/* epilogue start */
 1448               		.loc 3 79 0
 1449 0086 DF91      		pop r29
 1450 0088 CF91      		pop r28
 1451               	.LVL149:
 1452 008a 1F91      		pop r17
 1453 008c 0F91      		pop r16
 1454               	.LVL150:
 1455 008e FF90      		pop r15
 1456 0090 EF90      		pop r14
 1457               	.LVL151:
 1458 0092 DF90      		pop r13
 1459 0094 CF90      		pop r12
 1460 0096 0895      		ret
 1461               		.cfi_endproc
 1462               	.LFE93:
 1464               		.section	.text.Endpoint_Write_EStream_BE,"ax",@progbits
 1465               	.global	Endpoint_Write_EStream_BE
 1467               	Endpoint_Write_EStream_BE:
 1468               	.LFB94:
  36:../../tmk_core/protocol/lufa/LUFA-git/LUFA/Drivers/USB/Core/AVR8/Template/Template_Endpoint_RW.c **** {
 1469               		.loc 3 36 0
 1470               		.cfi_startproc
 1471               	.LVL152:
 1472 0000 CF92      		push r12
 1473               	.LCFI68:
 1474               		.cfi_def_cfa_offset 3
 1475               		.cfi_offset 12, -2
 1476 0002 DF92      		push r13
 1477               	.LCFI69:
 1478               		.cfi_def_cfa_offset 4
 1479               		.cfi_offset 13, -3
 1480 0004 EF92      		push r14
 1481               	.LCFI70:
 1482               		.cfi_def_cfa_offset 5
 1483               		.cfi_offset 14, -4
 1484 0006 FF92      		push r15
 1485               	.LCFI71:
 1486               		.cfi_def_cfa_offset 6
 1487               		.cfi_offset 15, -5
 1488 0008 0F93      		push r16
 1489               	.LCFI72:
 1490               		.cfi_def_cfa_offset 7
 1491               		.cfi_offset 16, -6
 1492 000a 1F93      		push r17
 1493               	.LCFI73:
 1494               		.cfi_def_cfa_offset 8
 1495               		.cfi_offset 17, -7
 1496 000c CF93      		push r28
 1497               	.LCFI74:
 1498               		.cfi_def_cfa_offset 9
 1499               		.cfi_offset 28, -8
 1500 000e DF93      		push r29
 1501               	.LCFI75:
 1502               		.cfi_def_cfa_offset 10
 1503               		.cfi_offset 29, -9
 1504               	/* prologue: function */
 1505               	/* frame size = 0 */
 1506               	/* stack size = 8 */
 1507               	.L__stack_usage = 8
 1508 0010 6C01      		movw r12,r24
 1509 0012 8B01      		movw r16,r22
 1510 0014 7A01      		movw r14,r20
 1511               	.LVL153:
  41:../../tmk_core/protocol/lufa/LUFA-git/LUFA/Drivers/USB/Core/AVR8/Template/Template_Endpoint_RW.c **** 	if ((ErrorCode = Endpoint_WaitUntilReady()))
 1512               		.loc 3 41 0
 1513 0016 0E94 0000 		call Endpoint_WaitUntilReady
 1514               	.LVL154:
 1515 001a 8111      		cpse r24,__zero_reg__
 1516 001c 00C0      		rjmp .L121
  37:../../tmk_core/protocol/lufa/LUFA-git/LUFA/Drivers/USB/Core/AVR8/Template/Template_Endpoint_RW.c **** 	uint8_t* DataStream      = ((uint8_t*)Buffer + TEMPLATE_BUFFER_OFFSET(Length));
 1517               		.loc 3 37 0
 1518 001e E801      		movw r28,r16
 1519 0020 2197      		sbiw r28,1
 1520               	.LVL155:
 1521 0022 CC0D      		add r28,r12
 1522 0024 DD1D      		adc r29,r13
 1523               	.LVL156:
  44:../../tmk_core/protocol/lufa/LUFA-git/LUFA/Drivers/USB/Core/AVR8/Template/Template_Endpoint_RW.c **** 	if (BytesProcessed != NULL)
 1524               		.loc 3 44 0
 1525 0026 E114      		cp r14,__zero_reg__
 1526 0028 F104      		cpc r15,__zero_reg__
 1527 002a 01F0      		breq .L122
  46:../../tmk_core/protocol/lufa/LUFA-git/LUFA/Drivers/USB/Core/AVR8/Template/Template_Endpoint_RW.c **** 		Length -= *BytesProcessed;
 1528               		.loc 3 46 0
 1529 002c F701      		movw r30,r14
 1530 002e 8081      		ld r24,Z
 1531 0030 9181      		ldd r25,Z+1
 1532               	.LVL157:
 1533 0032 081B      		sub r16,r24
 1534 0034 190B      		sbc r17,r25
 1535               	.LVL158:
  47:../../tmk_core/protocol/lufa/LUFA-git/LUFA/Drivers/USB/Core/AVR8/Template/Template_Endpoint_RW.c **** 		TEMPLATE_BUFFER_MOVE(DataStream, *BytesProcessed);
 1536               		.loc 3 47 0
 1537 0036 C81B      		sub r28,r24
 1538 0038 D90B      		sbc r29,r25
 1539               	.LVL159:
 1540               	.L122:
  36:../../tmk_core/protocol/lufa/LUFA-git/LUFA/Drivers/USB/Core/AVR8/Template/Template_Endpoint_RW.c **** {
 1541               		.loc 3 36 0 discriminator 1
 1542 003a C12C      		mov r12,__zero_reg__
 1543 003c D12C      		mov r13,__zero_reg__
 1544               	.LVL160:
 1545               	.L123:
  50:../../tmk_core/protocol/lufa/LUFA-git/LUFA/Drivers/USB/Core/AVR8/Template/Template_Endpoint_RW.c **** 	while (Length)
 1546               		.loc 3 50 0 discriminator 1
 1547 003e 0115      		cp r16,__zero_reg__
 1548 0040 1105      		cpc r17,__zero_reg__
 1549 0042 01F0      		breq .L133
 1550               	.LBB324:
 1551               	.LBB325:
 360:../../tmk_core/protocol/lufa/LUFA-git/LUFA/Drivers/USB/Core/AVR8/../AVR8/../AVR8/Endpoint_AVR8.h **** 				return ((UEINTX & (1 << RWAL)) ? true : false);
 1552               		.loc 2 360 0
 1553 0044 8091 E800 		lds r24,232
 1554               	.LBE325:
 1555               	.LBE324:
  52:../../tmk_core/protocol/lufa/LUFA-git/LUFA/Drivers/USB/Core/AVR8/Template/Template_Endpoint_RW.c **** 		if (!(Endpoint_IsReadWriteAllowed()))
 1556               		.loc 3 52 0
 1557 0048 85FD      		sbrc r24,5
 1558 004a 00C0      		rjmp .L124
 1559               	.LBB326:
 1560               	.LBB327:
 456:../../tmk_core/protocol/lufa/LUFA-git/LUFA/Drivers/USB/Core/AVR8/../AVR8/../AVR8/Endpoint_AVR8.h **** 					UEINTX &= ~((1 << TXINI) | (1 << FIFOCON));
 1561               		.loc 2 456 0
 1562 004c 8091 E800 		lds r24,232
 1563 0050 8E77      		andi r24,lo8(126)
 1564 0052 8093 E800 		sts 232,r24
 1565               	.LBE327:
 1566               	.LBE326:
  60:../../tmk_core/protocol/lufa/LUFA-git/LUFA/Drivers/USB/Core/AVR8/Template/Template_Endpoint_RW.c **** 			if (BytesProcessed != NULL)
 1567               		.loc 3 60 0
 1568 0056 E114      		cp r14,__zero_reg__
 1569 0058 F104      		cpc r15,__zero_reg__
 1570 005a 01F0      		breq .L125
  62:../../tmk_core/protocol/lufa/LUFA-git/LUFA/Drivers/USB/Core/AVR8/Template/Template_Endpoint_RW.c **** 				*BytesProcessed += BytesInTransfer;
 1571               		.loc 3 62 0
 1572 005c F701      		movw r30,r14
 1573 005e 8081      		ld r24,Z
 1574 0060 9181      		ldd r25,Z+1
 1575 0062 8C0D      		add r24,r12
 1576 0064 9D1D      		adc r25,r13
 1577 0066 9183      		std Z+1,r25
 1578 0068 8083      		st Z,r24
  63:../../tmk_core/protocol/lufa/LUFA-git/LUFA/Drivers/USB/Core/AVR8/Template/Template_Endpoint_RW.c **** 				return ENDPOINT_RWSTREAM_IncompleteTransfer;
 1579               		.loc 3 63 0
 1580 006a 85E0      		ldi r24,lo8(5)
 1581 006c 00C0      		rjmp .L121
 1582               	.L125:
  66:../../tmk_core/protocol/lufa/LUFA-git/LUFA/Drivers/USB/Core/AVR8/Template/Template_Endpoint_RW.c **** 			if ((ErrorCode = Endpoint_WaitUntilReady()))
 1583               		.loc 3 66 0
 1584 006e 0E94 0000 		call Endpoint_WaitUntilReady
 1585               	.LVL161:
 1586 0072 8823      		tst r24
 1587 0074 01F0      		breq .L123
 1588 0076 00C0      		rjmp .L121
 1589               	.LVL162:
 1590               	.L124:
  71:../../tmk_core/protocol/lufa/LUFA-git/LUFA/Drivers/USB/Core/AVR8/Template/Template_Endpoint_RW.c **** 			TEMPLATE_TRANSFER_BYTE(DataStream);
 1591               		.loc 3 71 0
 1592 0078 CE01      		movw r24,r28
 1593 007a 0E94 0000 		call __eerd_byte_m32u4
 1594               	.LVL163:
 1595               	.LBB328:
 1596               	.LBB329:
 554:../../tmk_core/protocol/lufa/LUFA-git/LUFA/Drivers/USB/Core/AVR8/../AVR8/../AVR8/Endpoint_AVR8.h **** 				UEDATX = Data;
 1597               		.loc 2 554 0
 1598 007e 8093 F100 		sts 241,r24
 1599               	.LBE329:
 1600               	.LBE328:
  72:../../tmk_core/protocol/lufa/LUFA-git/LUFA/Drivers/USB/Core/AVR8/Template/Template_Endpoint_RW.c **** 			TEMPLATE_BUFFER_MOVE(DataStream, 1);
 1601               		.loc 3 72 0
 1602 0082 2197      		sbiw r28,1
 1603               	.LVL164:
  73:../../tmk_core/protocol/lufa/LUFA-git/LUFA/Drivers/USB/Core/AVR8/Template/Template_Endpoint_RW.c **** 			Length--;
 1604               		.loc 3 73 0
 1605 0084 0150      		subi r16,1
 1606 0086 1109      		sbc r17,__zero_reg__
 1607               	.LVL165:
  74:../../tmk_core/protocol/lufa/LUFA-git/LUFA/Drivers/USB/Core/AVR8/Template/Template_Endpoint_RW.c **** 			BytesInTransfer++;
 1608               		.loc 3 74 0
 1609 0088 FFEF      		ldi r31,-1
 1610 008a CF1A      		sub r12,r31
 1611 008c DF0A      		sbc r13,r31
 1612               	.LVL166:
 1613 008e 00C0      		rjmp .L123
 1614               	.LVL167:
 1615               	.L133:
  78:../../tmk_core/protocol/lufa/LUFA-git/LUFA/Drivers/USB/Core/AVR8/Template/Template_Endpoint_RW.c **** 	return ENDPOINT_RWSTREAM_NoError;
 1616               		.loc 3 78 0
 1617 0090 80E0      		ldi r24,0
 1618               	.LVL168:
 1619               	.L121:
 1620               	/* epilogue start */
 1621               		.loc 3 79 0
 1622 0092 DF91      		pop r29
 1623 0094 CF91      		pop r28
 1624 0096 1F91      		pop r17
 1625 0098 0F91      		pop r16
 1626               	.LVL169:
 1627 009a FF90      		pop r15
 1628 009c EF90      		pop r14
 1629               	.LVL170:
 1630 009e DF90      		pop r13
 1631 00a0 CF90      		pop r12
 1632 00a2 0895      		ret
 1633               		.cfi_endproc
 1634               	.LFE94:
 1636               		.section	.text.Endpoint_Read_EStream_LE,"ax",@progbits
 1637               	.global	Endpoint_Read_EStream_LE
 1639               	Endpoint_Read_EStream_LE:
 1640               	.LFB95:
  36:../../tmk_core/protocol/lufa/LUFA-git/LUFA/Drivers/USB/Core/AVR8/Template/Template_Endpoint_RW.c **** {
 1641               		.loc 3 36 0
 1642               		.cfi_startproc
 1643               	.LVL171:
 1644 0000 CF92      		push r12
 1645               	.LCFI76:
 1646               		.cfi_def_cfa_offset 3
 1647               		.cfi_offset 12, -2
 1648 0002 DF92      		push r13
 1649               	.LCFI77:
 1650               		.cfi_def_cfa_offset 4
 1651               		.cfi_offset 13, -3
 1652 0004 EF92      		push r14
 1653               	.LCFI78:
 1654               		.cfi_def_cfa_offset 5
 1655               		.cfi_offset 14, -4
 1656 0006 FF92      		push r15
 1657               	.LCFI79:
 1658               		.cfi_def_cfa_offset 6
 1659               		.cfi_offset 15, -5
 1660 0008 0F93      		push r16
 1661               	.LCFI80:
 1662               		.cfi_def_cfa_offset 7
 1663               		.cfi_offset 16, -6
 1664 000a 1F93      		push r17
 1665               	.LCFI81:
 1666               		.cfi_def_cfa_offset 8
 1667               		.cfi_offset 17, -7
 1668 000c CF93      		push r28
 1669               	.LCFI82:
 1670               		.cfi_def_cfa_offset 9
 1671               		.cfi_offset 28, -8
 1672 000e DF93      		push r29
 1673               	.LCFI83:
 1674               		.cfi_def_cfa_offset 10
 1675               		.cfi_offset 29, -9
 1676               	/* prologue: function */
 1677               	/* frame size = 0 */
 1678               	/* stack size = 8 */
 1679               	.L__stack_usage = 8
 1680 0010 7C01      		movw r14,r24
 1681 0012 8B01      		movw r16,r22
 1682 0014 EA01      		movw r28,r20
 1683               	.LVL172:
  41:../../tmk_core/protocol/lufa/LUFA-git/LUFA/Drivers/USB/Core/AVR8/Template/Template_Endpoint_RW.c **** 	if ((ErrorCode = Endpoint_WaitUntilReady()))
 1684               		.loc 3 41 0
 1685 0016 0E94 0000 		call Endpoint_WaitUntilReady
 1686               	.LVL173:
 1687 001a 8111      		cpse r24,__zero_reg__
 1688 001c 00C0      		rjmp .L135
  44:../../tmk_core/protocol/lufa/LUFA-git/LUFA/Drivers/USB/Core/AVR8/Template/Template_Endpoint_RW.c **** 	if (BytesProcessed != NULL)
 1689               		.loc 3 44 0
 1690 001e 2097      		sbiw r28,0
 1691 0020 01F0      		breq .L136
  46:../../tmk_core/protocol/lufa/LUFA-git/LUFA/Drivers/USB/Core/AVR8/Template/Template_Endpoint_RW.c **** 		Length -= *BytesProcessed;
 1692               		.loc 3 46 0
 1693 0022 8881      		ld r24,Y
 1694 0024 9981      		ldd r25,Y+1
 1695               	.LVL174:
 1696 0026 081B      		sub r16,r24
 1697 0028 190B      		sbc r17,r25
 1698               	.LVL175:
  47:../../tmk_core/protocol/lufa/LUFA-git/LUFA/Drivers/USB/Core/AVR8/Template/Template_Endpoint_RW.c **** 		TEMPLATE_BUFFER_MOVE(DataStream, *BytesProcessed);
 1699               		.loc 3 47 0
 1700 002a E80E      		add r14,r24
 1701 002c F91E      		adc r15,r25
 1702               	.LVL176:
 1703               	.L136:
  37:../../tmk_core/protocol/lufa/LUFA-git/LUFA/Drivers/USB/Core/AVR8/Template/Template_Endpoint_RW.c **** 	uint8_t* DataStream      = ((uint8_t*)Buffer + TEMPLATE_BUFFER_OFFSET(Length));
 1704               		.loc 3 37 0 discriminator 1
 1705 002e C12C      		mov r12,__zero_reg__
 1706 0030 D12C      		mov r13,__zero_reg__
 1707               	.LVL177:
 1708               	.L137:
  50:../../tmk_core/protocol/lufa/LUFA-git/LUFA/Drivers/USB/Core/AVR8/Template/Template_Endpoint_RW.c **** 	while (Length)
 1709               		.loc 3 50 0 discriminator 1
 1710 0032 0115      		cp r16,__zero_reg__
 1711 0034 1105      		cpc r17,__zero_reg__
 1712 0036 01F0      		breq .L145
 1713               	.LBB330:
 1714               	.LBB331:
 360:../../tmk_core/protocol/lufa/LUFA-git/LUFA/Drivers/USB/Core/AVR8/../AVR8/../AVR8/Endpoint_AVR8.h **** 				return ((UEINTX & (1 << RWAL)) ? true : false);
 1715               		.loc 2 360 0
 1716 0038 8091 E800 		lds r24,232
 1717               	.LBE331:
 1718               	.LBE330:
  52:../../tmk_core/protocol/lufa/LUFA-git/LUFA/Drivers/USB/Core/AVR8/Template/Template_Endpoint_RW.c **** 		if (!(Endpoint_IsReadWriteAllowed()))
 1719               		.loc 3 52 0
 1720 003c 85FD      		sbrc r24,5
 1721 003e 00C0      		rjmp .L138
 1722               	.LBB332:
 1723               	.LBB333:
 471:../../tmk_core/protocol/lufa/LUFA-git/LUFA/Drivers/USB/Core/AVR8/../AVR8/../AVR8/Endpoint_AVR8.h **** 					UEINTX &= ~((1 << RXOUTI) | (1 << FIFOCON));
 1724               		.loc 2 471 0
 1725 0040 8091 E800 		lds r24,232
 1726 0044 8B77      		andi r24,lo8(123)
 1727 0046 8093 E800 		sts 232,r24
 1728               	.LBE333:
 1729               	.LBE332:
  60:../../tmk_core/protocol/lufa/LUFA-git/LUFA/Drivers/USB/Core/AVR8/Template/Template_Endpoint_RW.c **** 			if (BytesProcessed != NULL)
 1730               		.loc 3 60 0
 1731 004a 2097      		sbiw r28,0
 1732 004c 01F0      		breq .L139
  62:../../tmk_core/protocol/lufa/LUFA-git/LUFA/Drivers/USB/Core/AVR8/Template/Template_Endpoint_RW.c **** 				*BytesProcessed += BytesInTransfer;
 1733               		.loc 3 62 0
 1734 004e 8881      		ld r24,Y
 1735 0050 9981      		ldd r25,Y+1
 1736 0052 8C0D      		add r24,r12
 1737 0054 9D1D      		adc r25,r13
 1738 0056 9983      		std Y+1,r25
 1739 0058 8883      		st Y,r24
  63:../../tmk_core/protocol/lufa/LUFA-git/LUFA/Drivers/USB/Core/AVR8/Template/Template_Endpoint_RW.c **** 				return ENDPOINT_RWSTREAM_IncompleteTransfer;
 1740               		.loc 3 63 0
 1741 005a 85E0      		ldi r24,lo8(5)
 1742 005c 00C0      		rjmp .L135
 1743               	.L139:
  66:../../tmk_core/protocol/lufa/LUFA-git/LUFA/Drivers/USB/Core/AVR8/Template/Template_Endpoint_RW.c **** 			if ((ErrorCode = Endpoint_WaitUntilReady()))
 1744               		.loc 3 66 0
 1745 005e 0E94 0000 		call Endpoint_WaitUntilReady
 1746               	.LVL178:
 1747 0062 8823      		tst r24
 1748 0064 01F0      		breq .L137
 1749 0066 00C0      		rjmp .L135
 1750               	.LVL179:
 1751               	.L138:
 1752               	.LBB334:
 1753               	.LBB335:
 542:../../tmk_core/protocol/lufa/LUFA-git/LUFA/Drivers/USB/Core/AVR8/../AVR8/../AVR8/Endpoint_AVR8.h **** 				return UEDATX;
 1754               		.loc 2 542 0
 1755 0068 6091 F100 		lds r22,241
 1756               	.LBE335:
 1757               	.LBE334:
  71:../../tmk_core/protocol/lufa/LUFA-git/LUFA/Drivers/USB/Core/AVR8/Template/Template_Endpoint_RW.c **** 			TEMPLATE_TRANSFER_BYTE(DataStream);
 1758               		.loc 3 71 0
 1759 006c C701      		movw r24,r14
 1760 006e 0E94 0000 		call __eeupd_byte_m32u4
 1761               	.LVL180:
  72:../../tmk_core/protocol/lufa/LUFA-git/LUFA/Drivers/USB/Core/AVR8/Template/Template_Endpoint_RW.c **** 			TEMPLATE_BUFFER_MOVE(DataStream, 1);
 1762               		.loc 3 72 0
 1763 0072 8FEF      		ldi r24,-1
 1764 0074 E81A      		sub r14,r24
 1765 0076 F80A      		sbc r15,r24
 1766               	.LVL181:
  73:../../tmk_core/protocol/lufa/LUFA-git/LUFA/Drivers/USB/Core/AVR8/Template/Template_Endpoint_RW.c **** 			Length--;
 1767               		.loc 3 73 0
 1768 0078 0150      		subi r16,1
 1769 007a 1109      		sbc r17,__zero_reg__
 1770               	.LVL182:
  74:../../tmk_core/protocol/lufa/LUFA-git/LUFA/Drivers/USB/Core/AVR8/Template/Template_Endpoint_RW.c **** 			BytesInTransfer++;
 1771               		.loc 3 74 0
 1772 007c 8FEF      		ldi r24,-1
 1773 007e C81A      		sub r12,r24
 1774 0080 D80A      		sbc r13,r24
 1775               	.LVL183:
 1776 0082 00C0      		rjmp .L137
 1777               	.L145:
  78:../../tmk_core/protocol/lufa/LUFA-git/LUFA/Drivers/USB/Core/AVR8/Template/Template_Endpoint_RW.c **** 	return ENDPOINT_RWSTREAM_NoError;
 1778               		.loc 3 78 0
 1779 0084 80E0      		ldi r24,0
 1780               	.LVL184:
 1781               	.L135:
 1782               	/* epilogue start */
 1783               		.loc 3 79 0
 1784 0086 DF91      		pop r29
 1785 0088 CF91      		pop r28
 1786               	.LVL185:
 1787 008a 1F91      		pop r17
 1788 008c 0F91      		pop r16
 1789               	.LVL186:
 1790 008e FF90      		pop r15
 1791 0090 EF90      		pop r14
 1792               	.LVL187:
 1793 0092 DF90      		pop r13
 1794 0094 CF90      		pop r12
 1795 0096 0895      		ret
 1796               		.cfi_endproc
 1797               	.LFE95:
 1799               		.section	.text.Endpoint_Read_EStream_BE,"ax",@progbits
 1800               	.global	Endpoint_Read_EStream_BE
 1802               	Endpoint_Read_EStream_BE:
 1803               	.LFB96:
  36:../../tmk_core/protocol/lufa/LUFA-git/LUFA/Drivers/USB/Core/AVR8/Template/Template_Endpoint_RW.c **** {
 1804               		.loc 3 36 0
 1805               		.cfi_startproc
 1806               	.LVL188:
 1807 0000 CF92      		push r12
 1808               	.LCFI84:
 1809               		.cfi_def_cfa_offset 3
 1810               		.cfi_offset 12, -2
 1811 0002 DF92      		push r13
 1812               	.LCFI85:
 1813               		.cfi_def_cfa_offset 4
 1814               		.cfi_offset 13, -3
 1815 0004 EF92      		push r14
 1816               	.LCFI86:
 1817               		.cfi_def_cfa_offset 5
 1818               		.cfi_offset 14, -4
 1819 0006 FF92      		push r15
 1820               	.LCFI87:
 1821               		.cfi_def_cfa_offset 6
 1822               		.cfi_offset 15, -5
 1823 0008 0F93      		push r16
 1824               	.LCFI88:
 1825               		.cfi_def_cfa_offset 7
 1826               		.cfi_offset 16, -6
 1827 000a 1F93      		push r17
 1828               	.LCFI89:
 1829               		.cfi_def_cfa_offset 8
 1830               		.cfi_offset 17, -7
 1831 000c CF93      		push r28
 1832               	.LCFI90:
 1833               		.cfi_def_cfa_offset 9
 1834               		.cfi_offset 28, -8
 1835 000e DF93      		push r29
 1836               	.LCFI91:
 1837               		.cfi_def_cfa_offset 10
 1838               		.cfi_offset 29, -9
 1839               	/* prologue: function */
 1840               	/* frame size = 0 */
 1841               	/* stack size = 8 */
 1842               	.L__stack_usage = 8
 1843 0010 6C01      		movw r12,r24
 1844 0012 8B01      		movw r16,r22
 1845 0014 7A01      		movw r14,r20
 1846               	.LVL189:
  41:../../tmk_core/protocol/lufa/LUFA-git/LUFA/Drivers/USB/Core/AVR8/Template/Template_Endpoint_RW.c **** 	if ((ErrorCode = Endpoint_WaitUntilReady()))
 1847               		.loc 3 41 0
 1848 0016 0E94 0000 		call Endpoint_WaitUntilReady
 1849               	.LVL190:
 1850 001a 8111      		cpse r24,__zero_reg__
 1851 001c 00C0      		rjmp .L147
  37:../../tmk_core/protocol/lufa/LUFA-git/LUFA/Drivers/USB/Core/AVR8/Template/Template_Endpoint_RW.c **** 	uint8_t* DataStream      = ((uint8_t*)Buffer + TEMPLATE_BUFFER_OFFSET(Length));
 1852               		.loc 3 37 0
 1853 001e E801      		movw r28,r16
 1854 0020 2197      		sbiw r28,1
 1855               	.LVL191:
 1856 0022 CC0D      		add r28,r12
 1857 0024 DD1D      		adc r29,r13
 1858               	.LVL192:
  44:../../tmk_core/protocol/lufa/LUFA-git/LUFA/Drivers/USB/Core/AVR8/Template/Template_Endpoint_RW.c **** 	if (BytesProcessed != NULL)
 1859               		.loc 3 44 0
 1860 0026 E114      		cp r14,__zero_reg__
 1861 0028 F104      		cpc r15,__zero_reg__
 1862 002a 01F0      		breq .L148
  46:../../tmk_core/protocol/lufa/LUFA-git/LUFA/Drivers/USB/Core/AVR8/Template/Template_Endpoint_RW.c **** 		Length -= *BytesProcessed;
 1863               		.loc 3 46 0
 1864 002c F701      		movw r30,r14
 1865 002e 8081      		ld r24,Z
 1866 0030 9181      		ldd r25,Z+1
 1867               	.LVL193:
 1868 0032 081B      		sub r16,r24
 1869 0034 190B      		sbc r17,r25
 1870               	.LVL194:
  47:../../tmk_core/protocol/lufa/LUFA-git/LUFA/Drivers/USB/Core/AVR8/Template/Template_Endpoint_RW.c **** 		TEMPLATE_BUFFER_MOVE(DataStream, *BytesProcessed);
 1871               		.loc 3 47 0
 1872 0036 C81B      		sub r28,r24
 1873 0038 D90B      		sbc r29,r25
 1874               	.LVL195:
 1875               	.L148:
  36:../../tmk_core/protocol/lufa/LUFA-git/LUFA/Drivers/USB/Core/AVR8/Template/Template_Endpoint_RW.c **** {
 1876               		.loc 3 36 0 discriminator 1
 1877 003a C12C      		mov r12,__zero_reg__
 1878 003c D12C      		mov r13,__zero_reg__
 1879               	.LVL196:
 1880               	.L149:
  50:../../tmk_core/protocol/lufa/LUFA-git/LUFA/Drivers/USB/Core/AVR8/Template/Template_Endpoint_RW.c **** 	while (Length)
 1881               		.loc 3 50 0 discriminator 1
 1882 003e 0115      		cp r16,__zero_reg__
 1883 0040 1105      		cpc r17,__zero_reg__
 1884 0042 01F0      		breq .L159
 1885               	.LBB336:
 1886               	.LBB337:
 360:../../tmk_core/protocol/lufa/LUFA-git/LUFA/Drivers/USB/Core/AVR8/../AVR8/../AVR8/Endpoint_AVR8.h **** 				return ((UEINTX & (1 << RWAL)) ? true : false);
 1887               		.loc 2 360 0
 1888 0044 8091 E800 		lds r24,232
 1889               	.LBE337:
 1890               	.LBE336:
  52:../../tmk_core/protocol/lufa/LUFA-git/LUFA/Drivers/USB/Core/AVR8/Template/Template_Endpoint_RW.c **** 		if (!(Endpoint_IsReadWriteAllowed()))
 1891               		.loc 3 52 0
 1892 0048 85FD      		sbrc r24,5
 1893 004a 00C0      		rjmp .L150
 1894               	.LBB338:
 1895               	.LBB339:
 471:../../tmk_core/protocol/lufa/LUFA-git/LUFA/Drivers/USB/Core/AVR8/../AVR8/../AVR8/Endpoint_AVR8.h **** 					UEINTX &= ~((1 << RXOUTI) | (1 << FIFOCON));
 1896               		.loc 2 471 0
 1897 004c 8091 E800 		lds r24,232
 1898 0050 8B77      		andi r24,lo8(123)
 1899 0052 8093 E800 		sts 232,r24
 1900               	.LBE339:
 1901               	.LBE338:
  60:../../tmk_core/protocol/lufa/LUFA-git/LUFA/Drivers/USB/Core/AVR8/Template/Template_Endpoint_RW.c **** 			if (BytesProcessed != NULL)
 1902               		.loc 3 60 0
 1903 0056 E114      		cp r14,__zero_reg__
 1904 0058 F104      		cpc r15,__zero_reg__
 1905 005a 01F0      		breq .L151
  62:../../tmk_core/protocol/lufa/LUFA-git/LUFA/Drivers/USB/Core/AVR8/Template/Template_Endpoint_RW.c **** 				*BytesProcessed += BytesInTransfer;
 1906               		.loc 3 62 0
 1907 005c F701      		movw r30,r14
 1908 005e 8081      		ld r24,Z
 1909 0060 9181      		ldd r25,Z+1
 1910 0062 8C0D      		add r24,r12
 1911 0064 9D1D      		adc r25,r13
 1912 0066 9183      		std Z+1,r25
 1913 0068 8083      		st Z,r24
  63:../../tmk_core/protocol/lufa/LUFA-git/LUFA/Drivers/USB/Core/AVR8/Template/Template_Endpoint_RW.c **** 				return ENDPOINT_RWSTREAM_IncompleteTransfer;
 1914               		.loc 3 63 0
 1915 006a 85E0      		ldi r24,lo8(5)
 1916 006c 00C0      		rjmp .L147
 1917               	.L151:
  66:../../tmk_core/protocol/lufa/LUFA-git/LUFA/Drivers/USB/Core/AVR8/Template/Template_Endpoint_RW.c **** 			if ((ErrorCode = Endpoint_WaitUntilReady()))
 1918               		.loc 3 66 0
 1919 006e 0E94 0000 		call Endpoint_WaitUntilReady
 1920               	.LVL197:
 1921 0072 8823      		tst r24
 1922 0074 01F0      		breq .L149
 1923 0076 00C0      		rjmp .L147
 1924               	.LVL198:
 1925               	.L150:
 1926               	.LBB340:
 1927               	.LBB341:
 542:../../tmk_core/protocol/lufa/LUFA-git/LUFA/Drivers/USB/Core/AVR8/../AVR8/../AVR8/Endpoint_AVR8.h **** 				return UEDATX;
 1928               		.loc 2 542 0
 1929 0078 6091 F100 		lds r22,241
 1930               	.LBE341:
 1931               	.LBE340:
  71:../../tmk_core/protocol/lufa/LUFA-git/LUFA/Drivers/USB/Core/AVR8/Template/Template_Endpoint_RW.c **** 			TEMPLATE_TRANSFER_BYTE(DataStream);
 1932               		.loc 3 71 0
 1933 007c CE01      		movw r24,r28
 1934 007e 0E94 0000 		call __eeupd_byte_m32u4
 1935               	.LVL199:
  72:../../tmk_core/protocol/lufa/LUFA-git/LUFA/Drivers/USB/Core/AVR8/Template/Template_Endpoint_RW.c **** 			TEMPLATE_BUFFER_MOVE(DataStream, 1);
 1936               		.loc 3 72 0
 1937 0082 2197      		sbiw r28,1
 1938               	.LVL200:
  73:../../tmk_core/protocol/lufa/LUFA-git/LUFA/Drivers/USB/Core/AVR8/Template/Template_Endpoint_RW.c **** 			Length--;
 1939               		.loc 3 73 0
 1940 0084 0150      		subi r16,1
 1941 0086 1109      		sbc r17,__zero_reg__
 1942               	.LVL201:
  74:../../tmk_core/protocol/lufa/LUFA-git/LUFA/Drivers/USB/Core/AVR8/Template/Template_Endpoint_RW.c **** 			BytesInTransfer++;
 1943               		.loc 3 74 0
 1944 0088 FFEF      		ldi r31,-1
 1945 008a CF1A      		sub r12,r31
 1946 008c DF0A      		sbc r13,r31
 1947               	.LVL202:
 1948 008e 00C0      		rjmp .L149
 1949               	.L159:
  78:../../tmk_core/protocol/lufa/LUFA-git/LUFA/Drivers/USB/Core/AVR8/Template/Template_Endpoint_RW.c **** 	return ENDPOINT_RWSTREAM_NoError;
 1950               		.loc 3 78 0
 1951 0090 80E0      		ldi r24,0
 1952               	.LVL203:
 1953               	.L147:
 1954               	/* epilogue start */
 1955               		.loc 3 79 0
 1956 0092 DF91      		pop r29
 1957 0094 CF91      		pop r28
 1958 0096 1F91      		pop r17
 1959 0098 0F91      		pop r16
 1960               	.LVL204:
 1961 009a FF90      		pop r15
 1962 009c EF90      		pop r14
 1963               	.LVL205:
 1964 009e DF90      		pop r13
 1965 00a0 CF90      		pop r12
 1966 00a2 0895      		ret
 1967               		.cfi_endproc
 1968               	.LFE96:
 1970               		.section	.text.Endpoint_Write_Control_Stream_LE,"ax",@progbits
 1971               	.global	Endpoint_Write_Control_Stream_LE
 1973               	Endpoint_Write_Control_Stream_LE:
 1974               	.LFB97:
 1975               		.file 4 "../../tmk_core/protocol/lufa/LUFA-git/LUFA/Drivers/USB/Core/AVR8/Template/Template_Endpoi
   1:../../tmk_core/protocol/lufa/LUFA-git/LUFA/Drivers/USB/Core/AVR8/Template/Template_Endpoint_Control_W.c **** /*
   2:../../tmk_core/protocol/lufa/LUFA-git/LUFA/Drivers/USB/Core/AVR8/Template/Template_Endpoint_Control_W.c ****              LUFA Library
   3:../../tmk_core/protocol/lufa/LUFA-git/LUFA/Drivers/USB/Core/AVR8/Template/Template_Endpoint_Control_W.c ****      Copyright (C) Dean Camera, 2014.
   4:../../tmk_core/protocol/lufa/LUFA-git/LUFA/Drivers/USB/Core/AVR8/Template/Template_Endpoint_Control_W.c **** 
   5:../../tmk_core/protocol/lufa/LUFA-git/LUFA/Drivers/USB/Core/AVR8/Template/Template_Endpoint_Control_W.c ****   dean [at] fourwalledcubicle [dot] com
   6:../../tmk_core/protocol/lufa/LUFA-git/LUFA/Drivers/USB/Core/AVR8/Template/Template_Endpoint_Control_W.c ****            www.lufa-lib.org
   7:../../tmk_core/protocol/lufa/LUFA-git/LUFA/Drivers/USB/Core/AVR8/Template/Template_Endpoint_Control_W.c **** */
   8:../../tmk_core/protocol/lufa/LUFA-git/LUFA/Drivers/USB/Core/AVR8/Template/Template_Endpoint_Control_W.c **** 
   9:../../tmk_core/protocol/lufa/LUFA-git/LUFA/Drivers/USB/Core/AVR8/Template/Template_Endpoint_Control_W.c **** /*
  10:../../tmk_core/protocol/lufa/LUFA-git/LUFA/Drivers/USB/Core/AVR8/Template/Template_Endpoint_Control_W.c ****   Copyright 2014  Dean Camera (dean [at] fourwalledcubicle [dot] com)
  11:../../tmk_core/protocol/lufa/LUFA-git/LUFA/Drivers/USB/Core/AVR8/Template/Template_Endpoint_Control_W.c **** 
  12:../../tmk_core/protocol/lufa/LUFA-git/LUFA/Drivers/USB/Core/AVR8/Template/Template_Endpoint_Control_W.c ****   Permission to use, copy, modify, distribute, and sell this
  13:../../tmk_core/protocol/lufa/LUFA-git/LUFA/Drivers/USB/Core/AVR8/Template/Template_Endpoint_Control_W.c ****   software and its documentation for any purpose is hereby granted
  14:../../tmk_core/protocol/lufa/LUFA-git/LUFA/Drivers/USB/Core/AVR8/Template/Template_Endpoint_Control_W.c ****   without fee, provided that the above copyright notice appear in
  15:../../tmk_core/protocol/lufa/LUFA-git/LUFA/Drivers/USB/Core/AVR8/Template/Template_Endpoint_Control_W.c ****   all copies and that both that the copyright notice and this
  16:../../tmk_core/protocol/lufa/LUFA-git/LUFA/Drivers/USB/Core/AVR8/Template/Template_Endpoint_Control_W.c ****   permission notice and warranty disclaimer appear in supporting
  17:../../tmk_core/protocol/lufa/LUFA-git/LUFA/Drivers/USB/Core/AVR8/Template/Template_Endpoint_Control_W.c ****   documentation, and that the name of the author not be used in
  18:../../tmk_core/protocol/lufa/LUFA-git/LUFA/Drivers/USB/Core/AVR8/Template/Template_Endpoint_Control_W.c ****   advertising or publicity pertaining to distribution of the
  19:../../tmk_core/protocol/lufa/LUFA-git/LUFA/Drivers/USB/Core/AVR8/Template/Template_Endpoint_Control_W.c ****   software without specific, written prior permission.
  20:../../tmk_core/protocol/lufa/LUFA-git/LUFA/Drivers/USB/Core/AVR8/Template/Template_Endpoint_Control_W.c **** 
  21:../../tmk_core/protocol/lufa/LUFA-git/LUFA/Drivers/USB/Core/AVR8/Template/Template_Endpoint_Control_W.c ****   The author disclaims all warranties with regard to this
  22:../../tmk_core/protocol/lufa/LUFA-git/LUFA/Drivers/USB/Core/AVR8/Template/Template_Endpoint_Control_W.c ****   software, including all implied warranties of merchantability
  23:../../tmk_core/protocol/lufa/LUFA-git/LUFA/Drivers/USB/Core/AVR8/Template/Template_Endpoint_Control_W.c ****   and fitness.  In no event shall the author be liable for any
  24:../../tmk_core/protocol/lufa/LUFA-git/LUFA/Drivers/USB/Core/AVR8/Template/Template_Endpoint_Control_W.c ****   special, indirect or consequential damages or any damages
  25:../../tmk_core/protocol/lufa/LUFA-git/LUFA/Drivers/USB/Core/AVR8/Template/Template_Endpoint_Control_W.c ****   whatsoever resulting from loss of use, data or profits, whether
  26:../../tmk_core/protocol/lufa/LUFA-git/LUFA/Drivers/USB/Core/AVR8/Template/Template_Endpoint_Control_W.c ****   in an action of contract, negligence or other tortious action,
  27:../../tmk_core/protocol/lufa/LUFA-git/LUFA/Drivers/USB/Core/AVR8/Template/Template_Endpoint_Control_W.c ****   arising out of or in connection with the use or performance of
  28:../../tmk_core/protocol/lufa/LUFA-git/LUFA/Drivers/USB/Core/AVR8/Template/Template_Endpoint_Control_W.c ****   this software.
  29:../../tmk_core/protocol/lufa/LUFA-git/LUFA/Drivers/USB/Core/AVR8/Template/Template_Endpoint_Control_W.c **** */
  30:../../tmk_core/protocol/lufa/LUFA-git/LUFA/Drivers/USB/Core/AVR8/Template/Template_Endpoint_Control_W.c **** 
  31:../../tmk_core/protocol/lufa/LUFA-git/LUFA/Drivers/USB/Core/AVR8/Template/Template_Endpoint_Control_W.c **** #if defined(TEMPLATE_FUNC_NAME)
  32:../../tmk_core/protocol/lufa/LUFA-git/LUFA/Drivers/USB/Core/AVR8/Template/Template_Endpoint_Control_W.c **** 
  33:../../tmk_core/protocol/lufa/LUFA-git/LUFA/Drivers/USB/Core/AVR8/Template/Template_Endpoint_Control_W.c **** uint8_t TEMPLATE_FUNC_NAME (const void* const Buffer,
  34:../../tmk_core/protocol/lufa/LUFA-git/LUFA/Drivers/USB/Core/AVR8/Template/Template_Endpoint_Control_W.c ****                             uint16_t Length)
  35:../../tmk_core/protocol/lufa/LUFA-git/LUFA/Drivers/USB/Core/AVR8/Template/Template_Endpoint_Control_W.c **** {
 1976               		.loc 4 35 0
 1977               		.cfi_startproc
 1978               	.LVL206:
 1979               	/* prologue: function */
 1980               	/* frame size = 0 */
 1981               	/* stack size = 0 */
 1982               	.L__stack_usage = 0
  36:../../tmk_core/protocol/lufa/LUFA-git/LUFA/Drivers/USB/Core/AVR8/Template/Template_Endpoint_Control_W.c **** 	uint8_t* DataStream     = ((uint8_t*)Buffer + TEMPLATE_BUFFER_OFFSET(Length));
  37:../../tmk_core/protocol/lufa/LUFA-git/LUFA/Drivers/USB/Core/AVR8/Template/Template_Endpoint_Control_W.c **** 	bool     LastPacketFull = false;
  38:../../tmk_core/protocol/lufa/LUFA-git/LUFA/Drivers/USB/Core/AVR8/Template/Template_Endpoint_Control_W.c **** 
  39:../../tmk_core/protocol/lufa/LUFA-git/LUFA/Drivers/USB/Core/AVR8/Template/Template_Endpoint_Control_W.c **** 	if (Length > USB_ControlRequest.wLength)
 1983               		.loc 4 39 0
 1984 0000 2091 0000 		lds r18,USB_ControlRequest+6
 1985 0004 3091 0000 		lds r19,USB_ControlRequest+6+1
 1986 0008 2617      		cp r18,r22
 1987 000a 3707      		cpc r19,r23
 1988 000c 00F0      		brlo .L175
  40:../../tmk_core/protocol/lufa/LUFA-git/LUFA/Drivers/USB/Core/AVR8/Template/Template_Endpoint_Control_W.c **** 	  Length = USB_ControlRequest.wLength;
  41:../../tmk_core/protocol/lufa/LUFA-git/LUFA/Drivers/USB/Core/AVR8/Template/Template_Endpoint_Control_W.c **** 	else if (!(Length))
 1989               		.loc 4 41 0
 1990 000e 6115      		cp r22,__zero_reg__
 1991 0010 7105      		cpc r23,__zero_reg__
 1992 0012 01F4      		brne .L161
 1993               	.LBB342:
 1994               	.LBB343:
 456:../../tmk_core/protocol/lufa/LUFA-git/LUFA/Drivers/USB/Core/AVR8/../AVR8/../AVR8/Endpoint_AVR8.h **** 					UEINTX &= ~((1 << TXINI) | (1 << FIFOCON));
 1995               		.loc 2 456 0
 1996 0014 2091 E800 		lds r18,232
 1997 0018 2E77      		andi r18,lo8(126)
 1998 001a 2093 E800 		sts 232,r18
 1999 001e 00C0      		rjmp .L161
 2000               	.L175:
 2001               	.LBE343:
 2002               	.LBE342:
 2003 0020 B901      		movw r22,r18
 2004               	.LVL207:
 2005               	.L161:
 2006 0022 FC01      		movw r30,r24
 2007 0024 20E0      		ldi r18,0
 2008               	.LVL208:
 2009               	.L167:
  42:../../tmk_core/protocol/lufa/LUFA-git/LUFA/Drivers/USB/Core/AVR8/Template/Template_Endpoint_Control_W.c **** 	  Endpoint_ClearIN();
  43:../../tmk_core/protocol/lufa/LUFA-git/LUFA/Drivers/USB/Core/AVR8/Template/Template_Endpoint_Control_W.c **** 
  44:../../tmk_core/protocol/lufa/LUFA-git/LUFA/Drivers/USB/Core/AVR8/Template/Template_Endpoint_Control_W.c **** 	while (Length || LastPacketFull)
 2010               		.loc 4 44 0 discriminator 1
 2011 0026 6115      		cp r22,__zero_reg__
 2012 0028 7105      		cpc r23,__zero_reg__
 2013 002a 01F0      		breq .L188
 2014               	.L172:
 2015               	.LBB344:
  45:../../tmk_core/protocol/lufa/LUFA-git/LUFA/Drivers/USB/Core/AVR8/Template/Template_Endpoint_Control_W.c **** 	{
  46:../../tmk_core/protocol/lufa/LUFA-git/LUFA/Drivers/USB/Core/AVR8/Template/Template_Endpoint_Control_W.c **** 		uint8_t USB_DeviceState_LCL = USB_DeviceState;
 2016               		.loc 4 46 0
 2017 002c 8091 0000 		lds r24,USB_DeviceState
 2018               	.LVL209:
  47:../../tmk_core/protocol/lufa/LUFA-git/LUFA/Drivers/USB/Core/AVR8/Template/Template_Endpoint_Control_W.c **** 
  48:../../tmk_core/protocol/lufa/LUFA-git/LUFA/Drivers/USB/Core/AVR8/Template/Template_Endpoint_Control_W.c **** 		if (USB_DeviceState_LCL == DEVICE_STATE_Unattached)
 2019               		.loc 4 48 0
 2020 0030 8823      		tst r24
 2021 0032 01F4      		brne .+2
 2022 0034 00C0      		rjmp .L179
  49:../../tmk_core/protocol/lufa/LUFA-git/LUFA/Drivers/USB/Core/AVR8/Template/Template_Endpoint_Control_W.c **** 		  return ENDPOINT_RWCSTREAM_DeviceDisconnected;
  50:../../tmk_core/protocol/lufa/LUFA-git/LUFA/Drivers/USB/Core/AVR8/Template/Template_Endpoint_Control_W.c **** 		else if (USB_DeviceState_LCL == DEVICE_STATE_Suspended)
 2023               		.loc 4 50 0
 2024 0036 8530      		cpi r24,lo8(5)
 2025 0038 01F4      		brne .+2
 2026 003a 00C0      		rjmp .L180
 2027               	.LBB345:
 2028               	.LBB346:
 431:../../tmk_core/protocol/lufa/LUFA-git/LUFA/Drivers/USB/Core/AVR8/../AVR8/../AVR8/Endpoint_AVR8.h **** 				return ((UEINTX & (1 << RXSTPI)) ? true : false);
 2029               		.loc 2 431 0
 2030 003c 8091 E800 		lds r24,232
 2031               	.LVL210:
 2032               	.LBE346:
 2033               	.LBE345:
  51:../../tmk_core/protocol/lufa/LUFA-git/LUFA/Drivers/USB/Core/AVR8/Template/Template_Endpoint_Control_W.c **** 		  return ENDPOINT_RWCSTREAM_BusSuspended;
  52:../../tmk_core/protocol/lufa/LUFA-git/LUFA/Drivers/USB/Core/AVR8/Template/Template_Endpoint_Control_W.c **** 		else if (Endpoint_IsSETUPReceived())
 2034               		.loc 4 52 0
 2035 0040 83FD      		sbrc r24,3
 2036 0042 00C0      		rjmp .L181
 2037               	.LBB347:
 2038               	.LBB348:
 419:../../tmk_core/protocol/lufa/LUFA-git/LUFA/Drivers/USB/Core/AVR8/../AVR8/../AVR8/Endpoint_AVR8.h **** 				return ((UEINTX & (1 << RXOUTI)) ? true : false);
 2039               		.loc 2 419 0
 2040 0044 8091 E800 		lds r24,232
 2041               	.LBE348:
 2042               	.LBE347:
  53:../../tmk_core/protocol/lufa/LUFA-git/LUFA/Drivers/USB/Core/AVR8/Template/Template_Endpoint_Control_W.c **** 		  return ENDPOINT_RWCSTREAM_HostAborted;
  54:../../tmk_core/protocol/lufa/LUFA-git/LUFA/Drivers/USB/Core/AVR8/Template/Template_Endpoint_Control_W.c **** 		else if (Endpoint_IsOUTReceived())
 2043               		.loc 4 54 0
 2044 0048 82FF      		sbrs r24,2
 2045 004a 00C0      		rjmp .L164
 2046               	.L174:
 2047               	.LBE344:
 2048               	.LBB358:
 2049               	.LBB359:
 419:../../tmk_core/protocol/lufa/LUFA-git/LUFA/Drivers/USB/Core/AVR8/../AVR8/../AVR8/Endpoint_AVR8.h **** 				return ((UEINTX & (1 << RXOUTI)) ? true : false);
 2050               		.loc 2 419 0 discriminator 1
 2051 004c 8091 E800 		lds r24,232
 2052               	.LBE359:
 2053               	.LBE358:
  55:../../tmk_core/protocol/lufa/LUFA-git/LUFA/Drivers/USB/Core/AVR8/Template/Template_Endpoint_Control_W.c **** 		  break;
  56:../../tmk_core/protocol/lufa/LUFA-git/LUFA/Drivers/USB/Core/AVR8/Template/Template_Endpoint_Control_W.c **** 
  57:../../tmk_core/protocol/lufa/LUFA-git/LUFA/Drivers/USB/Core/AVR8/Template/Template_Endpoint_Control_W.c **** 		if (Endpoint_IsINReady())
  58:../../tmk_core/protocol/lufa/LUFA-git/LUFA/Drivers/USB/Core/AVR8/Template/Template_Endpoint_Control_W.c **** 		{
  59:../../tmk_core/protocol/lufa/LUFA-git/LUFA/Drivers/USB/Core/AVR8/Template/Template_Endpoint_Control_W.c **** 			uint16_t BytesInEndpoint = Endpoint_BytesInEndpoint();
  60:../../tmk_core/protocol/lufa/LUFA-git/LUFA/Drivers/USB/Core/AVR8/Template/Template_Endpoint_Control_W.c **** 
  61:../../tmk_core/protocol/lufa/LUFA-git/LUFA/Drivers/USB/Core/AVR8/Template/Template_Endpoint_Control_W.c **** 			while (Length && (BytesInEndpoint < USB_Device_ControlEndpointSize))
  62:../../tmk_core/protocol/lufa/LUFA-git/LUFA/Drivers/USB/Core/AVR8/Template/Template_Endpoint_Control_W.c **** 			{
  63:../../tmk_core/protocol/lufa/LUFA-git/LUFA/Drivers/USB/Core/AVR8/Template/Template_Endpoint_Control_W.c **** 				TEMPLATE_TRANSFER_BYTE(DataStream);
  64:../../tmk_core/protocol/lufa/LUFA-git/LUFA/Drivers/USB/Core/AVR8/Template/Template_Endpoint_Control_W.c **** 				TEMPLATE_BUFFER_MOVE(DataStream, 1);
  65:../../tmk_core/protocol/lufa/LUFA-git/LUFA/Drivers/USB/Core/AVR8/Template/Template_Endpoint_Control_W.c **** 				Length--;
  66:../../tmk_core/protocol/lufa/LUFA-git/LUFA/Drivers/USB/Core/AVR8/Template/Template_Endpoint_Control_W.c **** 				BytesInEndpoint++;
  67:../../tmk_core/protocol/lufa/LUFA-git/LUFA/Drivers/USB/Core/AVR8/Template/Template_Endpoint_Control_W.c **** 			}
  68:../../tmk_core/protocol/lufa/LUFA-git/LUFA/Drivers/USB/Core/AVR8/Template/Template_Endpoint_Control_W.c **** 
  69:../../tmk_core/protocol/lufa/LUFA-git/LUFA/Drivers/USB/Core/AVR8/Template/Template_Endpoint_Control_W.c **** 			LastPacketFull = (BytesInEndpoint == USB_Device_ControlEndpointSize);
  70:../../tmk_core/protocol/lufa/LUFA-git/LUFA/Drivers/USB/Core/AVR8/Template/Template_Endpoint_Control_W.c **** 			Endpoint_ClearIN();
  71:../../tmk_core/protocol/lufa/LUFA-git/LUFA/Drivers/USB/Core/AVR8/Template/Template_Endpoint_Control_W.c **** 		}
  72:../../tmk_core/protocol/lufa/LUFA-git/LUFA/Drivers/USB/Core/AVR8/Template/Template_Endpoint_Control_W.c **** 	}
  73:../../tmk_core/protocol/lufa/LUFA-git/LUFA/Drivers/USB/Core/AVR8/Template/Template_Endpoint_Control_W.c **** 
  74:../../tmk_core/protocol/lufa/LUFA-git/LUFA/Drivers/USB/Core/AVR8/Template/Template_Endpoint_Control_W.c **** 	while (!(Endpoint_IsOUTReceived()))
 2054               		.loc 4 74 0 discriminator 1
 2055 0050 82FF      		sbrs r24,2
 2056 0052 00C0      		rjmp .L165
  75:../../tmk_core/protocol/lufa/LUFA-git/LUFA/Drivers/USB/Core/AVR8/Template/Template_Endpoint_Control_W.c **** 	{
  76:../../tmk_core/protocol/lufa/LUFA-git/LUFA/Drivers/USB/Core/AVR8/Template/Template_Endpoint_Control_W.c **** 		uint8_t USB_DeviceState_LCL = USB_DeviceState;
  77:../../tmk_core/protocol/lufa/LUFA-git/LUFA/Drivers/USB/Core/AVR8/Template/Template_Endpoint_Control_W.c **** 
  78:../../tmk_core/protocol/lufa/LUFA-git/LUFA/Drivers/USB/Core/AVR8/Template/Template_Endpoint_Control_W.c **** 		if (USB_DeviceState_LCL == DEVICE_STATE_Unattached)
  79:../../tmk_core/protocol/lufa/LUFA-git/LUFA/Drivers/USB/Core/AVR8/Template/Template_Endpoint_Control_W.c **** 		  return ENDPOINT_RWCSTREAM_DeviceDisconnected;
  80:../../tmk_core/protocol/lufa/LUFA-git/LUFA/Drivers/USB/Core/AVR8/Template/Template_Endpoint_Control_W.c **** 		else if (USB_DeviceState_LCL == DEVICE_STATE_Suspended)
  81:../../tmk_core/protocol/lufa/LUFA-git/LUFA/Drivers/USB/Core/AVR8/Template/Template_Endpoint_Control_W.c **** 		  return ENDPOINT_RWCSTREAM_BusSuspended;
  82:../../tmk_core/protocol/lufa/LUFA-git/LUFA/Drivers/USB/Core/AVR8/Template/Template_Endpoint_Control_W.c **** 		else if (Endpoint_IsSETUPReceived())
  83:../../tmk_core/protocol/lufa/LUFA-git/LUFA/Drivers/USB/Core/AVR8/Template/Template_Endpoint_Control_W.c **** 		  return ENDPOINT_RWCSTREAM_HostAborted;
  84:../../tmk_core/protocol/lufa/LUFA-git/LUFA/Drivers/USB/Core/AVR8/Template/Template_Endpoint_Control_W.c **** 	}
  85:../../tmk_core/protocol/lufa/LUFA-git/LUFA/Drivers/USB/Core/AVR8/Template/Template_Endpoint_Control_W.c **** 
  86:../../tmk_core/protocol/lufa/LUFA-git/LUFA/Drivers/USB/Core/AVR8/Template/Template_Endpoint_Control_W.c **** 	return ENDPOINT_RWCSTREAM_NoError;
 2057               		.loc 4 86 0
 2058 0054 80E0      		ldi r24,0
 2059 0056 0895      		ret
 2060               	.L164:
 2061               	.LBB360:
 2062               	.LBB349:
 2063               	.LBB350:
 407:../../tmk_core/protocol/lufa/LUFA-git/LUFA/Drivers/USB/Core/AVR8/../AVR8/../AVR8/Endpoint_AVR8.h **** 				return ((UEINTX & (1 << TXINI)) ? true : false);
 2064               		.loc 2 407 0
 2065 0058 8091 E800 		lds r24,232
 2066               	.LBE350:
 2067               	.LBE349:
  57:../../tmk_core/protocol/lufa/LUFA-git/LUFA/Drivers/USB/Core/AVR8/Template/Template_Endpoint_Control_W.c **** 		if (Endpoint_IsINReady())
 2068               		.loc 4 57 0
 2069 005c 80FF      		sbrs r24,0
 2070 005e 00C0      		rjmp .L167
 2071               	.LBB351:
 2072               	.LBB352:
 2073               	.LBB353:
 227:../../tmk_core/protocol/lufa/LUFA-git/LUFA/Drivers/USB/Core/AVR8/../AVR8/../AVR8/Endpoint_AVR8.h **** 					return (((uint16_t)UEBCHX << 8) | UEBCLX);
 2074               		.loc 2 227 0
 2075 0060 2091 F300 		lds r18,243
 2076               	.LVL211:
 2077 0064 8091 F200 		lds r24,242
 2078 0068 90E0      		ldi r25,0
 2079 006a 922B      		or r25,r18
 2080               	.L168:
 2081               	.LVL212:
 2082               	.LBE353:
 2083               	.LBE352:
  61:../../tmk_core/protocol/lufa/LUFA-git/LUFA/Drivers/USB/Core/AVR8/Template/Template_Endpoint_Control_W.c **** 			while (Length && (BytesInEndpoint < USB_Device_ControlEndpointSize))
 2084               		.loc 4 61 0 discriminator 1
 2085 006c 6115      		cp r22,__zero_reg__
 2086 006e 7105      		cpc r23,__zero_reg__
 2087 0070 01F0      		breq .L169
  61:../../tmk_core/protocol/lufa/LUFA-git/LUFA/Drivers/USB/Core/AVR8/Template/Template_Endpoint_Control_W.c **** 			while (Length && (BytesInEndpoint < USB_Device_ControlEndpointSize))
 2088               		.loc 4 61 0 is_stmt 0 discriminator 2
 2089 0072 8830      		cpi r24,8
 2090 0074 9105      		cpc r25,__zero_reg__
 2091 0076 00F4      		brsh .L169
  63:../../tmk_core/protocol/lufa/LUFA-git/LUFA/Drivers/USB/Core/AVR8/Template/Template_Endpoint_Control_W.c **** 				TEMPLATE_TRANSFER_BYTE(DataStream);
 2092               		.loc 4 63 0 is_stmt 1
 2093 0078 2191      		ld r18,Z+
 2094               	.LVL213:
 2095               	.LBB354:
 2096               	.LBB355:
 554:../../tmk_core/protocol/lufa/LUFA-git/LUFA/Drivers/USB/Core/AVR8/../AVR8/../AVR8/Endpoint_AVR8.h **** 				UEDATX = Data;
 2097               		.loc 2 554 0
 2098 007a 2093 F100 		sts 241,r18
 2099               	.LVL214:
 2100               	.LBE355:
 2101               	.LBE354:
  65:../../tmk_core/protocol/lufa/LUFA-git/LUFA/Drivers/USB/Core/AVR8/Template/Template_Endpoint_Control_W.c **** 				Length--;
 2102               		.loc 4 65 0
 2103 007e 6150      		subi r22,1
 2104 0080 7109      		sbc r23,__zero_reg__
 2105               	.LVL215:
  66:../../tmk_core/protocol/lufa/LUFA-git/LUFA/Drivers/USB/Core/AVR8/Template/Template_Endpoint_Control_W.c **** 				BytesInEndpoint++;
 2106               		.loc 4 66 0
 2107 0082 0196      		adiw r24,1
 2108               	.LVL216:
 2109 0084 00C0      		rjmp .L168
 2110               	.LVL217:
 2111               	.L169:
  69:../../tmk_core/protocol/lufa/LUFA-git/LUFA/Drivers/USB/Core/AVR8/Template/Template_Endpoint_Control_W.c **** 			LastPacketFull = (BytesInEndpoint == USB_Device_ControlEndpointSize);
 2112               		.loc 4 69 0
 2113 0086 21E0      		ldi r18,lo8(1)
 2114 0088 0897      		sbiw r24,8
 2115 008a 01F0      		breq .L171
 2116 008c 20E0      		ldi r18,0
 2117               	.L171:
 2118               	.LVL218:
 2119               	.LBB356:
 2120               	.LBB357:
 456:../../tmk_core/protocol/lufa/LUFA-git/LUFA/Drivers/USB/Core/AVR8/../AVR8/../AVR8/Endpoint_AVR8.h **** 					UEINTX &= ~((1 << TXINI) | (1 << FIFOCON));
 2121               		.loc 2 456 0
 2122 008e 8091 E800 		lds r24,232
 2123               	.LVL219:
 2124 0092 8E77      		andi r24,lo8(126)
 2125 0094 8093 E800 		sts 232,r24
 2126 0098 00C0      		rjmp .L167
 2127               	.L188:
 2128               	.LBE357:
 2129               	.LBE356:
 2130               	.LBE351:
 2131               	.LBE360:
  44:../../tmk_core/protocol/lufa/LUFA-git/LUFA/Drivers/USB/Core/AVR8/Template/Template_Endpoint_Control_W.c **** 	while (Length || LastPacketFull)
 2132               		.loc 4 44 0 discriminator 2
 2133 009a 2111      		cpse r18,__zero_reg__
 2134 009c 00C0      		rjmp .L172
 2135 009e 00C0      		rjmp .L174
 2136               	.L165:
 2137               	.LBB361:
  76:../../tmk_core/protocol/lufa/LUFA-git/LUFA/Drivers/USB/Core/AVR8/Template/Template_Endpoint_Control_W.c **** 		uint8_t USB_DeviceState_LCL = USB_DeviceState;
 2138               		.loc 4 76 0
 2139 00a0 8091 0000 		lds r24,USB_DeviceState
 2140               	.LVL220:
  78:../../tmk_core/protocol/lufa/LUFA-git/LUFA/Drivers/USB/Core/AVR8/Template/Template_Endpoint_Control_W.c **** 		if (USB_DeviceState_LCL == DEVICE_STATE_Unattached)
 2141               		.loc 4 78 0
 2142 00a4 8823      		tst r24
 2143 00a6 01F0      		breq .L179
  80:../../tmk_core/protocol/lufa/LUFA-git/LUFA/Drivers/USB/Core/AVR8/Template/Template_Endpoint_Control_W.c **** 		else if (USB_DeviceState_LCL == DEVICE_STATE_Suspended)
 2144               		.loc 4 80 0
 2145 00a8 8530      		cpi r24,lo8(5)
 2146 00aa 01F0      		breq .L180
 2147               	.LBB362:
 2148               	.LBB363:
 431:../../tmk_core/protocol/lufa/LUFA-git/LUFA/Drivers/USB/Core/AVR8/../AVR8/../AVR8/Endpoint_AVR8.h **** 				return ((UEINTX & (1 << RXSTPI)) ? true : false);
 2149               		.loc 2 431 0
 2150 00ac 8091 E800 		lds r24,232
 2151               	.LVL221:
 2152               	.LBE363:
 2153               	.LBE362:
  82:../../tmk_core/protocol/lufa/LUFA-git/LUFA/Drivers/USB/Core/AVR8/Template/Template_Endpoint_Control_W.c **** 		else if (Endpoint_IsSETUPReceived())
 2154               		.loc 4 82 0
 2155 00b0 83FF      		sbrs r24,3
 2156 00b2 00C0      		rjmp .L174
 2157 00b4 00C0      		rjmp .L181
 2158               	.L179:
 2159               	.LBE361:
 2160               	.LBB364:
  49:../../tmk_core/protocol/lufa/LUFA-git/LUFA/Drivers/USB/Core/AVR8/Template/Template_Endpoint_Control_W.c **** 		  return ENDPOINT_RWCSTREAM_DeviceDisconnected;
 2161               		.loc 4 49 0
 2162 00b6 82E0      		ldi r24,lo8(2)
 2163 00b8 0895      		ret
 2164               	.L180:
  51:../../tmk_core/protocol/lufa/LUFA-git/LUFA/Drivers/USB/Core/AVR8/Template/Template_Endpoint_Control_W.c **** 		  return ENDPOINT_RWCSTREAM_BusSuspended;
 2165               		.loc 4 51 0
 2166 00ba 83E0      		ldi r24,lo8(3)
 2167 00bc 0895      		ret
 2168               	.L181:
  53:../../tmk_core/protocol/lufa/LUFA-git/LUFA/Drivers/USB/Core/AVR8/Template/Template_Endpoint_Control_W.c **** 		  return ENDPOINT_RWCSTREAM_HostAborted;
 2169               		.loc 4 53 0
 2170 00be 81E0      		ldi r24,lo8(1)
 2171               	.LBE364:
  87:../../tmk_core/protocol/lufa/LUFA-git/LUFA/Drivers/USB/Core/AVR8/Template/Template_Endpoint_Control_W.c **** }
 2172               		.loc 4 87 0
 2173 00c0 0895      		ret
 2174               		.cfi_endproc
 2175               	.LFE97:
 2177               		.section	.text.Endpoint_Write_Control_Stream_BE,"ax",@progbits
 2178               	.global	Endpoint_Write_Control_Stream_BE
 2180               	Endpoint_Write_Control_Stream_BE:
 2181               	.LFB98:
  35:../../tmk_core/protocol/lufa/LUFA-git/LUFA/Drivers/USB/Core/AVR8/Template/Template_Endpoint_Control_W.c **** {
 2182               		.loc 4 35 0
 2183               		.cfi_startproc
 2184               	.LVL222:
 2185               	/* prologue: function */
 2186               	/* frame size = 0 */
 2187               	/* stack size = 0 */
 2188               	.L__stack_usage = 0
  36:../../tmk_core/protocol/lufa/LUFA-git/LUFA/Drivers/USB/Core/AVR8/Template/Template_Endpoint_Control_W.c **** 	uint8_t* DataStream     = ((uint8_t*)Buffer + TEMPLATE_BUFFER_OFFSET(Length));
 2189               		.loc 4 36 0
 2190 0000 FB01      		movw r30,r22
 2191 0002 3197      		sbiw r30,1
 2192 0004 E80F      		add r30,r24
 2193 0006 F91F      		adc r31,r25
 2194               	.LVL223:
  39:../../tmk_core/protocol/lufa/LUFA-git/LUFA/Drivers/USB/Core/AVR8/Template/Template_Endpoint_Control_W.c **** 	if (Length > USB_ControlRequest.wLength)
 2195               		.loc 4 39 0
 2196 0008 8091 0000 		lds r24,USB_ControlRequest+6
 2197 000c 9091 0000 		lds r25,USB_ControlRequest+6+1
 2198               	.LVL224:
 2199 0010 8617      		cp r24,r22
 2200 0012 9707      		cpc r25,r23
 2201 0014 00F0      		brlo .L204
  41:../../tmk_core/protocol/lufa/LUFA-git/LUFA/Drivers/USB/Core/AVR8/Template/Template_Endpoint_Control_W.c **** 	else if (!(Length))
 2202               		.loc 4 41 0
 2203 0016 6115      		cp r22,__zero_reg__
 2204 0018 7105      		cpc r23,__zero_reg__
 2205 001a 01F4      		brne .L190
 2206               	.LBB365:
 2207               	.LBB366:
 456:../../tmk_core/protocol/lufa/LUFA-git/LUFA/Drivers/USB/Core/AVR8/../AVR8/../AVR8/Endpoint_AVR8.h **** 					UEINTX &= ~((1 << TXINI) | (1 << FIFOCON));
 2208               		.loc 2 456 0
 2209 001c 8091 E800 		lds r24,232
 2210 0020 8E77      		andi r24,lo8(126)
 2211 0022 8093 E800 		sts 232,r24
 2212 0026 00C0      		rjmp .L190
 2213               	.L204:
 2214               	.LBE366:
 2215               	.LBE365:
 2216 0028 BC01      		movw r22,r24
 2217               	.LVL225:
 2218               	.L190:
 2219 002a 80E0      		ldi r24,0
 2220               	.LVL226:
 2221               	.L196:
  44:../../tmk_core/protocol/lufa/LUFA-git/LUFA/Drivers/USB/Core/AVR8/Template/Template_Endpoint_Control_W.c **** 	while (Length || LastPacketFull)
 2222               		.loc 4 44 0 discriminator 1
 2223 002c 6115      		cp r22,__zero_reg__
 2224 002e 7105      		cpc r23,__zero_reg__
 2225 0030 01F0      		breq .L217
 2226               	.L201:
 2227               	.LBB367:
  46:../../tmk_core/protocol/lufa/LUFA-git/LUFA/Drivers/USB/Core/AVR8/Template/Template_Endpoint_Control_W.c **** 		uint8_t USB_DeviceState_LCL = USB_DeviceState;
 2228               		.loc 4 46 0
 2229 0032 9091 0000 		lds r25,USB_DeviceState
 2230               	.LVL227:
  48:../../tmk_core/protocol/lufa/LUFA-git/LUFA/Drivers/USB/Core/AVR8/Template/Template_Endpoint_Control_W.c **** 		if (USB_DeviceState_LCL == DEVICE_STATE_Unattached)
 2231               		.loc 4 48 0
 2232 0036 9923      		tst r25
 2233 0038 01F4      		brne .+2
 2234 003a 00C0      		rjmp .L208
  50:../../tmk_core/protocol/lufa/LUFA-git/LUFA/Drivers/USB/Core/AVR8/Template/Template_Endpoint_Control_W.c **** 		else if (USB_DeviceState_LCL == DEVICE_STATE_Suspended)
 2235               		.loc 4 50 0
 2236 003c 9530      		cpi r25,lo8(5)
 2237 003e 01F4      		brne .+2
 2238 0040 00C0      		rjmp .L209
 2239               	.LBB368:
 2240               	.LBB369:
 431:../../tmk_core/protocol/lufa/LUFA-git/LUFA/Drivers/USB/Core/AVR8/../AVR8/../AVR8/Endpoint_AVR8.h **** 				return ((UEINTX & (1 << RXSTPI)) ? true : false);
 2241               		.loc 2 431 0
 2242 0042 9091 E800 		lds r25,232
 2243               	.LVL228:
 2244               	.LBE369:
 2245               	.LBE368:
  52:../../tmk_core/protocol/lufa/LUFA-git/LUFA/Drivers/USB/Core/AVR8/Template/Template_Endpoint_Control_W.c **** 		else if (Endpoint_IsSETUPReceived())
 2246               		.loc 4 52 0
 2247 0046 93FD      		sbrc r25,3
 2248 0048 00C0      		rjmp .L210
 2249               	.LBB370:
 2250               	.LBB371:
 419:../../tmk_core/protocol/lufa/LUFA-git/LUFA/Drivers/USB/Core/AVR8/../AVR8/../AVR8/Endpoint_AVR8.h **** 				return ((UEINTX & (1 << RXOUTI)) ? true : false);
 2251               		.loc 2 419 0
 2252 004a 9091 E800 		lds r25,232
 2253               	.LBE371:
 2254               	.LBE370:
  54:../../tmk_core/protocol/lufa/LUFA-git/LUFA/Drivers/USB/Core/AVR8/Template/Template_Endpoint_Control_W.c **** 		else if (Endpoint_IsOUTReceived())
 2255               		.loc 4 54 0
 2256 004e 92FF      		sbrs r25,2
 2257 0050 00C0      		rjmp .L193
 2258               	.LVL229:
 2259               	.L203:
 2260               	.LBE367:
 2261               	.LBB381:
 2262               	.LBB382:
 419:../../tmk_core/protocol/lufa/LUFA-git/LUFA/Drivers/USB/Core/AVR8/../AVR8/../AVR8/Endpoint_AVR8.h **** 				return ((UEINTX & (1 << RXOUTI)) ? true : false);
 2263               		.loc 2 419 0 discriminator 1
 2264 0052 8091 E800 		lds r24,232
 2265               	.LBE382:
 2266               	.LBE381:
  74:../../tmk_core/protocol/lufa/LUFA-git/LUFA/Drivers/USB/Core/AVR8/Template/Template_Endpoint_Control_W.c **** 	while (!(Endpoint_IsOUTReceived()))
 2267               		.loc 4 74 0 discriminator 1
 2268 0056 82FF      		sbrs r24,2
 2269 0058 00C0      		rjmp .L194
  86:../../tmk_core/protocol/lufa/LUFA-git/LUFA/Drivers/USB/Core/AVR8/Template/Template_Endpoint_Control_W.c **** 	return ENDPOINT_RWCSTREAM_NoError;
 2270               		.loc 4 86 0
 2271 005a 80E0      		ldi r24,0
 2272 005c 0895      		ret
 2273               	.LVL230:
 2274               	.L193:
 2275               	.LBB383:
 2276               	.LBB372:
 2277               	.LBB373:
 407:../../tmk_core/protocol/lufa/LUFA-git/LUFA/Drivers/USB/Core/AVR8/../AVR8/../AVR8/Endpoint_AVR8.h **** 				return ((UEINTX & (1 << TXINI)) ? true : false);
 2278               		.loc 2 407 0
 2279 005e 9091 E800 		lds r25,232
 2280               	.LBE373:
 2281               	.LBE372:
  57:../../tmk_core/protocol/lufa/LUFA-git/LUFA/Drivers/USB/Core/AVR8/Template/Template_Endpoint_Control_W.c **** 		if (Endpoint_IsINReady())
 2282               		.loc 4 57 0
 2283 0062 90FF      		sbrs r25,0
 2284 0064 00C0      		rjmp .L196
 2285               	.LBB374:
 2286               	.LBB375:
 2287               	.LBB376:
 227:../../tmk_core/protocol/lufa/LUFA-git/LUFA/Drivers/USB/Core/AVR8/../AVR8/../AVR8/Endpoint_AVR8.h **** 					return (((uint16_t)UEBCHX << 8) | UEBCLX);
 2288               		.loc 2 227 0
 2289 0066 8091 F300 		lds r24,243
 2290               	.LVL231:
 2291 006a 2091 F200 		lds r18,242
 2292 006e 30E0      		ldi r19,0
 2293 0070 382B      		or r19,r24
 2294               	.L197:
 2295               	.LVL232:
 2296               	.LBE376:
 2297               	.LBE375:
  61:../../tmk_core/protocol/lufa/LUFA-git/LUFA/Drivers/USB/Core/AVR8/Template/Template_Endpoint_Control_W.c **** 			while (Length && (BytesInEndpoint < USB_Device_ControlEndpointSize))
 2298               		.loc 4 61 0 discriminator 1
 2299 0072 6115      		cp r22,__zero_reg__
 2300 0074 7105      		cpc r23,__zero_reg__
 2301 0076 01F0      		breq .L198
  61:../../tmk_core/protocol/lufa/LUFA-git/LUFA/Drivers/USB/Core/AVR8/Template/Template_Endpoint_Control_W.c **** 			while (Length && (BytesInEndpoint < USB_Device_ControlEndpointSize))
 2302               		.loc 4 61 0 is_stmt 0 discriminator 2
 2303 0078 2830      		cpi r18,8
 2304 007a 3105      		cpc r19,__zero_reg__
 2305 007c 00F4      		brsh .L198
  63:../../tmk_core/protocol/lufa/LUFA-git/LUFA/Drivers/USB/Core/AVR8/Template/Template_Endpoint_Control_W.c **** 				TEMPLATE_TRANSFER_BYTE(DataStream);
 2306               		.loc 4 63 0 is_stmt 1
 2307 007e 8081      		ld r24,Z
 2308               	.LVL233:
 2309               	.LBB377:
 2310               	.LBB378:
 554:../../tmk_core/protocol/lufa/LUFA-git/LUFA/Drivers/USB/Core/AVR8/../AVR8/../AVR8/Endpoint_AVR8.h **** 				UEDATX = Data;
 2311               		.loc 2 554 0
 2312 0080 8093 F100 		sts 241,r24
 2313               	.LBE378:
 2314               	.LBE377:
  64:../../tmk_core/protocol/lufa/LUFA-git/LUFA/Drivers/USB/Core/AVR8/Template/Template_Endpoint_Control_W.c **** 				TEMPLATE_BUFFER_MOVE(DataStream, 1);
 2315               		.loc 4 64 0
 2316 0084 3197      		sbiw r30,1
 2317               	.LVL234:
  65:../../tmk_core/protocol/lufa/LUFA-git/LUFA/Drivers/USB/Core/AVR8/Template/Template_Endpoint_Control_W.c **** 				Length--;
 2318               		.loc 4 65 0
 2319 0086 6150      		subi r22,1
 2320 0088 7109      		sbc r23,__zero_reg__
 2321               	.LVL235:
  66:../../tmk_core/protocol/lufa/LUFA-git/LUFA/Drivers/USB/Core/AVR8/Template/Template_Endpoint_Control_W.c **** 				BytesInEndpoint++;
 2322               		.loc 4 66 0
 2323 008a 2F5F      		subi r18,-1
 2324 008c 3F4F      		sbci r19,-1
 2325               	.LVL236:
 2326 008e 00C0      		rjmp .L197
 2327               	.LVL237:
 2328               	.L198:
  69:../../tmk_core/protocol/lufa/LUFA-git/LUFA/Drivers/USB/Core/AVR8/Template/Template_Endpoint_Control_W.c **** 			LastPacketFull = (BytesInEndpoint == USB_Device_ControlEndpointSize);
 2329               		.loc 4 69 0
 2330 0090 81E0      		ldi r24,lo8(1)
 2331 0092 2830      		cpi r18,8
 2332 0094 3105      		cpc r19,__zero_reg__
 2333 0096 01F0      		breq .L200
 2334 0098 80E0      		ldi r24,0
 2335               	.L200:
 2336               	.LVL238:
 2337               	.LBB379:
 2338               	.LBB380:
 456:../../tmk_core/protocol/lufa/LUFA-git/LUFA/Drivers/USB/Core/AVR8/../AVR8/../AVR8/Endpoint_AVR8.h **** 					UEINTX &= ~((1 << TXINI) | (1 << FIFOCON));
 2339               		.loc 2 456 0
 2340 009a 9091 E800 		lds r25,232
 2341 009e 9E77      		andi r25,lo8(126)
 2342 00a0 9093 E800 		sts 232,r25
 2343 00a4 00C0      		rjmp .L196
 2344               	.LVL239:
 2345               	.L217:
 2346               	.LBE380:
 2347               	.LBE379:
 2348               	.LBE374:
 2349               	.LBE383:
  44:../../tmk_core/protocol/lufa/LUFA-git/LUFA/Drivers/USB/Core/AVR8/Template/Template_Endpoint_Control_W.c **** 	while (Length || LastPacketFull)
 2350               		.loc 4 44 0 discriminator 2
 2351 00a6 8111      		cpse r24,__zero_reg__
 2352 00a8 00C0      		rjmp .L201
 2353 00aa 00C0      		rjmp .L203
 2354               	.LVL240:
 2355               	.L194:
 2356               	.LBB384:
  76:../../tmk_core/protocol/lufa/LUFA-git/LUFA/Drivers/USB/Core/AVR8/Template/Template_Endpoint_Control_W.c **** 		uint8_t USB_DeviceState_LCL = USB_DeviceState;
 2357               		.loc 4 76 0
 2358 00ac 8091 0000 		lds r24,USB_DeviceState
 2359               	.LVL241:
  78:../../tmk_core/protocol/lufa/LUFA-git/LUFA/Drivers/USB/Core/AVR8/Template/Template_Endpoint_Control_W.c **** 		if (USB_DeviceState_LCL == DEVICE_STATE_Unattached)
 2360               		.loc 4 78 0
 2361 00b0 8823      		tst r24
 2362 00b2 01F0      		breq .L208
  80:../../tmk_core/protocol/lufa/LUFA-git/LUFA/Drivers/USB/Core/AVR8/Template/Template_Endpoint_Control_W.c **** 		else if (USB_DeviceState_LCL == DEVICE_STATE_Suspended)
 2363               		.loc 4 80 0
 2364 00b4 8530      		cpi r24,lo8(5)
 2365 00b6 01F0      		breq .L209
 2366               	.LBB385:
 2367               	.LBB386:
 431:../../tmk_core/protocol/lufa/LUFA-git/LUFA/Drivers/USB/Core/AVR8/../AVR8/../AVR8/Endpoint_AVR8.h **** 				return ((UEINTX & (1 << RXSTPI)) ? true : false);
 2368               		.loc 2 431 0
 2369 00b8 8091 E800 		lds r24,232
 2370               	.LVL242:
 2371               	.LBE386:
 2372               	.LBE385:
  82:../../tmk_core/protocol/lufa/LUFA-git/LUFA/Drivers/USB/Core/AVR8/Template/Template_Endpoint_Control_W.c **** 		else if (Endpoint_IsSETUPReceived())
 2373               		.loc 4 82 0
 2374 00bc 83FF      		sbrs r24,3
 2375 00be 00C0      		rjmp .L203
 2376 00c0 00C0      		rjmp .L210
 2377               	.L208:
 2378               	.LBE384:
 2379               	.LBB387:
  49:../../tmk_core/protocol/lufa/LUFA-git/LUFA/Drivers/USB/Core/AVR8/Template/Template_Endpoint_Control_W.c **** 		  return ENDPOINT_RWCSTREAM_DeviceDisconnected;
 2380               		.loc 4 49 0
 2381 00c2 82E0      		ldi r24,lo8(2)
 2382 00c4 0895      		ret
 2383               	.L209:
  51:../../tmk_core/protocol/lufa/LUFA-git/LUFA/Drivers/USB/Core/AVR8/Template/Template_Endpoint_Control_W.c **** 		  return ENDPOINT_RWCSTREAM_BusSuspended;
 2384               		.loc 4 51 0
 2385 00c6 83E0      		ldi r24,lo8(3)
 2386 00c8 0895      		ret
 2387               	.L210:
  53:../../tmk_core/protocol/lufa/LUFA-git/LUFA/Drivers/USB/Core/AVR8/Template/Template_Endpoint_Control_W.c **** 		  return ENDPOINT_RWCSTREAM_HostAborted;
 2388               		.loc 4 53 0
 2389 00ca 81E0      		ldi r24,lo8(1)
 2390               	.LBE387:
 2391               		.loc 4 87 0
 2392 00cc 0895      		ret
 2393               		.cfi_endproc
 2394               	.LFE98:
 2396               		.section	.text.Endpoint_Read_Control_Stream_LE,"ax",@progbits
 2397               	.global	Endpoint_Read_Control_Stream_LE
 2399               	Endpoint_Read_Control_Stream_LE:
 2400               	.LFB99:
 2401               		.file 5 "../../tmk_core/protocol/lufa/LUFA-git/LUFA/Drivers/USB/Core/AVR8/Template/Template_Endpoi
   1:../../tmk_core/protocol/lufa/LUFA-git/LUFA/Drivers/USB/Core/AVR8/Template/Template_Endpoint_Control_R.c **** /*
   2:../../tmk_core/protocol/lufa/LUFA-git/LUFA/Drivers/USB/Core/AVR8/Template/Template_Endpoint_Control_R.c ****              LUFA Library
   3:../../tmk_core/protocol/lufa/LUFA-git/LUFA/Drivers/USB/Core/AVR8/Template/Template_Endpoint_Control_R.c ****      Copyright (C) Dean Camera, 2014.
   4:../../tmk_core/protocol/lufa/LUFA-git/LUFA/Drivers/USB/Core/AVR8/Template/Template_Endpoint_Control_R.c **** 
   5:../../tmk_core/protocol/lufa/LUFA-git/LUFA/Drivers/USB/Core/AVR8/Template/Template_Endpoint_Control_R.c ****   dean [at] fourwalledcubicle [dot] com
   6:../../tmk_core/protocol/lufa/LUFA-git/LUFA/Drivers/USB/Core/AVR8/Template/Template_Endpoint_Control_R.c ****            www.lufa-lib.org
   7:../../tmk_core/protocol/lufa/LUFA-git/LUFA/Drivers/USB/Core/AVR8/Template/Template_Endpoint_Control_R.c **** */
   8:../../tmk_core/protocol/lufa/LUFA-git/LUFA/Drivers/USB/Core/AVR8/Template/Template_Endpoint_Control_R.c **** 
   9:../../tmk_core/protocol/lufa/LUFA-git/LUFA/Drivers/USB/Core/AVR8/Template/Template_Endpoint_Control_R.c **** /*
  10:../../tmk_core/protocol/lufa/LUFA-git/LUFA/Drivers/USB/Core/AVR8/Template/Template_Endpoint_Control_R.c ****   Copyright 2014  Dean Camera (dean [at] fourwalledcubicle [dot] com)
  11:../../tmk_core/protocol/lufa/LUFA-git/LUFA/Drivers/USB/Core/AVR8/Template/Template_Endpoint_Control_R.c **** 
  12:../../tmk_core/protocol/lufa/LUFA-git/LUFA/Drivers/USB/Core/AVR8/Template/Template_Endpoint_Control_R.c ****   Permission to use, copy, modify, distribute, and sell this
  13:../../tmk_core/protocol/lufa/LUFA-git/LUFA/Drivers/USB/Core/AVR8/Template/Template_Endpoint_Control_R.c ****   software and its documentation for any purpose is hereby granted
  14:../../tmk_core/protocol/lufa/LUFA-git/LUFA/Drivers/USB/Core/AVR8/Template/Template_Endpoint_Control_R.c ****   without fee, provided that the above copyright notice appear in
  15:../../tmk_core/protocol/lufa/LUFA-git/LUFA/Drivers/USB/Core/AVR8/Template/Template_Endpoint_Control_R.c ****   all copies and that both that the copyright notice and this
  16:../../tmk_core/protocol/lufa/LUFA-git/LUFA/Drivers/USB/Core/AVR8/Template/Template_Endpoint_Control_R.c ****   permission notice and warranty disclaimer appear in supporting
  17:../../tmk_core/protocol/lufa/LUFA-git/LUFA/Drivers/USB/Core/AVR8/Template/Template_Endpoint_Control_R.c ****   documentation, and that the name of the author not be used in
  18:../../tmk_core/protocol/lufa/LUFA-git/LUFA/Drivers/USB/Core/AVR8/Template/Template_Endpoint_Control_R.c ****   advertising or publicity pertaining to distribution of the
  19:../../tmk_core/protocol/lufa/LUFA-git/LUFA/Drivers/USB/Core/AVR8/Template/Template_Endpoint_Control_R.c ****   software without specific, written prior permission.
  20:../../tmk_core/protocol/lufa/LUFA-git/LUFA/Drivers/USB/Core/AVR8/Template/Template_Endpoint_Control_R.c **** 
  21:../../tmk_core/protocol/lufa/LUFA-git/LUFA/Drivers/USB/Core/AVR8/Template/Template_Endpoint_Control_R.c ****   The author disclaims all warranties with regard to this
  22:../../tmk_core/protocol/lufa/LUFA-git/LUFA/Drivers/USB/Core/AVR8/Template/Template_Endpoint_Control_R.c ****   software, including all implied warranties of merchantability
  23:../../tmk_core/protocol/lufa/LUFA-git/LUFA/Drivers/USB/Core/AVR8/Template/Template_Endpoint_Control_R.c ****   and fitness.  In no event shall the author be liable for any
  24:../../tmk_core/protocol/lufa/LUFA-git/LUFA/Drivers/USB/Core/AVR8/Template/Template_Endpoint_Control_R.c ****   special, indirect or consequential damages or any damages
  25:../../tmk_core/protocol/lufa/LUFA-git/LUFA/Drivers/USB/Core/AVR8/Template/Template_Endpoint_Control_R.c ****   whatsoever resulting from loss of use, data or profits, whether
  26:../../tmk_core/protocol/lufa/LUFA-git/LUFA/Drivers/USB/Core/AVR8/Template/Template_Endpoint_Control_R.c ****   in an action of contract, negligence or other tortious action,
  27:../../tmk_core/protocol/lufa/LUFA-git/LUFA/Drivers/USB/Core/AVR8/Template/Template_Endpoint_Control_R.c ****   arising out of or in connection with the use or performance of
  28:../../tmk_core/protocol/lufa/LUFA-git/LUFA/Drivers/USB/Core/AVR8/Template/Template_Endpoint_Control_R.c ****   this software.
  29:../../tmk_core/protocol/lufa/LUFA-git/LUFA/Drivers/USB/Core/AVR8/Template/Template_Endpoint_Control_R.c **** */
  30:../../tmk_core/protocol/lufa/LUFA-git/LUFA/Drivers/USB/Core/AVR8/Template/Template_Endpoint_Control_R.c **** 
  31:../../tmk_core/protocol/lufa/LUFA-git/LUFA/Drivers/USB/Core/AVR8/Template/Template_Endpoint_Control_R.c **** #if defined(TEMPLATE_FUNC_NAME)
  32:../../tmk_core/protocol/lufa/LUFA-git/LUFA/Drivers/USB/Core/AVR8/Template/Template_Endpoint_Control_R.c **** 
  33:../../tmk_core/protocol/lufa/LUFA-git/LUFA/Drivers/USB/Core/AVR8/Template/Template_Endpoint_Control_R.c **** uint8_t TEMPLATE_FUNC_NAME (void* const Buffer,
  34:../../tmk_core/protocol/lufa/LUFA-git/LUFA/Drivers/USB/Core/AVR8/Template/Template_Endpoint_Control_R.c ****                             uint16_t Length)
  35:../../tmk_core/protocol/lufa/LUFA-git/LUFA/Drivers/USB/Core/AVR8/Template/Template_Endpoint_Control_R.c **** {
 2402               		.loc 5 35 0
 2403               		.cfi_startproc
 2404               	.LVL243:
 2405               	/* prologue: function */
 2406               	/* frame size = 0 */
 2407               	/* stack size = 0 */
 2408               	.L__stack_usage = 0
  36:../../tmk_core/protocol/lufa/LUFA-git/LUFA/Drivers/USB/Core/AVR8/Template/Template_Endpoint_Control_R.c **** 	uint8_t* DataStream = ((uint8_t*)Buffer + TEMPLATE_BUFFER_OFFSET(Length));
  37:../../tmk_core/protocol/lufa/LUFA-git/LUFA/Drivers/USB/Core/AVR8/Template/Template_Endpoint_Control_R.c **** 
  38:../../tmk_core/protocol/lufa/LUFA-git/LUFA/Drivers/USB/Core/AVR8/Template/Template_Endpoint_Control_R.c **** 	if (!(Length))
 2409               		.loc 5 38 0
 2410 0000 6115      		cp r22,__zero_reg__
 2411 0002 7105      		cpc r23,__zero_reg__
 2412 0004 01F4      		brne .L220
 2413               	.LVL244:
 2414               	.L225:
 2415               	.LBB388:
 2416               	.LBB389:
 2417               	.LBB390:
 471:../../tmk_core/protocol/lufa/LUFA-git/LUFA/Drivers/USB/Core/AVR8/../AVR8/../AVR8/Endpoint_AVR8.h **** 					UEINTX &= ~((1 << RXOUTI) | (1 << FIFOCON));
 2418               		.loc 2 471 0
 2419 0006 2091 E800 		lds r18,232
 2420 000a 2B77      		andi r18,lo8(123)
 2421 000c 2093 E800 		sts 232,r18
 2422               	.L220:
 2423               	.LVL245:
 2424               	.LBE390:
 2425               	.LBE389:
 2426               	.LBE388:
  39:../../tmk_core/protocol/lufa/LUFA-git/LUFA/Drivers/USB/Core/AVR8/Template/Template_Endpoint_Control_R.c **** 	  Endpoint_ClearOUT();
  40:../../tmk_core/protocol/lufa/LUFA-git/LUFA/Drivers/USB/Core/AVR8/Template/Template_Endpoint_Control_R.c **** 
  41:../../tmk_core/protocol/lufa/LUFA-git/LUFA/Drivers/USB/Core/AVR8/Template/Template_Endpoint_Control_R.c **** 	while (Length)
 2427               		.loc 5 41 0 discriminator 1
 2428 0010 6115      		cp r22,__zero_reg__
 2429 0012 7105      		cpc r23,__zero_reg__
 2430 0014 01F0      		breq .L228
 2431               	.LVL246:
 2432               	.L223:
 2433               	.LBB399:
  42:../../tmk_core/protocol/lufa/LUFA-git/LUFA/Drivers/USB/Core/AVR8/Template/Template_Endpoint_Control_R.c **** 	{
  43:../../tmk_core/protocol/lufa/LUFA-git/LUFA/Drivers/USB/Core/AVR8/Template/Template_Endpoint_Control_R.c **** 		uint8_t USB_DeviceState_LCL = USB_DeviceState;
 2434               		.loc 5 43 0
 2435 0016 2091 0000 		lds r18,USB_DeviceState
 2436               	.LVL247:
  44:../../tmk_core/protocol/lufa/LUFA-git/LUFA/Drivers/USB/Core/AVR8/Template/Template_Endpoint_Control_R.c **** 
  45:../../tmk_core/protocol/lufa/LUFA-git/LUFA/Drivers/USB/Core/AVR8/Template/Template_Endpoint_Control_R.c **** 		if (USB_DeviceState_LCL == DEVICE_STATE_Unattached)
 2437               		.loc 5 45 0
 2438 001a 2223      		tst r18
 2439 001c 01F0      		breq .L233
  46:../../tmk_core/protocol/lufa/LUFA-git/LUFA/Drivers/USB/Core/AVR8/Template/Template_Endpoint_Control_R.c **** 		  return ENDPOINT_RWCSTREAM_DeviceDisconnected;
  47:../../tmk_core/protocol/lufa/LUFA-git/LUFA/Drivers/USB/Core/AVR8/Template/Template_Endpoint_Control_R.c **** 		else if (USB_DeviceState_LCL == DEVICE_STATE_Suspended)
 2440               		.loc 5 47 0
 2441 001e 2530      		cpi r18,lo8(5)
 2442 0020 01F0      		breq .L234
 2443               	.LBB391:
 2444               	.LBB392:
 431:../../tmk_core/protocol/lufa/LUFA-git/LUFA/Drivers/USB/Core/AVR8/../AVR8/../AVR8/Endpoint_AVR8.h **** 				return ((UEINTX & (1 << RXSTPI)) ? true : false);
 2445               		.loc 2 431 0
 2446 0022 2091 E800 		lds r18,232
 2447               	.LVL248:
 2448               	.LBE392:
 2449               	.LBE391:
  48:../../tmk_core/protocol/lufa/LUFA-git/LUFA/Drivers/USB/Core/AVR8/Template/Template_Endpoint_Control_R.c **** 		  return ENDPOINT_RWCSTREAM_BusSuspended;
  49:../../tmk_core/protocol/lufa/LUFA-git/LUFA/Drivers/USB/Core/AVR8/Template/Template_Endpoint_Control_R.c **** 		else if (Endpoint_IsSETUPReceived())
 2450               		.loc 5 49 0
 2451 0026 23FD      		sbrc r18,3
 2452 0028 00C0      		rjmp .L231
 2453               	.LBB393:
 2454               	.LBB394:
 419:../../tmk_core/protocol/lufa/LUFA-git/LUFA/Drivers/USB/Core/AVR8/../AVR8/../AVR8/Endpoint_AVR8.h **** 				return ((UEINTX & (1 << RXOUTI)) ? true : false);
 2455               		.loc 2 419 0
 2456 002a 2091 E800 		lds r18,232
 2457               	.LBE394:
 2458               	.LBE393:
  50:../../tmk_core/protocol/lufa/LUFA-git/LUFA/Drivers/USB/Core/AVR8/Template/Template_Endpoint_Control_R.c **** 		  return ENDPOINT_RWCSTREAM_HostAborted;
  51:../../tmk_core/protocol/lufa/LUFA-git/LUFA/Drivers/USB/Core/AVR8/Template/Template_Endpoint_Control_R.c **** 
  52:../../tmk_core/protocol/lufa/LUFA-git/LUFA/Drivers/USB/Core/AVR8/Template/Template_Endpoint_Control_R.c **** 		if (Endpoint_IsOUTReceived())
 2459               		.loc 5 52 0
 2460 002e 22FF      		sbrs r18,2
 2461 0030 00C0      		rjmp .L223
 2462 0032 FC01      		movw r30,r24
 2463               	.LVL249:
 2464               	.L224:
 2465 0034 CF01      		movw r24,r30
 2466               	.LVL250:
 2467               	.LBB395:
 2468               	.LBB396:
 227:../../tmk_core/protocol/lufa/LUFA-git/LUFA/Drivers/USB/Core/AVR8/../AVR8/../AVR8/Endpoint_AVR8.h **** 					return (((uint16_t)UEBCHX << 8) | UEBCLX);
 2469               		.loc 2 227 0
 2470 0036 4091 F300 		lds r20,243
 2471 003a 2091 F200 		lds r18,242
 2472 003e 30E0      		ldi r19,0
 2473 0040 342B      		or r19,r20
 2474               	.LBE396:
 2475               	.LBE395:
  53:../../tmk_core/protocol/lufa/LUFA-git/LUFA/Drivers/USB/Core/AVR8/Template/Template_Endpoint_Control_R.c **** 		{
  54:../../tmk_core/protocol/lufa/LUFA-git/LUFA/Drivers/USB/Core/AVR8/Template/Template_Endpoint_Control_R.c **** 			while (Length && Endpoint_BytesInEndpoint())
 2476               		.loc 5 54 0
 2477 0042 232B      		or r18,r19
 2478 0044 01F0      		breq .L225
 2479               	.LBB397:
 2480               	.LBB398:
 542:../../tmk_core/protocol/lufa/LUFA-git/LUFA/Drivers/USB/Core/AVR8/../AVR8/../AVR8/Endpoint_AVR8.h **** 				return UEDATX;
 2481               		.loc 2 542 0
 2482 0046 8091 F100 		lds r24,241
 2483               	.LVL251:
 2484               	.LBE398:
 2485               	.LBE397:
  55:../../tmk_core/protocol/lufa/LUFA-git/LUFA/Drivers/USB/Core/AVR8/Template/Template_Endpoint_Control_R.c **** 			{
  56:../../tmk_core/protocol/lufa/LUFA-git/LUFA/Drivers/USB/Core/AVR8/Template/Template_Endpoint_Control_R.c **** 				TEMPLATE_TRANSFER_BYTE(DataStream);
 2486               		.loc 5 56 0
 2487 004a 8193      		st Z+,r24
 2488               	.LVL252:
  57:../../tmk_core/protocol/lufa/LUFA-git/LUFA/Drivers/USB/Core/AVR8/Template/Template_Endpoint_Control_R.c **** 				TEMPLATE_BUFFER_MOVE(DataStream, 1);
 2489               		.loc 5 57 0
 2490 004c CF01      		movw r24,r30
 2491               	.LVL253:
  58:../../tmk_core/protocol/lufa/LUFA-git/LUFA/Drivers/USB/Core/AVR8/Template/Template_Endpoint_Control_R.c **** 				Length--;
 2492               		.loc 5 58 0
 2493 004e 6150      		subi r22,1
 2494 0050 7109      		sbc r23,__zero_reg__
 2495               	.LVL254:
  54:../../tmk_core/protocol/lufa/LUFA-git/LUFA/Drivers/USB/Core/AVR8/Template/Template_Endpoint_Control_R.c **** 			while (Length && Endpoint_BytesInEndpoint())
 2496               		.loc 5 54 0
 2497 0052 6115      		cp r22,__zero_reg__
 2498 0054 7105      		cpc r23,__zero_reg__
 2499 0056 01F4      		brne .L224
 2500 0058 00C0      		rjmp .L225
 2501               	.LVL255:
 2502               	.L238:
 2503               	.LBE399:
 2504               	.LBB400:
  59:../../tmk_core/protocol/lufa/LUFA-git/LUFA/Drivers/USB/Core/AVR8/Template/Template_Endpoint_Control_R.c **** 			}
  60:../../tmk_core/protocol/lufa/LUFA-git/LUFA/Drivers/USB/Core/AVR8/Template/Template_Endpoint_Control_R.c **** 
  61:../../tmk_core/protocol/lufa/LUFA-git/LUFA/Drivers/USB/Core/AVR8/Template/Template_Endpoint_Control_R.c **** 			Endpoint_ClearOUT();
  62:../../tmk_core/protocol/lufa/LUFA-git/LUFA/Drivers/USB/Core/AVR8/Template/Template_Endpoint_Control_R.c **** 		}
  63:../../tmk_core/protocol/lufa/LUFA-git/LUFA/Drivers/USB/Core/AVR8/Template/Template_Endpoint_Control_R.c **** 	}
  64:../../tmk_core/protocol/lufa/LUFA-git/LUFA/Drivers/USB/Core/AVR8/Template/Template_Endpoint_Control_R.c **** 
  65:../../tmk_core/protocol/lufa/LUFA-git/LUFA/Drivers/USB/Core/AVR8/Template/Template_Endpoint_Control_R.c **** 	while (!(Endpoint_IsINReady()))
  66:../../tmk_core/protocol/lufa/LUFA-git/LUFA/Drivers/USB/Core/AVR8/Template/Template_Endpoint_Control_R.c **** 	{
  67:../../tmk_core/protocol/lufa/LUFA-git/LUFA/Drivers/USB/Core/AVR8/Template/Template_Endpoint_Control_R.c **** 		uint8_t USB_DeviceState_LCL = USB_DeviceState;
 2505               		.loc 5 67 0
 2506 005a 8091 0000 		lds r24,USB_DeviceState
 2507               	.LVL256:
  68:../../tmk_core/protocol/lufa/LUFA-git/LUFA/Drivers/USB/Core/AVR8/Template/Template_Endpoint_Control_R.c **** 
  69:../../tmk_core/protocol/lufa/LUFA-git/LUFA/Drivers/USB/Core/AVR8/Template/Template_Endpoint_Control_R.c **** 		if (USB_DeviceState_LCL == DEVICE_STATE_Unattached)
 2508               		.loc 5 69 0
 2509 005e 8823      		tst r24
 2510 0060 01F0      		breq .L233
  70:../../tmk_core/protocol/lufa/LUFA-git/LUFA/Drivers/USB/Core/AVR8/Template/Template_Endpoint_Control_R.c **** 		  return ENDPOINT_RWCSTREAM_DeviceDisconnected;
  71:../../tmk_core/protocol/lufa/LUFA-git/LUFA/Drivers/USB/Core/AVR8/Template/Template_Endpoint_Control_R.c **** 		else if (USB_DeviceState_LCL == DEVICE_STATE_Suspended)
 2511               		.loc 5 71 0
 2512 0062 8530      		cpi r24,lo8(5)
 2513 0064 01F0      		breq .L234
 2514               	.LVL257:
 2515               	.L228:
 2516               	.LBE400:
 2517               	.LBB401:
 2518               	.LBB402:
 407:../../tmk_core/protocol/lufa/LUFA-git/LUFA/Drivers/USB/Core/AVR8/../AVR8/../AVR8/Endpoint_AVR8.h **** 				return ((UEINTX & (1 << TXINI)) ? true : false);
 2519               		.loc 2 407 0
 2520 0066 8091 E800 		lds r24,232
 2521               	.LBE402:
 2522               	.LBE401:
  65:../../tmk_core/protocol/lufa/LUFA-git/LUFA/Drivers/USB/Core/AVR8/Template/Template_Endpoint_Control_R.c **** 	while (!(Endpoint_IsINReady()))
 2523               		.loc 5 65 0
 2524 006a 80FF      		sbrs r24,0
 2525 006c 00C0      		rjmp .L238
 2526 006e 00C0      		rjmp .L232
 2527               	.LVL258:
 2528               	.L231:
 2529               	.LBB403:
  50:../../tmk_core/protocol/lufa/LUFA-git/LUFA/Drivers/USB/Core/AVR8/Template/Template_Endpoint_Control_R.c **** 		  return ENDPOINT_RWCSTREAM_HostAborted;
 2530               		.loc 5 50 0
 2531 0070 81E0      		ldi r24,lo8(1)
 2532               	.LVL259:
 2533 0072 0895      		ret
 2534               	.L232:
 2535               	.LBE403:
  72:../../tmk_core/protocol/lufa/LUFA-git/LUFA/Drivers/USB/Core/AVR8/Template/Template_Endpoint_Control_R.c **** 		  return ENDPOINT_RWCSTREAM_BusSuspended;
  73:../../tmk_core/protocol/lufa/LUFA-git/LUFA/Drivers/USB/Core/AVR8/Template/Template_Endpoint_Control_R.c **** 	}
  74:../../tmk_core/protocol/lufa/LUFA-git/LUFA/Drivers/USB/Core/AVR8/Template/Template_Endpoint_Control_R.c **** 
  75:../../tmk_core/protocol/lufa/LUFA-git/LUFA/Drivers/USB/Core/AVR8/Template/Template_Endpoint_Control_R.c **** 	return ENDPOINT_RWCSTREAM_NoError;
 2536               		.loc 5 75 0
 2537 0074 80E0      		ldi r24,0
 2538 0076 0895      		ret
 2539               	.L233:
 2540               	.LBB404:
  46:../../tmk_core/protocol/lufa/LUFA-git/LUFA/Drivers/USB/Core/AVR8/Template/Template_Endpoint_Control_R.c **** 		  return ENDPOINT_RWCSTREAM_DeviceDisconnected;
 2541               		.loc 5 46 0
 2542 0078 82E0      		ldi r24,lo8(2)
 2543 007a 0895      		ret
 2544               	.L234:
  48:../../tmk_core/protocol/lufa/LUFA-git/LUFA/Drivers/USB/Core/AVR8/Template/Template_Endpoint_Control_R.c **** 		  return ENDPOINT_RWCSTREAM_BusSuspended;
 2545               		.loc 5 48 0
 2546 007c 83E0      		ldi r24,lo8(3)
 2547               	.LBE404:
  76:../../tmk_core/protocol/lufa/LUFA-git/LUFA/Drivers/USB/Core/AVR8/Template/Template_Endpoint_Control_R.c **** }
 2548               		.loc 5 76 0
 2549 007e 0895      		ret
 2550               		.cfi_endproc
 2551               	.LFE99:
 2553               		.section	.text.Endpoint_Read_Control_Stream_BE,"ax",@progbits
 2554               	.global	Endpoint_Read_Control_Stream_BE
 2556               	Endpoint_Read_Control_Stream_BE:
 2557               	.LFB100:
  35:../../tmk_core/protocol/lufa/LUFA-git/LUFA/Drivers/USB/Core/AVR8/Template/Template_Endpoint_Control_R.c **** {
 2558               		.loc 5 35 0
 2559               		.cfi_startproc
 2560               	.LVL260:
 2561               	/* prologue: function */
 2562               	/* frame size = 0 */
 2563               	/* stack size = 0 */
 2564               	.L__stack_usage = 0
  36:../../tmk_core/protocol/lufa/LUFA-git/LUFA/Drivers/USB/Core/AVR8/Template/Template_Endpoint_Control_R.c **** 	uint8_t* DataStream = ((uint8_t*)Buffer + TEMPLATE_BUFFER_OFFSET(Length));
 2565               		.loc 5 36 0
 2566 0000 FB01      		movw r30,r22
 2567 0002 3197      		sbiw r30,1
 2568 0004 E80F      		add r30,r24
 2569 0006 F91F      		adc r31,r25
 2570               	.LVL261:
  38:../../tmk_core/protocol/lufa/LUFA-git/LUFA/Drivers/USB/Core/AVR8/Template/Template_Endpoint_Control_R.c **** 	if (!(Length))
 2571               		.loc 5 38 0
 2572 0008 6115      		cp r22,__zero_reg__
 2573 000a 7105      		cpc r23,__zero_reg__
 2574 000c 01F4      		brne .L241
 2575               	.LVL262:
 2576               	.L246:
 2577               	.LBB405:
 2578               	.LBB406:
 2579               	.LBB407:
 471:../../tmk_core/protocol/lufa/LUFA-git/LUFA/Drivers/USB/Core/AVR8/../AVR8/../AVR8/Endpoint_AVR8.h **** 					UEINTX &= ~((1 << RXOUTI) | (1 << FIFOCON));
 2580               		.loc 2 471 0
 2581 000e 8091 E800 		lds r24,232
 2582 0012 8B77      		andi r24,lo8(123)
 2583 0014 8093 E800 		sts 232,r24
 2584               	.L241:
 2585               	.LBE407:
 2586               	.LBE406:
 2587               	.LBE405:
  41:../../tmk_core/protocol/lufa/LUFA-git/LUFA/Drivers/USB/Core/AVR8/Template/Template_Endpoint_Control_R.c **** 	while (Length)
 2588               		.loc 5 41 0 discriminator 1
 2589 0018 6115      		cp r22,__zero_reg__
 2590 001a 7105      		cpc r23,__zero_reg__
 2591 001c 01F0      		breq .L249
 2592               	.L244:
 2593               	.LBB416:
  43:../../tmk_core/protocol/lufa/LUFA-git/LUFA/Drivers/USB/Core/AVR8/Template/Template_Endpoint_Control_R.c **** 		uint8_t USB_DeviceState_LCL = USB_DeviceState;
 2594               		.loc 5 43 0
 2595 001e 8091 0000 		lds r24,USB_DeviceState
 2596               	.LVL263:
  45:../../tmk_core/protocol/lufa/LUFA-git/LUFA/Drivers/USB/Core/AVR8/Template/Template_Endpoint_Control_R.c **** 		if (USB_DeviceState_LCL == DEVICE_STATE_Unattached)
 2597               		.loc 5 45 0
 2598 0022 8823      		tst r24
 2599 0024 01F0      		breq .L254
  47:../../tmk_core/protocol/lufa/LUFA-git/LUFA/Drivers/USB/Core/AVR8/Template/Template_Endpoint_Control_R.c **** 		else if (USB_DeviceState_LCL == DEVICE_STATE_Suspended)
 2600               		.loc 5 47 0
 2601 0026 8530      		cpi r24,lo8(5)
 2602 0028 01F0      		breq .L255
 2603               	.LBB408:
 2604               	.LBB409:
 431:../../tmk_core/protocol/lufa/LUFA-git/LUFA/Drivers/USB/Core/AVR8/../AVR8/../AVR8/Endpoint_AVR8.h **** 				return ((UEINTX & (1 << RXSTPI)) ? true : false);
 2605               		.loc 2 431 0
 2606 002a 8091 E800 		lds r24,232
 2607               	.LVL264:
 2608               	.LBE409:
 2609               	.LBE408:
  49:../../tmk_core/protocol/lufa/LUFA-git/LUFA/Drivers/USB/Core/AVR8/Template/Template_Endpoint_Control_R.c **** 		else if (Endpoint_IsSETUPReceived())
 2610               		.loc 5 49 0
 2611 002e 83FD      		sbrc r24,3
 2612 0030 00C0      		rjmp .L252
 2613               	.LBB410:
 2614               	.LBB411:
 419:../../tmk_core/protocol/lufa/LUFA-git/LUFA/Drivers/USB/Core/AVR8/../AVR8/../AVR8/Endpoint_AVR8.h **** 				return ((UEINTX & (1 << RXOUTI)) ? true : false);
 2615               		.loc 2 419 0
 2616 0032 8091 E800 		lds r24,232
 2617               	.LBE411:
 2618               	.LBE410:
  52:../../tmk_core/protocol/lufa/LUFA-git/LUFA/Drivers/USB/Core/AVR8/Template/Template_Endpoint_Control_R.c **** 		if (Endpoint_IsOUTReceived())
 2619               		.loc 5 52 0
 2620 0036 82FF      		sbrs r24,2
 2621 0038 00C0      		rjmp .L244
 2622               	.L245:
 2623               	.LBB412:
 2624               	.LBB413:
 227:../../tmk_core/protocol/lufa/LUFA-git/LUFA/Drivers/USB/Core/AVR8/../AVR8/../AVR8/Endpoint_AVR8.h **** 					return (((uint16_t)UEBCHX << 8) | UEBCLX);
 2625               		.loc 2 227 0
 2626 003a 2091 F300 		lds r18,243
 2627 003e 8091 F200 		lds r24,242
 2628 0042 90E0      		ldi r25,0
 2629 0044 922B      		or r25,r18
 2630               	.LBE413:
 2631               	.LBE412:
  54:../../tmk_core/protocol/lufa/LUFA-git/LUFA/Drivers/USB/Core/AVR8/Template/Template_Endpoint_Control_R.c **** 			while (Length && Endpoint_BytesInEndpoint())
 2632               		.loc 5 54 0
 2633 0046 892B      		or r24,r25
 2634 0048 01F0      		breq .L246
 2635               	.LBB414:
 2636               	.LBB415:
 542:../../tmk_core/protocol/lufa/LUFA-git/LUFA/Drivers/USB/Core/AVR8/../AVR8/../AVR8/Endpoint_AVR8.h **** 				return UEDATX;
 2637               		.loc 2 542 0
 2638 004a 8091 F100 		lds r24,241
 2639               	.LBE415:
 2640               	.LBE414:
  56:../../tmk_core/protocol/lufa/LUFA-git/LUFA/Drivers/USB/Core/AVR8/Template/Template_Endpoint_Control_R.c **** 				TEMPLATE_TRANSFER_BYTE(DataStream);
 2641               		.loc 5 56 0
 2642 004e 8083      		st Z,r24
  57:../../tmk_core/protocol/lufa/LUFA-git/LUFA/Drivers/USB/Core/AVR8/Template/Template_Endpoint_Control_R.c **** 				TEMPLATE_BUFFER_MOVE(DataStream, 1);
 2643               		.loc 5 57 0
 2644 0050 3197      		sbiw r30,1
 2645               	.LVL265:
  58:../../tmk_core/protocol/lufa/LUFA-git/LUFA/Drivers/USB/Core/AVR8/Template/Template_Endpoint_Control_R.c **** 				Length--;
 2646               		.loc 5 58 0
 2647 0052 6150      		subi r22,1
 2648 0054 7109      		sbc r23,__zero_reg__
 2649               	.LVL266:
  54:../../tmk_core/protocol/lufa/LUFA-git/LUFA/Drivers/USB/Core/AVR8/Template/Template_Endpoint_Control_R.c **** 			while (Length && Endpoint_BytesInEndpoint())
 2650               		.loc 5 54 0
 2651 0056 6115      		cp r22,__zero_reg__
 2652 0058 7105      		cpc r23,__zero_reg__
 2653 005a 01F4      		brne .L245
 2654 005c 00C0      		rjmp .L246
 2655               	.L259:
 2656               	.LBE416:
 2657               	.LBB417:
  67:../../tmk_core/protocol/lufa/LUFA-git/LUFA/Drivers/USB/Core/AVR8/Template/Template_Endpoint_Control_R.c **** 		uint8_t USB_DeviceState_LCL = USB_DeviceState;
 2658               		.loc 5 67 0
 2659 005e 8091 0000 		lds r24,USB_DeviceState
 2660               	.LVL267:
  69:../../tmk_core/protocol/lufa/LUFA-git/LUFA/Drivers/USB/Core/AVR8/Template/Template_Endpoint_Control_R.c **** 		if (USB_DeviceState_LCL == DEVICE_STATE_Unattached)
 2661               		.loc 5 69 0
 2662 0062 8823      		tst r24
 2663 0064 01F0      		breq .L254
  71:../../tmk_core/protocol/lufa/LUFA-git/LUFA/Drivers/USB/Core/AVR8/Template/Template_Endpoint_Control_R.c **** 		else if (USB_DeviceState_LCL == DEVICE_STATE_Suspended)
 2664               		.loc 5 71 0
 2665 0066 8530      		cpi r24,lo8(5)
 2666 0068 01F0      		breq .L255
 2667               	.LVL268:
 2668               	.L249:
 2669               	.LBE417:
 2670               	.LBB418:
 2671               	.LBB419:
 407:../../tmk_core/protocol/lufa/LUFA-git/LUFA/Drivers/USB/Core/AVR8/../AVR8/../AVR8/Endpoint_AVR8.h **** 				return ((UEINTX & (1 << TXINI)) ? true : false);
 2672               		.loc 2 407 0
 2673 006a 8091 E800 		lds r24,232
 2674               	.LBE419:
 2675               	.LBE418:
  65:../../tmk_core/protocol/lufa/LUFA-git/LUFA/Drivers/USB/Core/AVR8/Template/Template_Endpoint_Control_R.c **** 	while (!(Endpoint_IsINReady()))
 2676               		.loc 5 65 0
 2677 006e 80FF      		sbrs r24,0
 2678 0070 00C0      		rjmp .L259
 2679 0072 00C0      		rjmp .L253
 2680               	.L252:
 2681               	.LBB420:
  50:../../tmk_core/protocol/lufa/LUFA-git/LUFA/Drivers/USB/Core/AVR8/Template/Template_Endpoint_Control_R.c **** 		  return ENDPOINT_RWCSTREAM_HostAborted;
 2682               		.loc 5 50 0
 2683 0074 81E0      		ldi r24,lo8(1)
 2684 0076 0895      		ret
 2685               	.L253:
 2686               	.LBE420:
  75:../../tmk_core/protocol/lufa/LUFA-git/LUFA/Drivers/USB/Core/AVR8/Template/Template_Endpoint_Control_R.c **** 	return ENDPOINT_RWCSTREAM_NoError;
 2687               		.loc 5 75 0
 2688 0078 80E0      		ldi r24,0
 2689 007a 0895      		ret
 2690               	.L254:
 2691               	.LBB421:
  46:../../tmk_core/protocol/lufa/LUFA-git/LUFA/Drivers/USB/Core/AVR8/Template/Template_Endpoint_Control_R.c **** 		  return ENDPOINT_RWCSTREAM_DeviceDisconnected;
 2692               		.loc 5 46 0
 2693 007c 82E0      		ldi r24,lo8(2)
 2694 007e 0895      		ret
 2695               	.L255:
  48:../../tmk_core/protocol/lufa/LUFA-git/LUFA/Drivers/USB/Core/AVR8/Template/Template_Endpoint_Control_R.c **** 		  return ENDPOINT_RWCSTREAM_BusSuspended;
 2696               		.loc 5 48 0
 2697 0080 83E0      		ldi r24,lo8(3)
 2698               	.LBE421:
 2699               		.loc 5 76 0
 2700 0082 0895      		ret
 2701               		.cfi_endproc
 2702               	.LFE100:
 2704               		.section	.text.Endpoint_Write_Control_PStream_LE,"ax",@progbits
 2705               	.global	Endpoint_Write_Control_PStream_LE
 2707               	Endpoint_Write_Control_PStream_LE:
 2708               	.LFB101:
  35:../../tmk_core/protocol/lufa/LUFA-git/LUFA/Drivers/USB/Core/AVR8/Template/Template_Endpoint_Control_W.c **** {
 2709               		.loc 4 35 0
 2710               		.cfi_startproc
 2711               	.LVL269:
 2712               	/* prologue: function */
 2713               	/* frame size = 0 */
 2714               	/* stack size = 0 */
 2715               	.L__stack_usage = 0
  39:../../tmk_core/protocol/lufa/LUFA-git/LUFA/Drivers/USB/Core/AVR8/Template/Template_Endpoint_Control_W.c **** 	if (Length > USB_ControlRequest.wLength)
 2716               		.loc 4 39 0
 2717 0000 2091 0000 		lds r18,USB_ControlRequest+6
 2718 0004 3091 0000 		lds r19,USB_ControlRequest+6+1
 2719 0008 2617      		cp r18,r22
 2720 000a 3707      		cpc r19,r23
 2721 000c 00F0      		brlo .L275
  41:../../tmk_core/protocol/lufa/LUFA-git/LUFA/Drivers/USB/Core/AVR8/Template/Template_Endpoint_Control_W.c **** 	else if (!(Length))
 2722               		.loc 4 41 0
 2723 000e 6115      		cp r22,__zero_reg__
 2724 0010 7105      		cpc r23,__zero_reg__
 2725 0012 01F4      		brne .L261
 2726               	.LBB422:
 2727               	.LBB423:
 456:../../tmk_core/protocol/lufa/LUFA-git/LUFA/Drivers/USB/Core/AVR8/../AVR8/../AVR8/Endpoint_AVR8.h **** 					UEINTX &= ~((1 << TXINI) | (1 << FIFOCON));
 2728               		.loc 2 456 0
 2729 0014 2091 E800 		lds r18,232
 2730 0018 2E77      		andi r18,lo8(126)
 2731 001a 2093 E800 		sts 232,r18
 2732 001e 00C0      		rjmp .L261
 2733               	.L275:
 2734               	.LBE423:
 2735               	.LBE422:
 2736 0020 B901      		movw r22,r18
 2737               	.LVL270:
 2738               	.L261:
 2739 0022 FC01      		movw r30,r24
 2740 0024 20E0      		ldi r18,0
 2741               	.LVL271:
 2742               	.L267:
  44:../../tmk_core/protocol/lufa/LUFA-git/LUFA/Drivers/USB/Core/AVR8/Template/Template_Endpoint_Control_W.c **** 	while (Length || LastPacketFull)
 2743               		.loc 4 44 0 discriminator 1
 2744 0026 6115      		cp r22,__zero_reg__
 2745 0028 7105      		cpc r23,__zero_reg__
 2746 002a 01F0      		breq .L288
 2747               	.L272:
 2748               	.LBB424:
  46:../../tmk_core/protocol/lufa/LUFA-git/LUFA/Drivers/USB/Core/AVR8/Template/Template_Endpoint_Control_W.c **** 		uint8_t USB_DeviceState_LCL = USB_DeviceState;
 2749               		.loc 4 46 0
 2750 002c 8091 0000 		lds r24,USB_DeviceState
 2751               	.LVL272:
  48:../../tmk_core/protocol/lufa/LUFA-git/LUFA/Drivers/USB/Core/AVR8/Template/Template_Endpoint_Control_W.c **** 		if (USB_DeviceState_LCL == DEVICE_STATE_Unattached)
 2752               		.loc 4 48 0
 2753 0030 8823      		tst r24
 2754 0032 01F4      		brne .+2
 2755 0034 00C0      		rjmp .L279
  50:../../tmk_core/protocol/lufa/LUFA-git/LUFA/Drivers/USB/Core/AVR8/Template/Template_Endpoint_Control_W.c **** 		else if (USB_DeviceState_LCL == DEVICE_STATE_Suspended)
 2756               		.loc 4 50 0
 2757 0036 8530      		cpi r24,lo8(5)
 2758 0038 01F4      		brne .+2
 2759 003a 00C0      		rjmp .L280
 2760               	.LBB425:
 2761               	.LBB426:
 431:../../tmk_core/protocol/lufa/LUFA-git/LUFA/Drivers/USB/Core/AVR8/../AVR8/../AVR8/Endpoint_AVR8.h **** 				return ((UEINTX & (1 << RXSTPI)) ? true : false);
 2762               		.loc 2 431 0
 2763 003c 8091 E800 		lds r24,232
 2764               	.LVL273:
 2765               	.LBE426:
 2766               	.LBE425:
  52:../../tmk_core/protocol/lufa/LUFA-git/LUFA/Drivers/USB/Core/AVR8/Template/Template_Endpoint_Control_W.c **** 		else if (Endpoint_IsSETUPReceived())
 2767               		.loc 4 52 0
 2768 0040 83FD      		sbrc r24,3
 2769 0042 00C0      		rjmp .L281
 2770               	.LBB427:
 2771               	.LBB428:
 419:../../tmk_core/protocol/lufa/LUFA-git/LUFA/Drivers/USB/Core/AVR8/../AVR8/../AVR8/Endpoint_AVR8.h **** 				return ((UEINTX & (1 << RXOUTI)) ? true : false);
 2772               		.loc 2 419 0
 2773 0044 8091 E800 		lds r24,232
 2774               	.LBE428:
 2775               	.LBE427:
  54:../../tmk_core/protocol/lufa/LUFA-git/LUFA/Drivers/USB/Core/AVR8/Template/Template_Endpoint_Control_W.c **** 		else if (Endpoint_IsOUTReceived())
 2776               		.loc 4 54 0
 2777 0048 82FF      		sbrs r24,2
 2778 004a 00C0      		rjmp .L264
 2779               	.L274:
 2780               	.LBE424:
 2781               	.LBB439:
 2782               	.LBB440:
 419:../../tmk_core/protocol/lufa/LUFA-git/LUFA/Drivers/USB/Core/AVR8/../AVR8/../AVR8/Endpoint_AVR8.h **** 				return ((UEINTX & (1 << RXOUTI)) ? true : false);
 2783               		.loc 2 419 0 discriminator 1
 2784 004c 8091 E800 		lds r24,232
 2785               	.LBE440:
 2786               	.LBE439:
  74:../../tmk_core/protocol/lufa/LUFA-git/LUFA/Drivers/USB/Core/AVR8/Template/Template_Endpoint_Control_W.c **** 	while (!(Endpoint_IsOUTReceived()))
 2787               		.loc 4 74 0 discriminator 1
 2788 0050 82FF      		sbrs r24,2
 2789 0052 00C0      		rjmp .L265
  86:../../tmk_core/protocol/lufa/LUFA-git/LUFA/Drivers/USB/Core/AVR8/Template/Template_Endpoint_Control_W.c **** 	return ENDPOINT_RWCSTREAM_NoError;
 2790               		.loc 4 86 0
 2791 0054 80E0      		ldi r24,0
 2792 0056 0895      		ret
 2793               	.L264:
 2794               	.LBB441:
 2795               	.LBB429:
 2796               	.LBB430:
 407:../../tmk_core/protocol/lufa/LUFA-git/LUFA/Drivers/USB/Core/AVR8/../AVR8/../AVR8/Endpoint_AVR8.h **** 				return ((UEINTX & (1 << TXINI)) ? true : false);
 2797               		.loc 2 407 0
 2798 0058 8091 E800 		lds r24,232
 2799               	.LBE430:
 2800               	.LBE429:
  57:../../tmk_core/protocol/lufa/LUFA-git/LUFA/Drivers/USB/Core/AVR8/Template/Template_Endpoint_Control_W.c **** 		if (Endpoint_IsINReady())
 2801               		.loc 4 57 0
 2802 005c 80FF      		sbrs r24,0
 2803 005e 00C0      		rjmp .L267
 2804               	.LBB431:
 2805               	.LBB432:
 2806               	.LBB433:
 227:../../tmk_core/protocol/lufa/LUFA-git/LUFA/Drivers/USB/Core/AVR8/../AVR8/../AVR8/Endpoint_AVR8.h **** 					return (((uint16_t)UEBCHX << 8) | UEBCLX);
 2807               		.loc 2 227 0
 2808 0060 2091 F300 		lds r18,243
 2809               	.LVL274:
 2810 0064 8091 F200 		lds r24,242
 2811 0068 90E0      		ldi r25,0
 2812 006a 922B      		or r25,r18
 2813               	.L268:
 2814               	.LVL275:
 2815               	.LBE433:
 2816               	.LBE432:
  61:../../tmk_core/protocol/lufa/LUFA-git/LUFA/Drivers/USB/Core/AVR8/Template/Template_Endpoint_Control_W.c **** 			while (Length && (BytesInEndpoint < USB_Device_ControlEndpointSize))
 2817               		.loc 4 61 0 discriminator 1
 2818 006c 6115      		cp r22,__zero_reg__
 2819 006e 7105      		cpc r23,__zero_reg__
 2820 0070 01F0      		breq .L269
  61:../../tmk_core/protocol/lufa/LUFA-git/LUFA/Drivers/USB/Core/AVR8/Template/Template_Endpoint_Control_W.c **** 			while (Length && (BytesInEndpoint < USB_Device_ControlEndpointSize))
 2821               		.loc 4 61 0 is_stmt 0 discriminator 2
 2822 0072 8830      		cpi r24,8
 2823 0074 9105      		cpc r25,__zero_reg__
 2824 0076 00F4      		brsh .L269
 2825               	.LVL276:
 2826               	.LBB434:
  63:../../tmk_core/protocol/lufa/LUFA-git/LUFA/Drivers/USB/Core/AVR8/Template/Template_Endpoint_Control_W.c **** 				TEMPLATE_TRANSFER_BYTE(DataStream);
 2827               		.loc 4 63 0 is_stmt 1
 2828               	/* #APP */
 2829               	 ;  63 "../../tmk_core/protocol/lufa/LUFA-git/LUFA/Drivers/USB/Core/AVR8/Template/Template_Endpoint
 2830 0078 2491      		lpm r18, Z
 2831               		
 2832               	 ;  0 "" 2
 2833               	.LVL277:
 2834               	/* #NOAPP */
 2835               	.LBE434:
 2836               	.LBB435:
 2837               	.LBB436:
 554:../../tmk_core/protocol/lufa/LUFA-git/LUFA/Drivers/USB/Core/AVR8/../AVR8/../AVR8/Endpoint_AVR8.h **** 				UEDATX = Data;
 2838               		.loc 2 554 0
 2839 007a 2093 F100 		sts 241,r18
 2840               	.LBE436:
 2841               	.LBE435:
  64:../../tmk_core/protocol/lufa/LUFA-git/LUFA/Drivers/USB/Core/AVR8/Template/Template_Endpoint_Control_W.c **** 				TEMPLATE_BUFFER_MOVE(DataStream, 1);
 2842               		.loc 4 64 0
 2843 007e 3196      		adiw r30,1
 2844               	.LVL278:
  65:../../tmk_core/protocol/lufa/LUFA-git/LUFA/Drivers/USB/Core/AVR8/Template/Template_Endpoint_Control_W.c **** 				Length--;
 2845               		.loc 4 65 0
 2846 0080 6150      		subi r22,1
 2847 0082 7109      		sbc r23,__zero_reg__
 2848               	.LVL279:
  66:../../tmk_core/protocol/lufa/LUFA-git/LUFA/Drivers/USB/Core/AVR8/Template/Template_Endpoint_Control_W.c **** 				BytesInEndpoint++;
 2849               		.loc 4 66 0
 2850 0084 0196      		adiw r24,1
 2851               	.LVL280:
 2852 0086 00C0      		rjmp .L268
 2853               	.LVL281:
 2854               	.L269:
  69:../../tmk_core/protocol/lufa/LUFA-git/LUFA/Drivers/USB/Core/AVR8/Template/Template_Endpoint_Control_W.c **** 			LastPacketFull = (BytesInEndpoint == USB_Device_ControlEndpointSize);
 2855               		.loc 4 69 0
 2856 0088 21E0      		ldi r18,lo8(1)
 2857 008a 0897      		sbiw r24,8
 2858 008c 01F0      		breq .L271
 2859 008e 20E0      		ldi r18,0
 2860               	.L271:
 2861               	.LVL282:
 2862               	.LBB437:
 2863               	.LBB438:
 456:../../tmk_core/protocol/lufa/LUFA-git/LUFA/Drivers/USB/Core/AVR8/../AVR8/../AVR8/Endpoint_AVR8.h **** 					UEINTX &= ~((1 << TXINI) | (1 << FIFOCON));
 2864               		.loc 2 456 0
 2865 0090 8091 E800 		lds r24,232
 2866               	.LVL283:
 2867 0094 8E77      		andi r24,lo8(126)
 2868 0096 8093 E800 		sts 232,r24
 2869 009a 00C0      		rjmp .L267
 2870               	.L288:
 2871               	.LBE438:
 2872               	.LBE437:
 2873               	.LBE431:
 2874               	.LBE441:
  44:../../tmk_core/protocol/lufa/LUFA-git/LUFA/Drivers/USB/Core/AVR8/Template/Template_Endpoint_Control_W.c **** 	while (Length || LastPacketFull)
 2875               		.loc 4 44 0 discriminator 2
 2876 009c 2111      		cpse r18,__zero_reg__
 2877 009e 00C0      		rjmp .L272
 2878 00a0 00C0      		rjmp .L274
 2879               	.L265:
 2880               	.LBB442:
  76:../../tmk_core/protocol/lufa/LUFA-git/LUFA/Drivers/USB/Core/AVR8/Template/Template_Endpoint_Control_W.c **** 		uint8_t USB_DeviceState_LCL = USB_DeviceState;
 2881               		.loc 4 76 0
 2882 00a2 8091 0000 		lds r24,USB_DeviceState
 2883               	.LVL284:
  78:../../tmk_core/protocol/lufa/LUFA-git/LUFA/Drivers/USB/Core/AVR8/Template/Template_Endpoint_Control_W.c **** 		if (USB_DeviceState_LCL == DEVICE_STATE_Unattached)
 2884               		.loc 4 78 0
 2885 00a6 8823      		tst r24
 2886 00a8 01F0      		breq .L279
  80:../../tmk_core/protocol/lufa/LUFA-git/LUFA/Drivers/USB/Core/AVR8/Template/Template_Endpoint_Control_W.c **** 		else if (USB_DeviceState_LCL == DEVICE_STATE_Suspended)
 2887               		.loc 4 80 0
 2888 00aa 8530      		cpi r24,lo8(5)
 2889 00ac 01F0      		breq .L280
 2890               	.LBB443:
 2891               	.LBB444:
 431:../../tmk_core/protocol/lufa/LUFA-git/LUFA/Drivers/USB/Core/AVR8/../AVR8/../AVR8/Endpoint_AVR8.h **** 				return ((UEINTX & (1 << RXSTPI)) ? true : false);
 2892               		.loc 2 431 0
 2893 00ae 8091 E800 		lds r24,232
 2894               	.LVL285:
 2895               	.LBE444:
 2896               	.LBE443:
  82:../../tmk_core/protocol/lufa/LUFA-git/LUFA/Drivers/USB/Core/AVR8/Template/Template_Endpoint_Control_W.c **** 		else if (Endpoint_IsSETUPReceived())
 2897               		.loc 4 82 0
 2898 00b2 83FF      		sbrs r24,3
 2899 00b4 00C0      		rjmp .L274
 2900 00b6 00C0      		rjmp .L281
 2901               	.L279:
 2902               	.LBE442:
 2903               	.LBB445:
  49:../../tmk_core/protocol/lufa/LUFA-git/LUFA/Drivers/USB/Core/AVR8/Template/Template_Endpoint_Control_W.c **** 		  return ENDPOINT_RWCSTREAM_DeviceDisconnected;
 2904               		.loc 4 49 0
 2905 00b8 82E0      		ldi r24,lo8(2)
 2906 00ba 0895      		ret
 2907               	.L280:
  51:../../tmk_core/protocol/lufa/LUFA-git/LUFA/Drivers/USB/Core/AVR8/Template/Template_Endpoint_Control_W.c **** 		  return ENDPOINT_RWCSTREAM_BusSuspended;
 2908               		.loc 4 51 0
 2909 00bc 83E0      		ldi r24,lo8(3)
 2910 00be 0895      		ret
 2911               	.L281:
  53:../../tmk_core/protocol/lufa/LUFA-git/LUFA/Drivers/USB/Core/AVR8/Template/Template_Endpoint_Control_W.c **** 		  return ENDPOINT_RWCSTREAM_HostAborted;
 2912               		.loc 4 53 0
 2913 00c0 81E0      		ldi r24,lo8(1)
 2914               	.LBE445:
 2915               		.loc 4 87 0
 2916 00c2 0895      		ret
 2917               		.cfi_endproc
 2918               	.LFE101:
 2920               		.section	.text.Endpoint_Write_Control_PStream_BE,"ax",@progbits
 2921               	.global	Endpoint_Write_Control_PStream_BE
 2923               	Endpoint_Write_Control_PStream_BE:
 2924               	.LFB102:
  35:../../tmk_core/protocol/lufa/LUFA-git/LUFA/Drivers/USB/Core/AVR8/Template/Template_Endpoint_Control_W.c **** {
 2925               		.loc 4 35 0
 2926               		.cfi_startproc
 2927               	.LVL286:
 2928               	/* prologue: function */
 2929               	/* frame size = 0 */
 2930               	/* stack size = 0 */
 2931               	.L__stack_usage = 0
  36:../../tmk_core/protocol/lufa/LUFA-git/LUFA/Drivers/USB/Core/AVR8/Template/Template_Endpoint_Control_W.c **** 	uint8_t* DataStream     = ((uint8_t*)Buffer + TEMPLATE_BUFFER_OFFSET(Length));
 2932               		.loc 4 36 0
 2933 0000 FB01      		movw r30,r22
 2934 0002 3197      		sbiw r30,1
 2935 0004 E80F      		add r30,r24
 2936 0006 F91F      		adc r31,r25
 2937               	.LVL287:
  39:../../tmk_core/protocol/lufa/LUFA-git/LUFA/Drivers/USB/Core/AVR8/Template/Template_Endpoint_Control_W.c **** 	if (Length > USB_ControlRequest.wLength)
 2938               		.loc 4 39 0
 2939 0008 8091 0000 		lds r24,USB_ControlRequest+6
 2940 000c 9091 0000 		lds r25,USB_ControlRequest+6+1
 2941               	.LVL288:
 2942 0010 8617      		cp r24,r22
 2943 0012 9707      		cpc r25,r23
 2944 0014 00F0      		brlo .L304
  41:../../tmk_core/protocol/lufa/LUFA-git/LUFA/Drivers/USB/Core/AVR8/Template/Template_Endpoint_Control_W.c **** 	else if (!(Length))
 2945               		.loc 4 41 0
 2946 0016 6115      		cp r22,__zero_reg__
 2947 0018 7105      		cpc r23,__zero_reg__
 2948 001a 01F4      		brne .L290
 2949               	.LBB446:
 2950               	.LBB447:
 456:../../tmk_core/protocol/lufa/LUFA-git/LUFA/Drivers/USB/Core/AVR8/../AVR8/../AVR8/Endpoint_AVR8.h **** 					UEINTX &= ~((1 << TXINI) | (1 << FIFOCON));
 2951               		.loc 2 456 0
 2952 001c 8091 E800 		lds r24,232
 2953 0020 8E77      		andi r24,lo8(126)
 2954 0022 8093 E800 		sts 232,r24
 2955 0026 00C0      		rjmp .L290
 2956               	.L304:
 2957               	.LBE447:
 2958               	.LBE446:
 2959 0028 BC01      		movw r22,r24
 2960               	.LVL289:
 2961               	.L290:
 2962 002a 80E0      		ldi r24,0
 2963               	.LVL290:
 2964               	.L296:
  44:../../tmk_core/protocol/lufa/LUFA-git/LUFA/Drivers/USB/Core/AVR8/Template/Template_Endpoint_Control_W.c **** 	while (Length || LastPacketFull)
 2965               		.loc 4 44 0 discriminator 1
 2966 002c 6115      		cp r22,__zero_reg__
 2967 002e 7105      		cpc r23,__zero_reg__
 2968 0030 01F0      		breq .L317
 2969               	.L301:
 2970               	.LBB448:
  46:../../tmk_core/protocol/lufa/LUFA-git/LUFA/Drivers/USB/Core/AVR8/Template/Template_Endpoint_Control_W.c **** 		uint8_t USB_DeviceState_LCL = USB_DeviceState;
 2971               		.loc 4 46 0
 2972 0032 9091 0000 		lds r25,USB_DeviceState
 2973               	.LVL291:
  48:../../tmk_core/protocol/lufa/LUFA-git/LUFA/Drivers/USB/Core/AVR8/Template/Template_Endpoint_Control_W.c **** 		if (USB_DeviceState_LCL == DEVICE_STATE_Unattached)
 2974               		.loc 4 48 0
 2975 0036 9923      		tst r25
 2976 0038 01F4      		brne .+2
 2977 003a 00C0      		rjmp .L308
  50:../../tmk_core/protocol/lufa/LUFA-git/LUFA/Drivers/USB/Core/AVR8/Template/Template_Endpoint_Control_W.c **** 		else if (USB_DeviceState_LCL == DEVICE_STATE_Suspended)
 2978               		.loc 4 50 0
 2979 003c 9530      		cpi r25,lo8(5)
 2980 003e 01F4      		brne .+2
 2981 0040 00C0      		rjmp .L309
 2982               	.LBB449:
 2983               	.LBB450:
 431:../../tmk_core/protocol/lufa/LUFA-git/LUFA/Drivers/USB/Core/AVR8/../AVR8/../AVR8/Endpoint_AVR8.h **** 				return ((UEINTX & (1 << RXSTPI)) ? true : false);
 2984               		.loc 2 431 0
 2985 0042 9091 E800 		lds r25,232
 2986               	.LVL292:
 2987               	.LBE450:
 2988               	.LBE449:
  52:../../tmk_core/protocol/lufa/LUFA-git/LUFA/Drivers/USB/Core/AVR8/Template/Template_Endpoint_Control_W.c **** 		else if (Endpoint_IsSETUPReceived())
 2989               		.loc 4 52 0
 2990 0046 93FD      		sbrc r25,3
 2991 0048 00C0      		rjmp .L310
 2992               	.LBB451:
 2993               	.LBB452:
 419:../../tmk_core/protocol/lufa/LUFA-git/LUFA/Drivers/USB/Core/AVR8/../AVR8/../AVR8/Endpoint_AVR8.h **** 				return ((UEINTX & (1 << RXOUTI)) ? true : false);
 2994               		.loc 2 419 0
 2995 004a 9091 E800 		lds r25,232
 2996               	.LBE452:
 2997               	.LBE451:
  54:../../tmk_core/protocol/lufa/LUFA-git/LUFA/Drivers/USB/Core/AVR8/Template/Template_Endpoint_Control_W.c **** 		else if (Endpoint_IsOUTReceived())
 2998               		.loc 4 54 0
 2999 004e 92FF      		sbrs r25,2
 3000 0050 00C0      		rjmp .L293
 3001               	.LVL293:
 3002               	.L303:
 3003               	.LBE448:
 3004               	.LBB463:
 3005               	.LBB464:
 419:../../tmk_core/protocol/lufa/LUFA-git/LUFA/Drivers/USB/Core/AVR8/../AVR8/../AVR8/Endpoint_AVR8.h **** 				return ((UEINTX & (1 << RXOUTI)) ? true : false);
 3006               		.loc 2 419 0 discriminator 1
 3007 0052 8091 E800 		lds r24,232
 3008               	.LBE464:
 3009               	.LBE463:
  74:../../tmk_core/protocol/lufa/LUFA-git/LUFA/Drivers/USB/Core/AVR8/Template/Template_Endpoint_Control_W.c **** 	while (!(Endpoint_IsOUTReceived()))
 3010               		.loc 4 74 0 discriminator 1
 3011 0056 82FF      		sbrs r24,2
 3012 0058 00C0      		rjmp .L294
  86:../../tmk_core/protocol/lufa/LUFA-git/LUFA/Drivers/USB/Core/AVR8/Template/Template_Endpoint_Control_W.c **** 	return ENDPOINT_RWCSTREAM_NoError;
 3013               		.loc 4 86 0
 3014 005a 80E0      		ldi r24,0
 3015 005c 0895      		ret
 3016               	.LVL294:
 3017               	.L293:
 3018               	.LBB465:
 3019               	.LBB453:
 3020               	.LBB454:
 407:../../tmk_core/protocol/lufa/LUFA-git/LUFA/Drivers/USB/Core/AVR8/../AVR8/../AVR8/Endpoint_AVR8.h **** 				return ((UEINTX & (1 << TXINI)) ? true : false);
 3021               		.loc 2 407 0
 3022 005e 9091 E800 		lds r25,232
 3023               	.LBE454:
 3024               	.LBE453:
  57:../../tmk_core/protocol/lufa/LUFA-git/LUFA/Drivers/USB/Core/AVR8/Template/Template_Endpoint_Control_W.c **** 		if (Endpoint_IsINReady())
 3025               		.loc 4 57 0
 3026 0062 90FF      		sbrs r25,0
 3027 0064 00C0      		rjmp .L296
 3028               	.LBB455:
 3029               	.LBB456:
 3030               	.LBB457:
 227:../../tmk_core/protocol/lufa/LUFA-git/LUFA/Drivers/USB/Core/AVR8/../AVR8/../AVR8/Endpoint_AVR8.h **** 					return (((uint16_t)UEBCHX << 8) | UEBCLX);
 3031               		.loc 2 227 0
 3032 0066 8091 F300 		lds r24,243
 3033               	.LVL295:
 3034 006a 2091 F200 		lds r18,242
 3035 006e 30E0      		ldi r19,0
 3036 0070 382B      		or r19,r24
 3037               	.L297:
 3038               	.LVL296:
 3039               	.LBE457:
 3040               	.LBE456:
  61:../../tmk_core/protocol/lufa/LUFA-git/LUFA/Drivers/USB/Core/AVR8/Template/Template_Endpoint_Control_W.c **** 			while (Length && (BytesInEndpoint < USB_Device_ControlEndpointSize))
 3041               		.loc 4 61 0 discriminator 1
 3042 0072 6115      		cp r22,__zero_reg__
 3043 0074 7105      		cpc r23,__zero_reg__
 3044 0076 01F0      		breq .L298
  61:../../tmk_core/protocol/lufa/LUFA-git/LUFA/Drivers/USB/Core/AVR8/Template/Template_Endpoint_Control_W.c **** 			while (Length && (BytesInEndpoint < USB_Device_ControlEndpointSize))
 3045               		.loc 4 61 0 is_stmt 0 discriminator 2
 3046 0078 2830      		cpi r18,8
 3047 007a 3105      		cpc r19,__zero_reg__
 3048 007c 00F4      		brsh .L298
 3049               	.LVL297:
 3050               	.LBB458:
  63:../../tmk_core/protocol/lufa/LUFA-git/LUFA/Drivers/USB/Core/AVR8/Template/Template_Endpoint_Control_W.c **** 				TEMPLATE_TRANSFER_BYTE(DataStream);
 3051               		.loc 4 63 0 is_stmt 1
 3052               	/* #APP */
 3053               	 ;  63 "../../tmk_core/protocol/lufa/LUFA-git/LUFA/Drivers/USB/Core/AVR8/Template/Template_Endpoint
 3054 007e 8491      		lpm r24, Z
 3055               		
 3056               	 ;  0 "" 2
 3057               	.LVL298:
 3058               	/* #NOAPP */
 3059               	.LBE458:
 3060               	.LBB459:
 3061               	.LBB460:
 554:../../tmk_core/protocol/lufa/LUFA-git/LUFA/Drivers/USB/Core/AVR8/../AVR8/../AVR8/Endpoint_AVR8.h **** 				UEDATX = Data;
 3062               		.loc 2 554 0
 3063 0080 8093 F100 		sts 241,r24
 3064               	.LBE460:
 3065               	.LBE459:
  64:../../tmk_core/protocol/lufa/LUFA-git/LUFA/Drivers/USB/Core/AVR8/Template/Template_Endpoint_Control_W.c **** 				TEMPLATE_BUFFER_MOVE(DataStream, 1);
 3066               		.loc 4 64 0
 3067 0084 3197      		sbiw r30,1
 3068               	.LVL299:
  65:../../tmk_core/protocol/lufa/LUFA-git/LUFA/Drivers/USB/Core/AVR8/Template/Template_Endpoint_Control_W.c **** 				Length--;
 3069               		.loc 4 65 0
 3070 0086 6150      		subi r22,1
 3071 0088 7109      		sbc r23,__zero_reg__
 3072               	.LVL300:
  66:../../tmk_core/protocol/lufa/LUFA-git/LUFA/Drivers/USB/Core/AVR8/Template/Template_Endpoint_Control_W.c **** 				BytesInEndpoint++;
 3073               		.loc 4 66 0
 3074 008a 2F5F      		subi r18,-1
 3075 008c 3F4F      		sbci r19,-1
 3076               	.LVL301:
 3077 008e 00C0      		rjmp .L297
 3078               	.LVL302:
 3079               	.L298:
  69:../../tmk_core/protocol/lufa/LUFA-git/LUFA/Drivers/USB/Core/AVR8/Template/Template_Endpoint_Control_W.c **** 			LastPacketFull = (BytesInEndpoint == USB_Device_ControlEndpointSize);
 3080               		.loc 4 69 0
 3081 0090 81E0      		ldi r24,lo8(1)
 3082 0092 2830      		cpi r18,8
 3083 0094 3105      		cpc r19,__zero_reg__
 3084 0096 01F0      		breq .L300
 3085 0098 80E0      		ldi r24,0
 3086               	.L300:
 3087               	.LVL303:
 3088               	.LBB461:
 3089               	.LBB462:
 456:../../tmk_core/protocol/lufa/LUFA-git/LUFA/Drivers/USB/Core/AVR8/../AVR8/../AVR8/Endpoint_AVR8.h **** 					UEINTX &= ~((1 << TXINI) | (1 << FIFOCON));
 3090               		.loc 2 456 0
 3091 009a 9091 E800 		lds r25,232
 3092 009e 9E77      		andi r25,lo8(126)
 3093 00a0 9093 E800 		sts 232,r25
 3094 00a4 00C0      		rjmp .L296
 3095               	.LVL304:
 3096               	.L317:
 3097               	.LBE462:
 3098               	.LBE461:
 3099               	.LBE455:
 3100               	.LBE465:
  44:../../tmk_core/protocol/lufa/LUFA-git/LUFA/Drivers/USB/Core/AVR8/Template/Template_Endpoint_Control_W.c **** 	while (Length || LastPacketFull)
 3101               		.loc 4 44 0 discriminator 2
 3102 00a6 8111      		cpse r24,__zero_reg__
 3103 00a8 00C0      		rjmp .L301
 3104 00aa 00C0      		rjmp .L303
 3105               	.LVL305:
 3106               	.L294:
 3107               	.LBB466:
  76:../../tmk_core/protocol/lufa/LUFA-git/LUFA/Drivers/USB/Core/AVR8/Template/Template_Endpoint_Control_W.c **** 		uint8_t USB_DeviceState_LCL = USB_DeviceState;
 3108               		.loc 4 76 0
 3109 00ac 8091 0000 		lds r24,USB_DeviceState
 3110               	.LVL306:
  78:../../tmk_core/protocol/lufa/LUFA-git/LUFA/Drivers/USB/Core/AVR8/Template/Template_Endpoint_Control_W.c **** 		if (USB_DeviceState_LCL == DEVICE_STATE_Unattached)
 3111               		.loc 4 78 0
 3112 00b0 8823      		tst r24
 3113 00b2 01F0      		breq .L308
  80:../../tmk_core/protocol/lufa/LUFA-git/LUFA/Drivers/USB/Core/AVR8/Template/Template_Endpoint_Control_W.c **** 		else if (USB_DeviceState_LCL == DEVICE_STATE_Suspended)
 3114               		.loc 4 80 0
 3115 00b4 8530      		cpi r24,lo8(5)
 3116 00b6 01F0      		breq .L309
 3117               	.LBB467:
 3118               	.LBB468:
 431:../../tmk_core/protocol/lufa/LUFA-git/LUFA/Drivers/USB/Core/AVR8/../AVR8/../AVR8/Endpoint_AVR8.h **** 				return ((UEINTX & (1 << RXSTPI)) ? true : false);
 3119               		.loc 2 431 0
 3120 00b8 8091 E800 		lds r24,232
 3121               	.LVL307:
 3122               	.LBE468:
 3123               	.LBE467:
  82:../../tmk_core/protocol/lufa/LUFA-git/LUFA/Drivers/USB/Core/AVR8/Template/Template_Endpoint_Control_W.c **** 		else if (Endpoint_IsSETUPReceived())
 3124               		.loc 4 82 0
 3125 00bc 83FF      		sbrs r24,3
 3126 00be 00C0      		rjmp .L303
 3127 00c0 00C0      		rjmp .L310
 3128               	.L308:
 3129               	.LBE466:
 3130               	.LBB469:
  49:../../tmk_core/protocol/lufa/LUFA-git/LUFA/Drivers/USB/Core/AVR8/Template/Template_Endpoint_Control_W.c **** 		  return ENDPOINT_RWCSTREAM_DeviceDisconnected;
 3131               		.loc 4 49 0
 3132 00c2 82E0      		ldi r24,lo8(2)
 3133 00c4 0895      		ret
 3134               	.L309:
  51:../../tmk_core/protocol/lufa/LUFA-git/LUFA/Drivers/USB/Core/AVR8/Template/Template_Endpoint_Control_W.c **** 		  return ENDPOINT_RWCSTREAM_BusSuspended;
 3135               		.loc 4 51 0
 3136 00c6 83E0      		ldi r24,lo8(3)
 3137 00c8 0895      		ret
 3138               	.L310:
  53:../../tmk_core/protocol/lufa/LUFA-git/LUFA/Drivers/USB/Core/AVR8/Template/Template_Endpoint_Control_W.c **** 		  return ENDPOINT_RWCSTREAM_HostAborted;
 3139               		.loc 4 53 0
 3140 00ca 81E0      		ldi r24,lo8(1)
 3141               	.LBE469:
 3142               		.loc 4 87 0
 3143 00cc 0895      		ret
 3144               		.cfi_endproc
 3145               	.LFE102:
 3147               		.section	.text.Endpoint_Write_Control_EStream_LE,"ax",@progbits
 3148               	.global	Endpoint_Write_Control_EStream_LE
 3150               	Endpoint_Write_Control_EStream_LE:
 3151               	.LFB103:
  35:../../tmk_core/protocol/lufa/LUFA-git/LUFA/Drivers/USB/Core/AVR8/Template/Template_Endpoint_Control_W.c **** {
 3152               		.loc 4 35 0
 3153               		.cfi_startproc
 3154               	.LVL308:
 3155 0000 EF92      		push r14
 3156               	.LCFI92:
 3157               		.cfi_def_cfa_offset 3
 3158               		.cfi_offset 14, -2
 3159 0002 FF92      		push r15
 3160               	.LCFI93:
 3161               		.cfi_def_cfa_offset 4
 3162               		.cfi_offset 15, -3
 3163 0004 0F93      		push r16
 3164               	.LCFI94:
 3165               		.cfi_def_cfa_offset 5
 3166               		.cfi_offset 16, -4
 3167 0006 1F93      		push r17
 3168               	.LCFI95:
 3169               		.cfi_def_cfa_offset 6
 3170               		.cfi_offset 17, -5
 3171 0008 CF93      		push r28
 3172               	.LCFI96:
 3173               		.cfi_def_cfa_offset 7
 3174               		.cfi_offset 28, -6
 3175 000a DF93      		push r29
 3176               	.LCFI97:
 3177               		.cfi_def_cfa_offset 8
 3178               		.cfi_offset 29, -7
 3179               	/* prologue: function */
 3180               	/* frame size = 0 */
 3181               	/* stack size = 6 */
 3182               	.L__stack_usage = 6
 3183 000c 8B01      		movw r16,r22
 3184               	.LVL309:
  39:../../tmk_core/protocol/lufa/LUFA-git/LUFA/Drivers/USB/Core/AVR8/Template/Template_Endpoint_Control_W.c **** 	if (Length > USB_ControlRequest.wLength)
 3185               		.loc 4 39 0
 3186 000e 2091 0000 		lds r18,USB_ControlRequest+6
 3187 0012 3091 0000 		lds r19,USB_ControlRequest+6+1
 3188 0016 2617      		cp r18,r22
 3189 0018 3707      		cpc r19,r23
 3190 001a 00F0      		brlo .L333
  41:../../tmk_core/protocol/lufa/LUFA-git/LUFA/Drivers/USB/Core/AVR8/Template/Template_Endpoint_Control_W.c **** 	else if (!(Length))
 3191               		.loc 4 41 0
 3192 001c 6115      		cp r22,__zero_reg__
 3193 001e 7105      		cpc r23,__zero_reg__
 3194 0020 01F4      		brne .L319
 3195               	.LBB470:
 3196               	.LBB471:
 456:../../tmk_core/protocol/lufa/LUFA-git/LUFA/Drivers/USB/Core/AVR8/../AVR8/../AVR8/Endpoint_AVR8.h **** 					UEINTX &= ~((1 << TXINI) | (1 << FIFOCON));
 3197               		.loc 2 456 0
 3198 0022 2091 E800 		lds r18,232
 3199 0026 2E77      		andi r18,lo8(126)
 3200 0028 2093 E800 		sts 232,r18
 3201 002c 00C0      		rjmp .L319
 3202               	.L333:
 3203               	.LBE471:
 3204               	.LBE470:
 3205 002e 8901      		movw r16,r18
 3206               	.L319:
 3207               	.LBB472:
 3208               	.LBB473:
  59:../../tmk_core/protocol/lufa/LUFA-git/LUFA/Drivers/USB/Core/AVR8/Template/Template_Endpoint_Control_W.c **** 			uint16_t BytesInEndpoint = Endpoint_BytesInEndpoint();
 3209               		.loc 4 59 0 discriminator 1
 3210 0030 9C01      		movw r18,r24
 3211 0032 40E0      		ldi r20,0
 3212               	.LVL310:
 3213               	.L325:
 3214               	.LBE473:
 3215               	.LBE472:
  44:../../tmk_core/protocol/lufa/LUFA-git/LUFA/Drivers/USB/Core/AVR8/Template/Template_Endpoint_Control_W.c **** 	while (Length || LastPacketFull)
 3216               		.loc 4 44 0 discriminator 1
 3217 0034 0115      		cp r16,__zero_reg__
 3218 0036 1105      		cpc r17,__zero_reg__
 3219 0038 01F4      		brne .+2
 3220 003a 00C0      		rjmp .L346
 3221               	.L330:
 3222               	.LBB487:
  46:../../tmk_core/protocol/lufa/LUFA-git/LUFA/Drivers/USB/Core/AVR8/Template/Template_Endpoint_Control_W.c **** 		uint8_t USB_DeviceState_LCL = USB_DeviceState;
 3223               		.loc 4 46 0
 3224 003c 8091 0000 		lds r24,USB_DeviceState
 3225               	.LVL311:
  48:../../tmk_core/protocol/lufa/LUFA-git/LUFA/Drivers/USB/Core/AVR8/Template/Template_Endpoint_Control_W.c **** 		if (USB_DeviceState_LCL == DEVICE_STATE_Unattached)
 3226               		.loc 4 48 0
 3227 0040 8823      		tst r24
 3228 0042 01F4      		brne .+2
 3229 0044 00C0      		rjmp .L337
  50:../../tmk_core/protocol/lufa/LUFA-git/LUFA/Drivers/USB/Core/AVR8/Template/Template_Endpoint_Control_W.c **** 		else if (USB_DeviceState_LCL == DEVICE_STATE_Suspended)
 3230               		.loc 4 50 0
 3231 0046 8530      		cpi r24,lo8(5)
 3232 0048 01F4      		brne .+2
 3233 004a 00C0      		rjmp .L338
 3234               	.LBB480:
 3235               	.LBB481:
 431:../../tmk_core/protocol/lufa/LUFA-git/LUFA/Drivers/USB/Core/AVR8/../AVR8/../AVR8/Endpoint_AVR8.h **** 				return ((UEINTX & (1 << RXSTPI)) ? true : false);
 3236               		.loc 2 431 0
 3237 004c 8091 E800 		lds r24,232
 3238               	.LVL312:
 3239               	.LBE481:
 3240               	.LBE480:
  52:../../tmk_core/protocol/lufa/LUFA-git/LUFA/Drivers/USB/Core/AVR8/Template/Template_Endpoint_Control_W.c **** 		else if (Endpoint_IsSETUPReceived())
 3241               		.loc 4 52 0
 3242 0050 83FD      		sbrc r24,3
 3243 0052 00C0      		rjmp .L339
 3244               	.LBB482:
 3245               	.LBB483:
 419:../../tmk_core/protocol/lufa/LUFA-git/LUFA/Drivers/USB/Core/AVR8/../AVR8/../AVR8/Endpoint_AVR8.h **** 				return ((UEINTX & (1 << RXOUTI)) ? true : false);
 3246               		.loc 2 419 0
 3247 0054 8091 E800 		lds r24,232
 3248               	.LBE483:
 3249               	.LBE482:
  54:../../tmk_core/protocol/lufa/LUFA-git/LUFA/Drivers/USB/Core/AVR8/Template/Template_Endpoint_Control_W.c **** 		else if (Endpoint_IsOUTReceived())
 3250               		.loc 4 54 0
 3251 0058 82FF      		sbrs r24,2
 3252 005a 00C0      		rjmp .L322
 3253               	.L332:
 3254               	.LBE487:
 3255               	.LBB488:
 3256               	.LBB489:
 419:../../tmk_core/protocol/lufa/LUFA-git/LUFA/Drivers/USB/Core/AVR8/../AVR8/../AVR8/Endpoint_AVR8.h **** 				return ((UEINTX & (1 << RXOUTI)) ? true : false);
 3257               		.loc 2 419 0 discriminator 1
 3258 005c 8091 E800 		lds r24,232
 3259               	.LBE489:
 3260               	.LBE488:
  74:../../tmk_core/protocol/lufa/LUFA-git/LUFA/Drivers/USB/Core/AVR8/Template/Template_Endpoint_Control_W.c **** 	while (!(Endpoint_IsOUTReceived()))
 3261               		.loc 4 74 0 discriminator 1
 3262 0060 82FF      		sbrs r24,2
 3263 0062 00C0      		rjmp .L323
  86:../../tmk_core/protocol/lufa/LUFA-git/LUFA/Drivers/USB/Core/AVR8/Template/Template_Endpoint_Control_W.c **** 	return ENDPOINT_RWCSTREAM_NoError;
 3264               		.loc 4 86 0
 3265 0064 80E0      		ldi r24,0
 3266 0066 00C0      		rjmp .L321
 3267               	.L322:
 3268               	.LBB490:
 3269               	.LBB484:
 3270               	.LBB485:
 407:../../tmk_core/protocol/lufa/LUFA-git/LUFA/Drivers/USB/Core/AVR8/../AVR8/../AVR8/Endpoint_AVR8.h **** 				return ((UEINTX & (1 << TXINI)) ? true : false);
 3271               		.loc 2 407 0
 3272 0068 8091 E800 		lds r24,232
 3273               	.LBE485:
 3274               	.LBE484:
  57:../../tmk_core/protocol/lufa/LUFA-git/LUFA/Drivers/USB/Core/AVR8/Template/Template_Endpoint_Control_W.c **** 		if (Endpoint_IsINReady())
 3275               		.loc 4 57 0
 3276 006c 80FF      		sbrs r24,0
 3277 006e 00C0      		rjmp .L325
 3278               	.LBB486:
 3279               	.LBB474:
 3280               	.LBB475:
 227:../../tmk_core/protocol/lufa/LUFA-git/LUFA/Drivers/USB/Core/AVR8/../AVR8/../AVR8/Endpoint_AVR8.h **** 					return (((uint16_t)UEBCHX << 8) | UEBCLX);
 3281               		.loc 2 227 0
 3282 0070 8091 F300 		lds r24,243
 3283 0074 C091 F200 		lds r28,242
 3284 0078 D0E0      		ldi r29,0
 3285               	.LBE475:
 3286               	.LBE474:
  59:../../tmk_core/protocol/lufa/LUFA-git/LUFA/Drivers/USB/Core/AVR8/Template/Template_Endpoint_Control_W.c **** 			uint16_t BytesInEndpoint = Endpoint_BytesInEndpoint();
 3287               		.loc 4 59 0
 3288 007a D82B      		or r29,r24
 3289 007c 7901      		movw r14,r18
 3290 007e EC1A      		sub r14,r28
 3291 0080 FD0A      		sbc r15,r29
 3292               	.LVL313:
 3293               	.L326:
 3294 0082 C701      		movw r24,r14
 3295 0084 8C0F      		add r24,r28
 3296 0086 9D1F      		adc r25,r29
 3297               	.LVL314:
  61:../../tmk_core/protocol/lufa/LUFA-git/LUFA/Drivers/USB/Core/AVR8/Template/Template_Endpoint_Control_W.c **** 			while (Length && (BytesInEndpoint < USB_Device_ControlEndpointSize))
 3298               		.loc 4 61 0 discriminator 1
 3299 0088 0115      		cp r16,__zero_reg__
 3300 008a 1105      		cpc r17,__zero_reg__
 3301 008c 01F0      		breq .L327
  61:../../tmk_core/protocol/lufa/LUFA-git/LUFA/Drivers/USB/Core/AVR8/Template/Template_Endpoint_Control_W.c **** 			while (Length && (BytesInEndpoint < USB_Device_ControlEndpointSize))
 3302               		.loc 4 61 0 is_stmt 0 discriminator 2
 3303 008e C830      		cpi r28,8
 3304 0090 D105      		cpc r29,__zero_reg__
 3305 0092 00F4      		brsh .L327
  63:../../tmk_core/protocol/lufa/LUFA-git/LUFA/Drivers/USB/Core/AVR8/Template/Template_Endpoint_Control_W.c **** 				TEMPLATE_TRANSFER_BYTE(DataStream);
 3306               		.loc 4 63 0 is_stmt 1
 3307 0094 0E94 0000 		call __eerd_byte_m32u4
 3308               	.LVL315:
 3309               	.LBB476:
 3310               	.LBB477:
 554:../../tmk_core/protocol/lufa/LUFA-git/LUFA/Drivers/USB/Core/AVR8/../AVR8/../AVR8/Endpoint_AVR8.h **** 				UEDATX = Data;
 3311               		.loc 2 554 0
 3312 0098 8093 F100 		sts 241,r24
 3313               	.LVL316:
 3314               	.LBE477:
 3315               	.LBE476:
  65:../../tmk_core/protocol/lufa/LUFA-git/LUFA/Drivers/USB/Core/AVR8/Template/Template_Endpoint_Control_W.c **** 				Length--;
 3316               		.loc 4 65 0
 3317 009c 0150      		subi r16,1
 3318 009e 1109      		sbc r17,__zero_reg__
 3319               	.LVL317:
  66:../../tmk_core/protocol/lufa/LUFA-git/LUFA/Drivers/USB/Core/AVR8/Template/Template_Endpoint_Control_W.c **** 				BytesInEndpoint++;
 3320               		.loc 4 66 0
 3321 00a0 2196      		adiw r28,1
 3322               	.LVL318:
 3323 00a2 00C0      		rjmp .L326
 3324               	.LVL319:
 3325               	.L327:
  69:../../tmk_core/protocol/lufa/LUFA-git/LUFA/Drivers/USB/Core/AVR8/Template/Template_Endpoint_Control_W.c **** 			LastPacketFull = (BytesInEndpoint == USB_Device_ControlEndpointSize);
 3326               		.loc 4 69 0
 3327 00a4 41E0      		ldi r20,lo8(1)
 3328 00a6 2897      		sbiw r28,8
 3329 00a8 01F0      		breq .L329
 3330 00aa 40E0      		ldi r20,0
 3331               	.L329:
 3332               	.LVL320:
 3333               	.LBB478:
 3334               	.LBB479:
 456:../../tmk_core/protocol/lufa/LUFA-git/LUFA/Drivers/USB/Core/AVR8/../AVR8/../AVR8/Endpoint_AVR8.h **** 					UEINTX &= ~((1 << TXINI) | (1 << FIFOCON));
 3335               		.loc 2 456 0
 3336 00ac 2091 E800 		lds r18,232
 3337 00b0 2E77      		andi r18,lo8(126)
 3338 00b2 2093 E800 		sts 232,r18
 3339 00b6 9C01      		movw r18,r24
 3340 00b8 00C0      		rjmp .L325
 3341               	.LVL321:
 3342               	.L346:
 3343               	.LBE479:
 3344               	.LBE478:
 3345               	.LBE486:
 3346               	.LBE490:
  44:../../tmk_core/protocol/lufa/LUFA-git/LUFA/Drivers/USB/Core/AVR8/Template/Template_Endpoint_Control_W.c **** 	while (Length || LastPacketFull)
 3347               		.loc 4 44 0 discriminator 2
 3348 00ba 4111      		cpse r20,__zero_reg__
 3349 00bc 00C0      		rjmp .L330
 3350 00be 00C0      		rjmp .L332
 3351               	.L323:
 3352               	.LBB491:
  76:../../tmk_core/protocol/lufa/LUFA-git/LUFA/Drivers/USB/Core/AVR8/Template/Template_Endpoint_Control_W.c **** 		uint8_t USB_DeviceState_LCL = USB_DeviceState;
 3353               		.loc 4 76 0
 3354 00c0 8091 0000 		lds r24,USB_DeviceState
 3355               	.LVL322:
  78:../../tmk_core/protocol/lufa/LUFA-git/LUFA/Drivers/USB/Core/AVR8/Template/Template_Endpoint_Control_W.c **** 		if (USB_DeviceState_LCL == DEVICE_STATE_Unattached)
 3356               		.loc 4 78 0
 3357 00c4 8823      		tst r24
 3358 00c6 01F0      		breq .L337
  80:../../tmk_core/protocol/lufa/LUFA-git/LUFA/Drivers/USB/Core/AVR8/Template/Template_Endpoint_Control_W.c **** 		else if (USB_DeviceState_LCL == DEVICE_STATE_Suspended)
 3359               		.loc 4 80 0
 3360 00c8 8530      		cpi r24,lo8(5)
 3361 00ca 01F0      		breq .L338
 3362               	.LBB492:
 3363               	.LBB493:
 431:../../tmk_core/protocol/lufa/LUFA-git/LUFA/Drivers/USB/Core/AVR8/../AVR8/../AVR8/Endpoint_AVR8.h **** 				return ((UEINTX & (1 << RXSTPI)) ? true : false);
 3364               		.loc 2 431 0
 3365 00cc 8091 E800 		lds r24,232
 3366               	.LVL323:
 3367               	.LBE493:
 3368               	.LBE492:
  82:../../tmk_core/protocol/lufa/LUFA-git/LUFA/Drivers/USB/Core/AVR8/Template/Template_Endpoint_Control_W.c **** 		else if (Endpoint_IsSETUPReceived())
 3369               		.loc 4 82 0
 3370 00d0 83FF      		sbrs r24,3
 3371 00d2 00C0      		rjmp .L332
 3372 00d4 00C0      		rjmp .L339
 3373               	.L337:
 3374               	.LBE491:
 3375               	.LBB494:
  49:../../tmk_core/protocol/lufa/LUFA-git/LUFA/Drivers/USB/Core/AVR8/Template/Template_Endpoint_Control_W.c **** 		  return ENDPOINT_RWCSTREAM_DeviceDisconnected;
 3376               		.loc 4 49 0
 3377 00d6 82E0      		ldi r24,lo8(2)
 3378 00d8 00C0      		rjmp .L321
 3379               	.L338:
  51:../../tmk_core/protocol/lufa/LUFA-git/LUFA/Drivers/USB/Core/AVR8/Template/Template_Endpoint_Control_W.c **** 		  return ENDPOINT_RWCSTREAM_BusSuspended;
 3380               		.loc 4 51 0
 3381 00da 83E0      		ldi r24,lo8(3)
 3382 00dc 00C0      		rjmp .L321
 3383               	.L339:
  53:../../tmk_core/protocol/lufa/LUFA-git/LUFA/Drivers/USB/Core/AVR8/Template/Template_Endpoint_Control_W.c **** 		  return ENDPOINT_RWCSTREAM_HostAborted;
 3384               		.loc 4 53 0
 3385 00de 81E0      		ldi r24,lo8(1)
 3386               	.L321:
 3387               	/* epilogue start */
 3388               	.LBE494:
 3389               		.loc 4 87 0
 3390 00e0 DF91      		pop r29
 3391 00e2 CF91      		pop r28
 3392 00e4 1F91      		pop r17
 3393 00e6 0F91      		pop r16
 3394               	.LVL324:
 3395 00e8 FF90      		pop r15
 3396 00ea EF90      		pop r14
 3397 00ec 0895      		ret
 3398               		.cfi_endproc
 3399               	.LFE103:
 3401               		.section	.text.Endpoint_Write_Control_EStream_BE,"ax",@progbits
 3402               	.global	Endpoint_Write_Control_EStream_BE
 3404               	Endpoint_Write_Control_EStream_BE:
 3405               	.LFB104:
  35:../../tmk_core/protocol/lufa/LUFA-git/LUFA/Drivers/USB/Core/AVR8/Template/Template_Endpoint_Control_W.c **** {
 3406               		.loc 4 35 0
 3407               		.cfi_startproc
 3408               	.LVL325:
 3409 0000 EF92      		push r14
 3410               	.LCFI98:
 3411               		.cfi_def_cfa_offset 3
 3412               		.cfi_offset 14, -2
 3413 0002 FF92      		push r15
 3414               	.LCFI99:
 3415               		.cfi_def_cfa_offset 4
 3416               		.cfi_offset 15, -3
 3417 0004 0F93      		push r16
 3418               	.LCFI100:
 3419               		.cfi_def_cfa_offset 5
 3420               		.cfi_offset 16, -4
 3421 0006 1F93      		push r17
 3422               	.LCFI101:
 3423               		.cfi_def_cfa_offset 6
 3424               		.cfi_offset 17, -5
 3425 0008 CF93      		push r28
 3426               	.LCFI102:
 3427               		.cfi_def_cfa_offset 7
 3428               		.cfi_offset 28, -6
 3429 000a DF93      		push r29
 3430               	.LCFI103:
 3431               		.cfi_def_cfa_offset 8
 3432               		.cfi_offset 29, -7
 3433               	/* prologue: function */
 3434               	/* frame size = 0 */
 3435               	/* stack size = 6 */
 3436               	.L__stack_usage = 6
  36:../../tmk_core/protocol/lufa/LUFA-git/LUFA/Drivers/USB/Core/AVR8/Template/Template_Endpoint_Control_W.c **** 	uint8_t* DataStream     = ((uint8_t*)Buffer + TEMPLATE_BUFFER_OFFSET(Length));
 3437               		.loc 4 36 0
 3438 000c 9B01      		movw r18,r22
 3439 000e 2150      		subi r18,1
 3440 0010 3109      		sbc r19,__zero_reg__
 3441 0012 280F      		add r18,r24
 3442 0014 391F      		adc r19,r25
 3443               	.LVL326:
  39:../../tmk_core/protocol/lufa/LUFA-git/LUFA/Drivers/USB/Core/AVR8/Template/Template_Endpoint_Control_W.c **** 	if (Length > USB_ControlRequest.wLength)
 3444               		.loc 4 39 0
 3445 0016 8091 0000 		lds r24,USB_ControlRequest+6
 3446 001a 9091 0000 		lds r25,USB_ControlRequest+6+1
 3447               	.LVL327:
 3448 001e 8617      		cp r24,r22
 3449 0020 9707      		cpc r25,r23
 3450 0022 00F0      		brlo .L362
  41:../../tmk_core/protocol/lufa/LUFA-git/LUFA/Drivers/USB/Core/AVR8/Template/Template_Endpoint_Control_W.c **** 	else if (!(Length))
 3451               		.loc 4 41 0
 3452 0024 6115      		cp r22,__zero_reg__
 3453 0026 7105      		cpc r23,__zero_reg__
 3454 0028 01F4      		brne .L348
 3455               	.LBB495:
 3456               	.LBB496:
 456:../../tmk_core/protocol/lufa/LUFA-git/LUFA/Drivers/USB/Core/AVR8/../AVR8/../AVR8/Endpoint_AVR8.h **** 					UEINTX &= ~((1 << TXINI) | (1 << FIFOCON));
 3457               		.loc 2 456 0
 3458 002a 8091 E800 		lds r24,232
 3459 002e 8E77      		andi r24,lo8(126)
 3460 0030 8093 E800 		sts 232,r24
 3461 0034 00C0      		rjmp .L348
 3462               	.L362:
 3463               	.LBE496:
 3464               	.LBE495:
 3465 0036 BC01      		movw r22,r24
 3466               	.LVL328:
 3467               	.L348:
 3468               	.LBB497:
 3469               	.LBB498:
  61:../../tmk_core/protocol/lufa/LUFA-git/LUFA/Drivers/USB/Core/AVR8/Template/Template_Endpoint_Control_W.c **** 			while (Length && (BytesInEndpoint < USB_Device_ControlEndpointSize))
 3470               		.loc 4 61 0 discriminator 1
 3471 0038 40E0      		ldi r20,0
 3472               	.LVL329:
 3473               	.L354:
 3474               	.LBE498:
 3475               	.LBE497:
  44:../../tmk_core/protocol/lufa/LUFA-git/LUFA/Drivers/USB/Core/AVR8/Template/Template_Endpoint_Control_W.c **** 	while (Length || LastPacketFull)
 3476               		.loc 4 44 0 discriminator 1
 3477 003a 6115      		cp r22,__zero_reg__
 3478 003c 7105      		cpc r23,__zero_reg__
 3479 003e 01F4      		brne .+2
 3480 0040 00C0      		rjmp .L375
 3481               	.L359:
 3482               	.LBB512:
  46:../../tmk_core/protocol/lufa/LUFA-git/LUFA/Drivers/USB/Core/AVR8/Template/Template_Endpoint_Control_W.c **** 		uint8_t USB_DeviceState_LCL = USB_DeviceState;
 3483               		.loc 4 46 0
 3484 0042 8091 0000 		lds r24,USB_DeviceState
 3485               	.LVL330:
  48:../../tmk_core/protocol/lufa/LUFA-git/LUFA/Drivers/USB/Core/AVR8/Template/Template_Endpoint_Control_W.c **** 		if (USB_DeviceState_LCL == DEVICE_STATE_Unattached)
 3486               		.loc 4 48 0
 3487 0046 8823      		tst r24
 3488 0048 01F4      		brne .+2
 3489 004a 00C0      		rjmp .L366
  50:../../tmk_core/protocol/lufa/LUFA-git/LUFA/Drivers/USB/Core/AVR8/Template/Template_Endpoint_Control_W.c **** 		else if (USB_DeviceState_LCL == DEVICE_STATE_Suspended)
 3490               		.loc 4 50 0
 3491 004c 8530      		cpi r24,lo8(5)
 3492 004e 01F4      		brne .+2
 3493 0050 00C0      		rjmp .L367
 3494               	.LBB505:
 3495               	.LBB506:
 431:../../tmk_core/protocol/lufa/LUFA-git/LUFA/Drivers/USB/Core/AVR8/../AVR8/../AVR8/Endpoint_AVR8.h **** 				return ((UEINTX & (1 << RXSTPI)) ? true : false);
 3496               		.loc 2 431 0
 3497 0052 8091 E800 		lds r24,232
 3498               	.LVL331:
 3499               	.LBE506:
 3500               	.LBE505:
  52:../../tmk_core/protocol/lufa/LUFA-git/LUFA/Drivers/USB/Core/AVR8/Template/Template_Endpoint_Control_W.c **** 		else if (Endpoint_IsSETUPReceived())
 3501               		.loc 4 52 0
 3502 0056 83FD      		sbrc r24,3
 3503 0058 00C0      		rjmp .L368
 3504               	.LBB507:
 3505               	.LBB508:
 419:../../tmk_core/protocol/lufa/LUFA-git/LUFA/Drivers/USB/Core/AVR8/../AVR8/../AVR8/Endpoint_AVR8.h **** 				return ((UEINTX & (1 << RXOUTI)) ? true : false);
 3506               		.loc 2 419 0
 3507 005a 8091 E800 		lds r24,232
 3508               	.LBE508:
 3509               	.LBE507:
  54:../../tmk_core/protocol/lufa/LUFA-git/LUFA/Drivers/USB/Core/AVR8/Template/Template_Endpoint_Control_W.c **** 		else if (Endpoint_IsOUTReceived())
 3510               		.loc 4 54 0
 3511 005e 82FF      		sbrs r24,2
 3512 0060 00C0      		rjmp .L351
 3513               	.L361:
 3514               	.LBE512:
 3515               	.LBB513:
 3516               	.LBB514:
 419:../../tmk_core/protocol/lufa/LUFA-git/LUFA/Drivers/USB/Core/AVR8/../AVR8/../AVR8/Endpoint_AVR8.h **** 				return ((UEINTX & (1 << RXOUTI)) ? true : false);
 3517               		.loc 2 419 0 discriminator 1
 3518 0062 8091 E800 		lds r24,232
 3519               	.LBE514:
 3520               	.LBE513:
  74:../../tmk_core/protocol/lufa/LUFA-git/LUFA/Drivers/USB/Core/AVR8/Template/Template_Endpoint_Control_W.c **** 	while (!(Endpoint_IsOUTReceived()))
 3521               		.loc 4 74 0 discriminator 1
 3522 0066 82FF      		sbrs r24,2
 3523 0068 00C0      		rjmp .L352
  86:../../tmk_core/protocol/lufa/LUFA-git/LUFA/Drivers/USB/Core/AVR8/Template/Template_Endpoint_Control_W.c **** 	return ENDPOINT_RWCSTREAM_NoError;
 3524               		.loc 4 86 0
 3525 006a 80E0      		ldi r24,0
 3526 006c 00C0      		rjmp .L350
 3527               	.L351:
 3528               	.LBB515:
 3529               	.LBB509:
 3530               	.LBB510:
 407:../../tmk_core/protocol/lufa/LUFA-git/LUFA/Drivers/USB/Core/AVR8/../AVR8/../AVR8/Endpoint_AVR8.h **** 				return ((UEINTX & (1 << TXINI)) ? true : false);
 3531               		.loc 2 407 0
 3532 006e 8091 E800 		lds r24,232
 3533               	.LBE510:
 3534               	.LBE509:
  57:../../tmk_core/protocol/lufa/LUFA-git/LUFA/Drivers/USB/Core/AVR8/Template/Template_Endpoint_Control_W.c **** 		if (Endpoint_IsINReady())
 3535               		.loc 4 57 0
 3536 0072 80FF      		sbrs r24,0
 3537 0074 00C0      		rjmp .L354
 3538               	.LBB511:
 3539               	.LBB499:
 3540               	.LBB500:
 227:../../tmk_core/protocol/lufa/LUFA-git/LUFA/Drivers/USB/Core/AVR8/../AVR8/../AVR8/Endpoint_AVR8.h **** 					return (((uint16_t)UEBCHX << 8) | UEBCLX);
 3541               		.loc 2 227 0
 3542 0076 8091 F300 		lds r24,243
 3543 007a 0091 F200 		lds r16,242
 3544 007e 10E0      		ldi r17,0
 3545 0080 182B      		or r17,r24
 3546               	.LBE500:
 3547               	.LBE499:
  61:../../tmk_core/protocol/lufa/LUFA-git/LUFA/Drivers/USB/Core/AVR8/Template/Template_Endpoint_Control_W.c **** 			while (Length && (BytesInEndpoint < USB_Device_ControlEndpointSize))
 3548               		.loc 4 61 0
 3549 0082 EB01      		movw r28,r22
 3550 0084 7901      		movw r14,r18
 3551 0086 E61A      		sub r14,r22
 3552 0088 F70A      		sbc r15,r23
 3553               	.LVL332:
 3554               	.L355:
 3555 008a C701      		movw r24,r14
 3556 008c 8C0F      		add r24,r28
 3557 008e 9D1F      		adc r25,r29
 3558               	.LVL333:
  61:../../tmk_core/protocol/lufa/LUFA-git/LUFA/Drivers/USB/Core/AVR8/Template/Template_Endpoint_Control_W.c **** 			while (Length && (BytesInEndpoint < USB_Device_ControlEndpointSize))
 3559               		.loc 4 61 0 is_stmt 0 discriminator 1
 3560 0090 2097      		sbiw r28,0
 3561 0092 01F0      		breq .L356
  61:../../tmk_core/protocol/lufa/LUFA-git/LUFA/Drivers/USB/Core/AVR8/Template/Template_Endpoint_Control_W.c **** 			while (Length && (BytesInEndpoint < USB_Device_ControlEndpointSize))
 3562               		.loc 4 61 0 discriminator 2
 3563 0094 0830      		cpi r16,8
 3564 0096 1105      		cpc r17,__zero_reg__
 3565 0098 00F4      		brsh .L356
  63:../../tmk_core/protocol/lufa/LUFA-git/LUFA/Drivers/USB/Core/AVR8/Template/Template_Endpoint_Control_W.c **** 				TEMPLATE_TRANSFER_BYTE(DataStream);
 3566               		.loc 4 63 0 is_stmt 1
 3567 009a 0E94 0000 		call __eerd_byte_m32u4
 3568               	.LVL334:
 3569               	.LBB501:
 3570               	.LBB502:
 554:../../tmk_core/protocol/lufa/LUFA-git/LUFA/Drivers/USB/Core/AVR8/../AVR8/../AVR8/Endpoint_AVR8.h **** 				UEDATX = Data;
 3571               		.loc 2 554 0
 3572 009e 8093 F100 		sts 241,r24
 3573               	.LVL335:
 3574               	.LBE502:
 3575               	.LBE501:
  65:../../tmk_core/protocol/lufa/LUFA-git/LUFA/Drivers/USB/Core/AVR8/Template/Template_Endpoint_Control_W.c **** 				Length--;
 3576               		.loc 4 65 0
 3577 00a2 2197      		sbiw r28,1
 3578               	.LVL336:
  66:../../tmk_core/protocol/lufa/LUFA-git/LUFA/Drivers/USB/Core/AVR8/Template/Template_Endpoint_Control_W.c **** 				BytesInEndpoint++;
 3579               		.loc 4 66 0
 3580 00a4 0F5F      		subi r16,-1
 3581 00a6 1F4F      		sbci r17,-1
 3582               	.LVL337:
 3583 00a8 00C0      		rjmp .L355
 3584               	.LVL338:
 3585               	.L356:
  69:../../tmk_core/protocol/lufa/LUFA-git/LUFA/Drivers/USB/Core/AVR8/Template/Template_Endpoint_Control_W.c **** 			LastPacketFull = (BytesInEndpoint == USB_Device_ControlEndpointSize);
 3586               		.loc 4 69 0
 3587 00aa 41E0      		ldi r20,lo8(1)
 3588 00ac 0830      		cpi r16,8
 3589 00ae 1105      		cpc r17,__zero_reg__
 3590 00b0 01F0      		breq .L358
 3591 00b2 40E0      		ldi r20,0
 3592               	.L358:
 3593               	.LVL339:
 3594               	.LBB503:
 3595               	.LBB504:
 456:../../tmk_core/protocol/lufa/LUFA-git/LUFA/Drivers/USB/Core/AVR8/../AVR8/../AVR8/Endpoint_AVR8.h **** 					UEINTX &= ~((1 << TXINI) | (1 << FIFOCON));
 3596               		.loc 2 456 0
 3597 00b4 2091 E800 		lds r18,232
 3598 00b8 2E77      		andi r18,lo8(126)
 3599 00ba 2093 E800 		sts 232,r18
 3600 00be 9C01      		movw r18,r24
 3601 00c0 BE01      		movw r22,r28
 3602 00c2 00C0      		rjmp .L354
 3603               	.LVL340:
 3604               	.L375:
 3605               	.LBE504:
 3606               	.LBE503:
 3607               	.LBE511:
 3608               	.LBE515:
  44:../../tmk_core/protocol/lufa/LUFA-git/LUFA/Drivers/USB/Core/AVR8/Template/Template_Endpoint_Control_W.c **** 	while (Length || LastPacketFull)
 3609               		.loc 4 44 0 discriminator 2
 3610 00c4 4111      		cpse r20,__zero_reg__
 3611 00c6 00C0      		rjmp .L359
 3612 00c8 00C0      		rjmp .L361
 3613               	.L352:
 3614               	.LBB516:
  76:../../tmk_core/protocol/lufa/LUFA-git/LUFA/Drivers/USB/Core/AVR8/Template/Template_Endpoint_Control_W.c **** 		uint8_t USB_DeviceState_LCL = USB_DeviceState;
 3615               		.loc 4 76 0
 3616 00ca 8091 0000 		lds r24,USB_DeviceState
 3617               	.LVL341:
  78:../../tmk_core/protocol/lufa/LUFA-git/LUFA/Drivers/USB/Core/AVR8/Template/Template_Endpoint_Control_W.c **** 		if (USB_DeviceState_LCL == DEVICE_STATE_Unattached)
 3618               		.loc 4 78 0
 3619 00ce 8823      		tst r24
 3620 00d0 01F0      		breq .L366
  80:../../tmk_core/protocol/lufa/LUFA-git/LUFA/Drivers/USB/Core/AVR8/Template/Template_Endpoint_Control_W.c **** 		else if (USB_DeviceState_LCL == DEVICE_STATE_Suspended)
 3621               		.loc 4 80 0
 3622 00d2 8530      		cpi r24,lo8(5)
 3623 00d4 01F0      		breq .L367
 3624               	.LBB517:
 3625               	.LBB518:
 431:../../tmk_core/protocol/lufa/LUFA-git/LUFA/Drivers/USB/Core/AVR8/../AVR8/../AVR8/Endpoint_AVR8.h **** 				return ((UEINTX & (1 << RXSTPI)) ? true : false);
 3626               		.loc 2 431 0
 3627 00d6 8091 E800 		lds r24,232
 3628               	.LVL342:
 3629               	.LBE518:
 3630               	.LBE517:
  82:../../tmk_core/protocol/lufa/LUFA-git/LUFA/Drivers/USB/Core/AVR8/Template/Template_Endpoint_Control_W.c **** 		else if (Endpoint_IsSETUPReceived())
 3631               		.loc 4 82 0
 3632 00da 83FF      		sbrs r24,3
 3633 00dc 00C0      		rjmp .L361
 3634 00de 00C0      		rjmp .L368
 3635               	.L366:
 3636               	.LBE516:
 3637               	.LBB519:
  49:../../tmk_core/protocol/lufa/LUFA-git/LUFA/Drivers/USB/Core/AVR8/Template/Template_Endpoint_Control_W.c **** 		  return ENDPOINT_RWCSTREAM_DeviceDisconnected;
 3638               		.loc 4 49 0
 3639 00e0 82E0      		ldi r24,lo8(2)
 3640 00e2 00C0      		rjmp .L350
 3641               	.L367:
  51:../../tmk_core/protocol/lufa/LUFA-git/LUFA/Drivers/USB/Core/AVR8/Template/Template_Endpoint_Control_W.c **** 		  return ENDPOINT_RWCSTREAM_BusSuspended;
 3642               		.loc 4 51 0
 3643 00e4 83E0      		ldi r24,lo8(3)
 3644 00e6 00C0      		rjmp .L350
 3645               	.L368:
  53:../../tmk_core/protocol/lufa/LUFA-git/LUFA/Drivers/USB/Core/AVR8/Template/Template_Endpoint_Control_W.c **** 		  return ENDPOINT_RWCSTREAM_HostAborted;
 3646               		.loc 4 53 0
 3647 00e8 81E0      		ldi r24,lo8(1)
 3648               	.L350:
 3649               	/* epilogue start */
 3650               	.LBE519:
 3651               		.loc 4 87 0
 3652 00ea DF91      		pop r29
 3653 00ec CF91      		pop r28
 3654 00ee 1F91      		pop r17
 3655 00f0 0F91      		pop r16
 3656 00f2 FF90      		pop r15
 3657 00f4 EF90      		pop r14
 3658 00f6 0895      		ret
 3659               		.cfi_endproc
 3660               	.LFE104:
 3662               		.section	.text.Endpoint_Read_Control_EStream_LE,"ax",@progbits
 3663               	.global	Endpoint_Read_Control_EStream_LE
 3665               	Endpoint_Read_Control_EStream_LE:
 3666               	.LFB105:
  35:../../tmk_core/protocol/lufa/LUFA-git/LUFA/Drivers/USB/Core/AVR8/Template/Template_Endpoint_Control_R.c **** {
 3667               		.loc 5 35 0
 3668               		.cfi_startproc
 3669               	.LVL343:
 3670 0000 0F93      		push r16
 3671               	.LCFI104:
 3672               		.cfi_def_cfa_offset 3
 3673               		.cfi_offset 16, -2
 3674 0002 1F93      		push r17
 3675               	.LCFI105:
 3676               		.cfi_def_cfa_offset 4
 3677               		.cfi_offset 17, -3
 3678 0004 CF93      		push r28
 3679               	.LCFI106:
 3680               		.cfi_def_cfa_offset 5
 3681               		.cfi_offset 28, -4
 3682 0006 DF93      		push r29
 3683               	.LCFI107:
 3684               		.cfi_def_cfa_offset 6
 3685               		.cfi_offset 29, -5
 3686               	/* prologue: function */
 3687               	/* frame size = 0 */
 3688               	/* stack size = 4 */
 3689               	.L__stack_usage = 4
 3690 0008 EB01      		movw r28,r22
 3691               	.LVL344:
  38:../../tmk_core/protocol/lufa/LUFA-git/LUFA/Drivers/USB/Core/AVR8/Template/Template_Endpoint_Control_R.c **** 	if (!(Length))
 3692               		.loc 5 38 0
 3693 000a 2097      		sbiw r28,0
 3694 000c 01F4      		brne .L377
 3695               	.LBB520:
 3696               	.LBB521:
 471:../../tmk_core/protocol/lufa/LUFA-git/LUFA/Drivers/USB/Core/AVR8/../AVR8/../AVR8/Endpoint_AVR8.h **** 					UEINTX &= ~((1 << RXOUTI) | (1 << FIFOCON));
 3697               		.loc 2 471 0
 3698 000e 2091 E800 		lds r18,232
 3699 0012 2B77      		andi r18,lo8(123)
 3700 0014 2093 E800 		sts 232,r18
 3701               	.L377:
 3702               	.LBE521:
 3703               	.LBE520:
  35:../../tmk_core/protocol/lufa/LUFA-git/LUFA/Drivers/USB/Core/AVR8/Template/Template_Endpoint_Control_R.c **** {
 3704               		.loc 5 35 0 discriminator 1
 3705 0018 8C01      		movw r16,r24
 3706               	.LVL345:
 3707               	.L378:
  41:../../tmk_core/protocol/lufa/LUFA-git/LUFA/Drivers/USB/Core/AVR8/Template/Template_Endpoint_Control_R.c **** 	while (Length)
 3708               		.loc 5 41 0 discriminator 1
 3709 001a 2097      		sbiw r28,0
 3710 001c 01F0      		breq .L386
 3711               	.L381:
 3712               	.LBB522:
  43:../../tmk_core/protocol/lufa/LUFA-git/LUFA/Drivers/USB/Core/AVR8/Template/Template_Endpoint_Control_R.c **** 		uint8_t USB_DeviceState_LCL = USB_DeviceState;
 3713               		.loc 5 43 0
 3714 001e 8091 0000 		lds r24,USB_DeviceState
 3715               	.LVL346:
  45:../../tmk_core/protocol/lufa/LUFA-git/LUFA/Drivers/USB/Core/AVR8/Template/Template_Endpoint_Control_R.c **** 		if (USB_DeviceState_LCL == DEVICE_STATE_Unattached)
 3716               		.loc 5 45 0
 3717 0022 8823      		tst r24
 3718 0024 01F0      		breq .L391
  47:../../tmk_core/protocol/lufa/LUFA-git/LUFA/Drivers/USB/Core/AVR8/Template/Template_Endpoint_Control_R.c **** 		else if (USB_DeviceState_LCL == DEVICE_STATE_Suspended)
 3719               		.loc 5 47 0
 3720 0026 8530      		cpi r24,lo8(5)
 3721 0028 01F0      		breq .L392
 3722               	.LBB523:
 3723               	.LBB524:
 431:../../tmk_core/protocol/lufa/LUFA-git/LUFA/Drivers/USB/Core/AVR8/../AVR8/../AVR8/Endpoint_AVR8.h **** 				return ((UEINTX & (1 << RXSTPI)) ? true : false);
 3724               		.loc 2 431 0
 3725 002a 8091 E800 		lds r24,232
 3726               	.LVL347:
 3727               	.LBE524:
 3728               	.LBE523:
  49:../../tmk_core/protocol/lufa/LUFA-git/LUFA/Drivers/USB/Core/AVR8/Template/Template_Endpoint_Control_R.c **** 		else if (Endpoint_IsSETUPReceived())
 3729               		.loc 5 49 0
 3730 002e 83FD      		sbrc r24,3
 3731 0030 00C0      		rjmp .L389
 3732               	.LBB525:
 3733               	.LBB526:
 419:../../tmk_core/protocol/lufa/LUFA-git/LUFA/Drivers/USB/Core/AVR8/../AVR8/../AVR8/Endpoint_AVR8.h **** 				return ((UEINTX & (1 << RXOUTI)) ? true : false);
 3734               		.loc 2 419 0
 3735 0032 8091 E800 		lds r24,232
 3736               	.LBE526:
 3737               	.LBE525:
  52:../../tmk_core/protocol/lufa/LUFA-git/LUFA/Drivers/USB/Core/AVR8/Template/Template_Endpoint_Control_R.c **** 		if (Endpoint_IsOUTReceived())
 3738               		.loc 5 52 0
 3739 0036 82FF      		sbrs r24,2
 3740 0038 00C0      		rjmp .L381
 3741               	.L382:
 3742               	.LBB527:
 3743               	.LBB528:
 227:../../tmk_core/protocol/lufa/LUFA-git/LUFA/Drivers/USB/Core/AVR8/../AVR8/../AVR8/Endpoint_AVR8.h **** 					return (((uint16_t)UEBCHX << 8) | UEBCLX);
 3744               		.loc 2 227 0
 3745 003a 2091 F300 		lds r18,243
 3746 003e 8091 F200 		lds r24,242
 3747 0042 90E0      		ldi r25,0
 3748 0044 922B      		or r25,r18
 3749               	.LBE528:
 3750               	.LBE527:
  54:../../tmk_core/protocol/lufa/LUFA-git/LUFA/Drivers/USB/Core/AVR8/Template/Template_Endpoint_Control_R.c **** 			while (Length && Endpoint_BytesInEndpoint())
 3751               		.loc 5 54 0
 3752 0046 892B      		or r24,r25
 3753 0048 01F0      		breq .L383
 3754               	.LBB529:
 3755               	.LBB530:
 542:../../tmk_core/protocol/lufa/LUFA-git/LUFA/Drivers/USB/Core/AVR8/../AVR8/../AVR8/Endpoint_AVR8.h **** 				return UEDATX;
 3756               		.loc 2 542 0
 3757 004a 6091 F100 		lds r22,241
 3758               	.LBE530:
 3759               	.LBE529:
  56:../../tmk_core/protocol/lufa/LUFA-git/LUFA/Drivers/USB/Core/AVR8/Template/Template_Endpoint_Control_R.c **** 				TEMPLATE_TRANSFER_BYTE(DataStream);
 3760               		.loc 5 56 0
 3761 004e C801      		movw r24,r16
 3762 0050 0E94 0000 		call __eeupd_byte_m32u4
 3763               	.LVL348:
  57:../../tmk_core/protocol/lufa/LUFA-git/LUFA/Drivers/USB/Core/AVR8/Template/Template_Endpoint_Control_R.c **** 				TEMPLATE_BUFFER_MOVE(DataStream, 1);
 3764               		.loc 5 57 0
 3765 0054 0F5F      		subi r16,-1
 3766 0056 1F4F      		sbci r17,-1
 3767               	.LVL349:
  58:../../tmk_core/protocol/lufa/LUFA-git/LUFA/Drivers/USB/Core/AVR8/Template/Template_Endpoint_Control_R.c **** 				Length--;
 3768               		.loc 5 58 0
 3769 0058 2197      		sbiw r28,1
 3770               	.LVL350:
  54:../../tmk_core/protocol/lufa/LUFA-git/LUFA/Drivers/USB/Core/AVR8/Template/Template_Endpoint_Control_R.c **** 			while (Length && Endpoint_BytesInEndpoint())
 3771               		.loc 5 54 0
 3772 005a 2097      		sbiw r28,0
 3773 005c 01F4      		brne .L382
 3774               	.L383:
 3775               	.LBB531:
 3776               	.LBB532:
 471:../../tmk_core/protocol/lufa/LUFA-git/LUFA/Drivers/USB/Core/AVR8/../AVR8/../AVR8/Endpoint_AVR8.h **** 					UEINTX &= ~((1 << RXOUTI) | (1 << FIFOCON));
 3777               		.loc 2 471 0
 3778 005e 8091 E800 		lds r24,232
 3779 0062 8B77      		andi r24,lo8(123)
 3780 0064 8093 E800 		sts 232,r24
 3781 0068 00C0      		rjmp .L378
 3782               	.L396:
 3783               	.LBE532:
 3784               	.LBE531:
 3785               	.LBE522:
 3786               	.LBB533:
  67:../../tmk_core/protocol/lufa/LUFA-git/LUFA/Drivers/USB/Core/AVR8/Template/Template_Endpoint_Control_R.c **** 		uint8_t USB_DeviceState_LCL = USB_DeviceState;
 3787               		.loc 5 67 0
 3788 006a 8091 0000 		lds r24,USB_DeviceState
 3789               	.LVL351:
  69:../../tmk_core/protocol/lufa/LUFA-git/LUFA/Drivers/USB/Core/AVR8/Template/Template_Endpoint_Control_R.c **** 		if (USB_DeviceState_LCL == DEVICE_STATE_Unattached)
 3790               		.loc 5 69 0
 3791 006e 8823      		tst r24
 3792 0070 01F0      		breq .L391
  71:../../tmk_core/protocol/lufa/LUFA-git/LUFA/Drivers/USB/Core/AVR8/Template/Template_Endpoint_Control_R.c **** 		else if (USB_DeviceState_LCL == DEVICE_STATE_Suspended)
 3793               		.loc 5 71 0
 3794 0072 8530      		cpi r24,lo8(5)
 3795 0074 01F0      		breq .L392
 3796               	.LVL352:
 3797               	.L386:
 3798               	.LBE533:
 3799               	.LBB534:
 3800               	.LBB535:
 407:../../tmk_core/protocol/lufa/LUFA-git/LUFA/Drivers/USB/Core/AVR8/../AVR8/../AVR8/Endpoint_AVR8.h **** 				return ((UEINTX & (1 << TXINI)) ? true : false);
 3801               		.loc 2 407 0
 3802 0076 8091 E800 		lds r24,232
 3803               	.LBE535:
 3804               	.LBE534:
  65:../../tmk_core/protocol/lufa/LUFA-git/LUFA/Drivers/USB/Core/AVR8/Template/Template_Endpoint_Control_R.c **** 	while (!(Endpoint_IsINReady()))
 3805               		.loc 5 65 0
 3806 007a 80FF      		sbrs r24,0
 3807 007c 00C0      		rjmp .L396
 3808 007e 00C0      		rjmp .L390
 3809               	.L389:
 3810               	.LBB536:
  50:../../tmk_core/protocol/lufa/LUFA-git/LUFA/Drivers/USB/Core/AVR8/Template/Template_Endpoint_Control_R.c **** 		  return ENDPOINT_RWCSTREAM_HostAborted;
 3811               		.loc 5 50 0
 3812 0080 81E0      		ldi r24,lo8(1)
 3813 0082 00C0      		rjmp .L379
 3814               	.L390:
 3815               	.LBE536:
  75:../../tmk_core/protocol/lufa/LUFA-git/LUFA/Drivers/USB/Core/AVR8/Template/Template_Endpoint_Control_R.c **** 	return ENDPOINT_RWCSTREAM_NoError;
 3816               		.loc 5 75 0
 3817 0084 80E0      		ldi r24,0
 3818 0086 00C0      		rjmp .L379
 3819               	.L391:
 3820               	.LBB537:
  46:../../tmk_core/protocol/lufa/LUFA-git/LUFA/Drivers/USB/Core/AVR8/Template/Template_Endpoint_Control_R.c **** 		  return ENDPOINT_RWCSTREAM_DeviceDisconnected;
 3821               		.loc 5 46 0
 3822 0088 82E0      		ldi r24,lo8(2)
 3823 008a 00C0      		rjmp .L379
 3824               	.L392:
  48:../../tmk_core/protocol/lufa/LUFA-git/LUFA/Drivers/USB/Core/AVR8/Template/Template_Endpoint_Control_R.c **** 		  return ENDPOINT_RWCSTREAM_BusSuspended;
 3825               		.loc 5 48 0
 3826 008c 83E0      		ldi r24,lo8(3)
 3827               	.L379:
 3828               	/* epilogue start */
 3829               	.LBE537:
 3830               		.loc 5 76 0
 3831 008e DF91      		pop r29
 3832 0090 CF91      		pop r28
 3833               	.LVL353:
 3834 0092 1F91      		pop r17
 3835 0094 0F91      		pop r16
 3836               	.LVL354:
 3837 0096 0895      		ret
 3838               		.cfi_endproc
 3839               	.LFE105:
 3841               		.section	.text.Endpoint_Read_Control_EStream_BE,"ax",@progbits
 3842               	.global	Endpoint_Read_Control_EStream_BE
 3844               	Endpoint_Read_Control_EStream_BE:
 3845               	.LFB106:
  35:../../tmk_core/protocol/lufa/LUFA-git/LUFA/Drivers/USB/Core/AVR8/Template/Template_Endpoint_Control_R.c **** {
 3846               		.loc 5 35 0
 3847               		.cfi_startproc
 3848               	.LVL355:
 3849 0000 0F93      		push r16
 3850               	.LCFI108:
 3851               		.cfi_def_cfa_offset 3
 3852               		.cfi_offset 16, -2
 3853 0002 1F93      		push r17
 3854               	.LCFI109:
 3855               		.cfi_def_cfa_offset 4
 3856               		.cfi_offset 17, -3
 3857 0004 CF93      		push r28
 3858               	.LCFI110:
 3859               		.cfi_def_cfa_offset 5
 3860               		.cfi_offset 28, -4
 3861 0006 DF93      		push r29
 3862               	.LCFI111:
 3863               		.cfi_def_cfa_offset 6
 3864               		.cfi_offset 29, -5
 3865               	/* prologue: function */
 3866               	/* frame size = 0 */
 3867               	/* stack size = 4 */
 3868               	.L__stack_usage = 4
 3869 0008 EB01      		movw r28,r22
  36:../../tmk_core/protocol/lufa/LUFA-git/LUFA/Drivers/USB/Core/AVR8/Template/Template_Endpoint_Control_R.c **** 	uint8_t* DataStream = ((uint8_t*)Buffer + TEMPLATE_BUFFER_OFFSET(Length));
 3870               		.loc 5 36 0
 3871 000a 8B01      		movw r16,r22
 3872 000c 0150      		subi r16,1
 3873 000e 1109      		sbc r17,__zero_reg__
 3874 0010 080F      		add r16,r24
 3875 0012 191F      		adc r17,r25
 3876               	.LVL356:
  38:../../tmk_core/protocol/lufa/LUFA-git/LUFA/Drivers/USB/Core/AVR8/Template/Template_Endpoint_Control_R.c **** 	if (!(Length))
 3877               		.loc 5 38 0
 3878 0014 2097      		sbiw r28,0
 3879 0016 01F4      		brne .L399
 3880               	.LVL357:
 3881               	.L404:
 3882               	.LBB538:
 3883               	.LBB539:
 3884               	.LBB540:
 471:../../tmk_core/protocol/lufa/LUFA-git/LUFA/Drivers/USB/Core/AVR8/../AVR8/../AVR8/Endpoint_AVR8.h **** 					UEINTX &= ~((1 << RXOUTI) | (1 << FIFOCON));
 3885               		.loc 2 471 0
 3886 0018 8091 E800 		lds r24,232
 3887 001c 8B77      		andi r24,lo8(123)
 3888 001e 8093 E800 		sts 232,r24
 3889               	.L399:
 3890               	.LBE540:
 3891               	.LBE539:
 3892               	.LBE538:
  41:../../tmk_core/protocol/lufa/LUFA-git/LUFA/Drivers/USB/Core/AVR8/Template/Template_Endpoint_Control_R.c **** 	while (Length)
 3893               		.loc 5 41 0 discriminator 1
 3894 0022 2097      		sbiw r28,0
 3895 0024 01F0      		breq .L407
 3896               	.L402:
 3897               	.LBB549:
  43:../../tmk_core/protocol/lufa/LUFA-git/LUFA/Drivers/USB/Core/AVR8/Template/Template_Endpoint_Control_R.c **** 		uint8_t USB_DeviceState_LCL = USB_DeviceState;
 3898               		.loc 5 43 0
 3899 0026 8091 0000 		lds r24,USB_DeviceState
 3900               	.LVL358:
  45:../../tmk_core/protocol/lufa/LUFA-git/LUFA/Drivers/USB/Core/AVR8/Template/Template_Endpoint_Control_R.c **** 		if (USB_DeviceState_LCL == DEVICE_STATE_Unattached)
 3901               		.loc 5 45 0
 3902 002a 8823      		tst r24
 3903 002c 01F0      		breq .L412
  47:../../tmk_core/protocol/lufa/LUFA-git/LUFA/Drivers/USB/Core/AVR8/Template/Template_Endpoint_Control_R.c **** 		else if (USB_DeviceState_LCL == DEVICE_STATE_Suspended)
 3904               		.loc 5 47 0
 3905 002e 8530      		cpi r24,lo8(5)
 3906 0030 01F0      		breq .L413
 3907               	.LBB541:
 3908               	.LBB542:
 431:../../tmk_core/protocol/lufa/LUFA-git/LUFA/Drivers/USB/Core/AVR8/../AVR8/../AVR8/Endpoint_AVR8.h **** 				return ((UEINTX & (1 << RXSTPI)) ? true : false);
 3909               		.loc 2 431 0
 3910 0032 8091 E800 		lds r24,232
 3911               	.LVL359:
 3912               	.LBE542:
 3913               	.LBE541:
  49:../../tmk_core/protocol/lufa/LUFA-git/LUFA/Drivers/USB/Core/AVR8/Template/Template_Endpoint_Control_R.c **** 		else if (Endpoint_IsSETUPReceived())
 3914               		.loc 5 49 0
 3915 0036 83FD      		sbrc r24,3
 3916 0038 00C0      		rjmp .L410
 3917               	.LBB543:
 3918               	.LBB544:
 419:../../tmk_core/protocol/lufa/LUFA-git/LUFA/Drivers/USB/Core/AVR8/../AVR8/../AVR8/Endpoint_AVR8.h **** 				return ((UEINTX & (1 << RXOUTI)) ? true : false);
 3919               		.loc 2 419 0
 3920 003a 8091 E800 		lds r24,232
 3921               	.LBE544:
 3922               	.LBE543:
  52:../../tmk_core/protocol/lufa/LUFA-git/LUFA/Drivers/USB/Core/AVR8/Template/Template_Endpoint_Control_R.c **** 		if (Endpoint_IsOUTReceived())
 3923               		.loc 5 52 0
 3924 003e 82FF      		sbrs r24,2
 3925 0040 00C0      		rjmp .L402
 3926               	.L403:
 3927               	.LBB545:
 3928               	.LBB546:
 227:../../tmk_core/protocol/lufa/LUFA-git/LUFA/Drivers/USB/Core/AVR8/../AVR8/../AVR8/Endpoint_AVR8.h **** 					return (((uint16_t)UEBCHX << 8) | UEBCLX);
 3929               		.loc 2 227 0
 3930 0042 2091 F300 		lds r18,243
 3931 0046 8091 F200 		lds r24,242
 3932 004a 90E0      		ldi r25,0
 3933 004c 922B      		or r25,r18
 3934               	.LBE546:
 3935               	.LBE545:
  54:../../tmk_core/protocol/lufa/LUFA-git/LUFA/Drivers/USB/Core/AVR8/Template/Template_Endpoint_Control_R.c **** 			while (Length && Endpoint_BytesInEndpoint())
 3936               		.loc 5 54 0
 3937 004e 892B      		or r24,r25
 3938 0050 01F0      		breq .L404
 3939               	.LBB547:
 3940               	.LBB548:
 542:../../tmk_core/protocol/lufa/LUFA-git/LUFA/Drivers/USB/Core/AVR8/../AVR8/../AVR8/Endpoint_AVR8.h **** 				return UEDATX;
 3941               		.loc 2 542 0
 3942 0052 6091 F100 		lds r22,241
 3943               	.LBE548:
 3944               	.LBE547:
  56:../../tmk_core/protocol/lufa/LUFA-git/LUFA/Drivers/USB/Core/AVR8/Template/Template_Endpoint_Control_R.c **** 				TEMPLATE_TRANSFER_BYTE(DataStream);
 3945               		.loc 5 56 0
 3946 0056 C801      		movw r24,r16
 3947 0058 0E94 0000 		call __eeupd_byte_m32u4
 3948               	.LVL360:
  57:../../tmk_core/protocol/lufa/LUFA-git/LUFA/Drivers/USB/Core/AVR8/Template/Template_Endpoint_Control_R.c **** 				TEMPLATE_BUFFER_MOVE(DataStream, 1);
 3949               		.loc 5 57 0
 3950 005c 0150      		subi r16,1
 3951 005e 1109      		sbc r17,__zero_reg__
 3952               	.LVL361:
  58:../../tmk_core/protocol/lufa/LUFA-git/LUFA/Drivers/USB/Core/AVR8/Template/Template_Endpoint_Control_R.c **** 				Length--;
 3953               		.loc 5 58 0
 3954 0060 2197      		sbiw r28,1
 3955               	.LVL362:
  54:../../tmk_core/protocol/lufa/LUFA-git/LUFA/Drivers/USB/Core/AVR8/Template/Template_Endpoint_Control_R.c **** 			while (Length && Endpoint_BytesInEndpoint())
 3956               		.loc 5 54 0
 3957 0062 2097      		sbiw r28,0
 3958 0064 01F4      		brne .L403
 3959 0066 00C0      		rjmp .L404
 3960               	.L417:
 3961               	.LBE549:
 3962               	.LBB550:
  67:../../tmk_core/protocol/lufa/LUFA-git/LUFA/Drivers/USB/Core/AVR8/Template/Template_Endpoint_Control_R.c **** 		uint8_t USB_DeviceState_LCL = USB_DeviceState;
 3963               		.loc 5 67 0
 3964 0068 8091 0000 		lds r24,USB_DeviceState
 3965               	.LVL363:
  69:../../tmk_core/protocol/lufa/LUFA-git/LUFA/Drivers/USB/Core/AVR8/Template/Template_Endpoint_Control_R.c **** 		if (USB_DeviceState_LCL == DEVICE_STATE_Unattached)
 3966               		.loc 5 69 0
 3967 006c 8823      		tst r24
 3968 006e 01F0      		breq .L412
  71:../../tmk_core/protocol/lufa/LUFA-git/LUFA/Drivers/USB/Core/AVR8/Template/Template_Endpoint_Control_R.c **** 		else if (USB_DeviceState_LCL == DEVICE_STATE_Suspended)
 3969               		.loc 5 71 0
 3970 0070 8530      		cpi r24,lo8(5)
 3971 0072 01F0      		breq .L413
 3972               	.LVL364:
 3973               	.L407:
 3974               	.LBE550:
 3975               	.LBB551:
 3976               	.LBB552:
 407:../../tmk_core/protocol/lufa/LUFA-git/LUFA/Drivers/USB/Core/AVR8/../AVR8/../AVR8/Endpoint_AVR8.h **** 				return ((UEINTX & (1 << TXINI)) ? true : false);
 3977               		.loc 2 407 0
 3978 0074 8091 E800 		lds r24,232
 3979               	.LBE552:
 3980               	.LBE551:
  65:../../tmk_core/protocol/lufa/LUFA-git/LUFA/Drivers/USB/Core/AVR8/Template/Template_Endpoint_Control_R.c **** 	while (!(Endpoint_IsINReady()))
 3981               		.loc 5 65 0
 3982 0078 80FF      		sbrs r24,0
 3983 007a 00C0      		rjmp .L417
 3984 007c 00C0      		rjmp .L411
 3985               	.L410:
 3986               	.LBB553:
  50:../../tmk_core/protocol/lufa/LUFA-git/LUFA/Drivers/USB/Core/AVR8/Template/Template_Endpoint_Control_R.c **** 		  return ENDPOINT_RWCSTREAM_HostAborted;
 3987               		.loc 5 50 0
 3988 007e 81E0      		ldi r24,lo8(1)
 3989 0080 00C0      		rjmp .L400
 3990               	.L411:
 3991               	.LBE553:
  75:../../tmk_core/protocol/lufa/LUFA-git/LUFA/Drivers/USB/Core/AVR8/Template/Template_Endpoint_Control_R.c **** 	return ENDPOINT_RWCSTREAM_NoError;
 3992               		.loc 5 75 0
 3993 0082 80E0      		ldi r24,0
 3994 0084 00C0      		rjmp .L400
 3995               	.L412:
 3996               	.LBB554:
  46:../../tmk_core/protocol/lufa/LUFA-git/LUFA/Drivers/USB/Core/AVR8/Template/Template_Endpoint_Control_R.c **** 		  return ENDPOINT_RWCSTREAM_DeviceDisconnected;
 3997               		.loc 5 46 0
 3998 0086 82E0      		ldi r24,lo8(2)
 3999 0088 00C0      		rjmp .L400
 4000               	.L413:
  48:../../tmk_core/protocol/lufa/LUFA-git/LUFA/Drivers/USB/Core/AVR8/Template/Template_Endpoint_Control_R.c **** 		  return ENDPOINT_RWCSTREAM_BusSuspended;
 4001               		.loc 5 48 0
 4002 008a 83E0      		ldi r24,lo8(3)
 4003               	.L400:
 4004               	/* epilogue start */
 4005               	.LBE554:
 4006               		.loc 5 76 0
 4007 008c DF91      		pop r29
 4008 008e CF91      		pop r28
 4009               	.LVL365:
 4010 0090 1F91      		pop r17
 4011 0092 0F91      		pop r16
 4012               	.LVL366:
 4013 0094 0895      		ret
 4014               		.cfi_endproc
 4015               	.LFE106:
 4017               		.text
 4018               	.Letext0:
 4019               		.file 6 "/usr/lib/avr/include/stdint.h"
 4020               		.file 7 "../../tmk_core/protocol/lufa/LUFA-git/LUFA/Drivers/USB/Core/AVR8/../AVR8/../StdRequestTyp
 4021               		.file 8 "../../tmk_core/protocol/lufa/LUFA-git/LUFA/Drivers/USB/Core/AVR8/../AVR8/../Device.h"
 4022               		.file 9 "../../tmk_core/protocol/lufa/LUFA-git/LUFA/Drivers/USB/Core/AVR8/../AVR8/../EndpointStrea
 4023               		.file 10 "../../tmk_core/protocol/lufa/LUFA-git/LUFA/Drivers/USB/Core/AVR8/../USBTask.h"
 4024               		.file 11 "/usr/lib/avr/include/avr/eeprom.h"
DEFINED SYMBOLS
                            *ABS*:0000000000000000 EndpointStream_AVR8.c
     /tmp/ccVwEPLw.s:2      *ABS*:000000000000003e __SP_H__
     /tmp/ccVwEPLw.s:3      *ABS*:000000000000003d __SP_L__
     /tmp/ccVwEPLw.s:4      *ABS*:000000000000003f __SREG__
     /tmp/ccVwEPLw.s:5      *ABS*:0000000000000000 __tmp_reg__
     /tmp/ccVwEPLw.s:6      *ABS*:0000000000000001 __zero_reg__
     /tmp/ccVwEPLw.s:13     .text.Endpoint_Discard_Stream:0000000000000000 Endpoint_Discard_Stream
     /tmp/ccVwEPLw.s:153    .text.Endpoint_Null_Stream:0000000000000000 Endpoint_Null_Stream
     /tmp/ccVwEPLw.s:292    .text.Endpoint_Write_Stream_LE:0000000000000000 Endpoint_Write_Stream_LE
     /tmp/ccVwEPLw.s:454    .text.Endpoint_Write_Stream_BE:0000000000000000 Endpoint_Write_Stream_BE
     /tmp/ccVwEPLw.s:625    .text.Endpoint_Read_Stream_LE:0000000000000000 Endpoint_Read_Stream_LE
     /tmp/ccVwEPLw.s:784    .text.Endpoint_Read_Stream_BE:0000000000000000 Endpoint_Read_Stream_BE
     /tmp/ccVwEPLw.s:953    .text.Endpoint_Write_PStream_LE:0000000000000000 Endpoint_Write_PStream_LE
     /tmp/ccVwEPLw.s:1124   .text.Endpoint_Write_PStream_BE:0000000000000000 Endpoint_Write_PStream_BE
     /tmp/ccVwEPLw.s:1303   .text.Endpoint_Write_EStream_LE:0000000000000000 Endpoint_Write_EStream_LE
     /tmp/ccVwEPLw.s:1467   .text.Endpoint_Write_EStream_BE:0000000000000000 Endpoint_Write_EStream_BE
     /tmp/ccVwEPLw.s:1639   .text.Endpoint_Read_EStream_LE:0000000000000000 Endpoint_Read_EStream_LE
     /tmp/ccVwEPLw.s:1802   .text.Endpoint_Read_EStream_BE:0000000000000000 Endpoint_Read_EStream_BE
     /tmp/ccVwEPLw.s:1973   .text.Endpoint_Write_Control_Stream_LE:0000000000000000 Endpoint_Write_Control_Stream_LE
     /tmp/ccVwEPLw.s:2180   .text.Endpoint_Write_Control_Stream_BE:0000000000000000 Endpoint_Write_Control_Stream_BE
     /tmp/ccVwEPLw.s:2399   .text.Endpoint_Read_Control_Stream_LE:0000000000000000 Endpoint_Read_Control_Stream_LE
     /tmp/ccVwEPLw.s:2556   .text.Endpoint_Read_Control_Stream_BE:0000000000000000 Endpoint_Read_Control_Stream_BE
     /tmp/ccVwEPLw.s:2707   .text.Endpoint_Write_Control_PStream_LE:0000000000000000 Endpoint_Write_Control_PStream_LE
     /tmp/ccVwEPLw.s:2923   .text.Endpoint_Write_Control_PStream_BE:0000000000000000 Endpoint_Write_Control_PStream_BE
     /tmp/ccVwEPLw.s:3150   .text.Endpoint_Write_Control_EStream_LE:0000000000000000 Endpoint_Write_Control_EStream_LE
     /tmp/ccVwEPLw.s:3404   .text.Endpoint_Write_Control_EStream_BE:0000000000000000 Endpoint_Write_Control_EStream_BE
     /tmp/ccVwEPLw.s:3665   .text.Endpoint_Read_Control_EStream_LE:0000000000000000 Endpoint_Read_Control_EStream_LE
     /tmp/ccVwEPLw.s:3844   .text.Endpoint_Read_Control_EStream_BE:0000000000000000 Endpoint_Read_Control_EStream_BE

UNDEFINED SYMBOLS
Endpoint_WaitUntilReady
__eerd_byte_m32u4
__eeupd_byte_m32u4
USB_ControlRequest
USB_DeviceState
